ARM GAS  C:\Users\JamesH\AppData\Local\Temp\ccsMpl52.s 			page 1


   1              		.syntax unified
   2              		.cpu cortex-m0
   3              		.fpu softvfp
   4              		.eabi_attribute 20, 1
   5              		.eabi_attribute 21, 1
   6              		.eabi_attribute 23, 3
   7              		.eabi_attribute 24, 1
   8              		.eabi_attribute 25, 1
   9              		.eabi_attribute 26, 1
  10              		.eabi_attribute 30, 1
  11              		.eabi_attribute 34, 0
  12              		.eabi_attribute 18, 4
  13              		.thumb
  14              		.syntax unified
  15              		.file	"cyfitter_cfg.c"
  16              		.text
  17              	.Ltext0:
  18              		.cfi_sections	.debug_frame
  19              		.section	.text.cfg_write_bytes32,"ax",%progbits
  20              		.align	2
  21              		.code	16
  22              		.thumb_func
  23              		.type	cfg_write_bytes32, %function
  24              	cfg_write_bytes32:
  25              	.LFB4:
  26              		.file 1 "Generated_Source\\PSoC4\\cyfitter_cfg.c"
   1:Generated_Source\PSoC4/cyfitter_cfg.c **** 
   2:Generated_Source\PSoC4/cyfitter_cfg.c **** /*******************************************************************************
   3:Generated_Source\PSoC4/cyfitter_cfg.c **** * File Name: cyfitter_cfg.c
   4:Generated_Source\PSoC4/cyfitter_cfg.c **** * 
   5:Generated_Source\PSoC4/cyfitter_cfg.c **** * PSoC Creator  4.4
   6:Generated_Source\PSoC4/cyfitter_cfg.c **** *
   7:Generated_Source\PSoC4/cyfitter_cfg.c **** * Description:
   8:Generated_Source\PSoC4/cyfitter_cfg.c **** * This file contains device initialization code.
   9:Generated_Source\PSoC4/cyfitter_cfg.c **** * Except for the user defined sections in CyClockStartupError(), this file should not be modified.
  10:Generated_Source\PSoC4/cyfitter_cfg.c **** * This file is automatically generated by PSoC Creator.
  11:Generated_Source\PSoC4/cyfitter_cfg.c **** *
  12:Generated_Source\PSoC4/cyfitter_cfg.c **** ********************************************************************************
  13:Generated_Source\PSoC4/cyfitter_cfg.c **** * Copyright (c) 2007-2020 Cypress Semiconductor.  All rights reserved.
  14:Generated_Source\PSoC4/cyfitter_cfg.c **** * You may use this file only in accordance with the license, terms, conditions, 
  15:Generated_Source\PSoC4/cyfitter_cfg.c **** * disclaimers, and limitations in the end user license agreement accompanying 
  16:Generated_Source\PSoC4/cyfitter_cfg.c **** * the software package with which this file was provided.
  17:Generated_Source\PSoC4/cyfitter_cfg.c **** ********************************************************************************/
  18:Generated_Source\PSoC4/cyfitter_cfg.c **** 
  19:Generated_Source\PSoC4/cyfitter_cfg.c **** #include <string.h>
  20:Generated_Source\PSoC4/cyfitter_cfg.c **** #include "cytypes.h"
  21:Generated_Source\PSoC4/cyfitter_cfg.c **** #include "cydevice_trm.h"
  22:Generated_Source\PSoC4/cyfitter_cfg.c **** #include "cyfitter.h"
  23:Generated_Source\PSoC4/cyfitter_cfg.c **** #include "CyLib.h"
  24:Generated_Source\PSoC4/cyfitter_cfg.c **** #include "CyLFClk.h"
  25:Generated_Source\PSoC4/cyfitter_cfg.c **** #include "cyfitter_cfg.h"
  26:Generated_Source\PSoC4/cyfitter_cfg.c **** #include "cyapicallbacks.h"
  27:Generated_Source\PSoC4/cyfitter_cfg.c **** 
  28:Generated_Source\PSoC4/cyfitter_cfg.c **** 
  29:Generated_Source\PSoC4/cyfitter_cfg.c **** #if defined(__GNUC__) || defined(__ARMCC_VERSION)
  30:Generated_Source\PSoC4/cyfitter_cfg.c ****     #define CYPACKED 
  31:Generated_Source\PSoC4/cyfitter_cfg.c ****     #define CYPACKED_ATTR __attribute__ ((packed))
ARM GAS  C:\Users\JamesH\AppData\Local\Temp\ccsMpl52.s 			page 2


  32:Generated_Source\PSoC4/cyfitter_cfg.c ****     #define CYALIGNED __attribute__ ((aligned))
  33:Generated_Source\PSoC4/cyfitter_cfg.c ****     #define CY_CFG_UNUSED __attribute__ ((unused))
  34:Generated_Source\PSoC4/cyfitter_cfg.c ****     #ifndef CY_CFG_SECTION
  35:Generated_Source\PSoC4/cyfitter_cfg.c ****         #define CY_CFG_SECTION __attribute__ ((section(".psocinit")))
  36:Generated_Source\PSoC4/cyfitter_cfg.c ****     #endif
  37:Generated_Source\PSoC4/cyfitter_cfg.c ****     
  38:Generated_Source\PSoC4/cyfitter_cfg.c ****     #if defined(__ARMCC_VERSION)
  39:Generated_Source\PSoC4/cyfitter_cfg.c ****         #define CY_CFG_MEMORY_BARRIER() __memory_changed()
  40:Generated_Source\PSoC4/cyfitter_cfg.c ****     #else
  41:Generated_Source\PSoC4/cyfitter_cfg.c ****         #define CY_CFG_MEMORY_BARRIER() __sync_synchronize()
  42:Generated_Source\PSoC4/cyfitter_cfg.c ****     #endif
  43:Generated_Source\PSoC4/cyfitter_cfg.c ****     
  44:Generated_Source\PSoC4/cyfitter_cfg.c **** #elif defined(__ICCARM__)
  45:Generated_Source\PSoC4/cyfitter_cfg.c ****     #include <intrinsics.h>
  46:Generated_Source\PSoC4/cyfitter_cfg.c **** 
  47:Generated_Source\PSoC4/cyfitter_cfg.c ****     #define CYPACKED __packed
  48:Generated_Source\PSoC4/cyfitter_cfg.c ****     #define CYPACKED_ATTR 
  49:Generated_Source\PSoC4/cyfitter_cfg.c ****     #define CYALIGNED _Pragma("data_alignment=4")
  50:Generated_Source\PSoC4/cyfitter_cfg.c ****     #define CY_CFG_UNUSED _Pragma("diag_suppress=Pe177")
  51:Generated_Source\PSoC4/cyfitter_cfg.c ****     #define CY_CFG_SECTION _Pragma("location=\".psocinit\"")
  52:Generated_Source\PSoC4/cyfitter_cfg.c ****     
  53:Generated_Source\PSoC4/cyfitter_cfg.c ****     #define CY_CFG_MEMORY_BARRIER() __DMB()
  54:Generated_Source\PSoC4/cyfitter_cfg.c ****     
  55:Generated_Source\PSoC4/cyfitter_cfg.c **** #else
  56:Generated_Source\PSoC4/cyfitter_cfg.c ****     #error Unsupported toolchain
  57:Generated_Source\PSoC4/cyfitter_cfg.c **** #endif
  58:Generated_Source\PSoC4/cyfitter_cfg.c **** 
  59:Generated_Source\PSoC4/cyfitter_cfg.c **** #ifndef CYCODE
  60:Generated_Source\PSoC4/cyfitter_cfg.c ****     #define CYCODE
  61:Generated_Source\PSoC4/cyfitter_cfg.c **** #endif
  62:Generated_Source\PSoC4/cyfitter_cfg.c **** #ifndef CYDATA
  63:Generated_Source\PSoC4/cyfitter_cfg.c ****     #define CYDATA
  64:Generated_Source\PSoC4/cyfitter_cfg.c **** #endif
  65:Generated_Source\PSoC4/cyfitter_cfg.c **** #ifndef CYFAR
  66:Generated_Source\PSoC4/cyfitter_cfg.c ****     #define CYFAR
  67:Generated_Source\PSoC4/cyfitter_cfg.c **** #endif
  68:Generated_Source\PSoC4/cyfitter_cfg.c **** #ifndef CYXDATA
  69:Generated_Source\PSoC4/cyfitter_cfg.c ****     #define CYXDATA
  70:Generated_Source\PSoC4/cyfitter_cfg.c **** #endif
  71:Generated_Source\PSoC4/cyfitter_cfg.c **** 
  72:Generated_Source\PSoC4/cyfitter_cfg.c **** 
  73:Generated_Source\PSoC4/cyfitter_cfg.c **** CY_CFG_UNUSED
  74:Generated_Source\PSoC4/cyfitter_cfg.c **** static void CYMEMZERO(void *s, size_t n);
  75:Generated_Source\PSoC4/cyfitter_cfg.c **** CY_CFG_UNUSED
  76:Generated_Source\PSoC4/cyfitter_cfg.c **** static void CYMEMZERO(void *s, size_t n)
  77:Generated_Source\PSoC4/cyfitter_cfg.c **** {
  78:Generated_Source\PSoC4/cyfitter_cfg.c **** 	(void)memset(s, 0, n);
  79:Generated_Source\PSoC4/cyfitter_cfg.c **** }
  80:Generated_Source\PSoC4/cyfitter_cfg.c **** CY_CFG_UNUSED
  81:Generated_Source\PSoC4/cyfitter_cfg.c **** static void CYCONFIGCPY(void *dest, const void *src, size_t n);
  82:Generated_Source\PSoC4/cyfitter_cfg.c **** CY_CFG_UNUSED
  83:Generated_Source\PSoC4/cyfitter_cfg.c **** static void CYCONFIGCPY(void *dest, const void *src, size_t n)
  84:Generated_Source\PSoC4/cyfitter_cfg.c **** {
  85:Generated_Source\PSoC4/cyfitter_cfg.c **** 	(void)memcpy(dest, src, n);
  86:Generated_Source\PSoC4/cyfitter_cfg.c **** }
  87:Generated_Source\PSoC4/cyfitter_cfg.c **** CY_CFG_UNUSED
  88:Generated_Source\PSoC4/cyfitter_cfg.c **** static void CYCONFIGCPYCODE(void *dest, const void *src, size_t n);
ARM GAS  C:\Users\JamesH\AppData\Local\Temp\ccsMpl52.s 			page 3


  89:Generated_Source\PSoC4/cyfitter_cfg.c **** CY_CFG_UNUSED
  90:Generated_Source\PSoC4/cyfitter_cfg.c **** static void CYCONFIGCPYCODE(void *dest, const void *src, size_t n)
  91:Generated_Source\PSoC4/cyfitter_cfg.c **** {
  92:Generated_Source\PSoC4/cyfitter_cfg.c **** 	(void)memcpy(dest, src, n);
  93:Generated_Source\PSoC4/cyfitter_cfg.c **** }
  94:Generated_Source\PSoC4/cyfitter_cfg.c **** 
  95:Generated_Source\PSoC4/cyfitter_cfg.c **** 
  96:Generated_Source\PSoC4/cyfitter_cfg.c **** 
  97:Generated_Source\PSoC4/cyfitter_cfg.c **** 
  98:Generated_Source\PSoC4/cyfitter_cfg.c **** /* Clock startup error codes                                                   */
  99:Generated_Source\PSoC4/cyfitter_cfg.c **** #define CYCLOCKSTART_NO_ERROR    0u
 100:Generated_Source\PSoC4/cyfitter_cfg.c **** #define CYCLOCKSTART_XTAL_ERROR  1u
 101:Generated_Source\PSoC4/cyfitter_cfg.c **** #define CYCLOCKSTART_32KHZ_ERROR 2u
 102:Generated_Source\PSoC4/cyfitter_cfg.c **** #define CYCLOCKSTART_PLL_ERROR   3u
 103:Generated_Source\PSoC4/cyfitter_cfg.c **** #define CYCLOCKSTART_FLL_ERROR   4u
 104:Generated_Source\PSoC4/cyfitter_cfg.c **** #define CYCLOCKSTART_WCO_ERROR   5u
 105:Generated_Source\PSoC4/cyfitter_cfg.c **** 
 106:Generated_Source\PSoC4/cyfitter_cfg.c **** 
 107:Generated_Source\PSoC4/cyfitter_cfg.c **** #ifdef CY_NEED_CYCLOCKSTARTUPERROR
 108:Generated_Source\PSoC4/cyfitter_cfg.c **** /*******************************************************************************
 109:Generated_Source\PSoC4/cyfitter_cfg.c **** * Function Name: CyClockStartupError
 110:Generated_Source\PSoC4/cyfitter_cfg.c **** ********************************************************************************
 111:Generated_Source\PSoC4/cyfitter_cfg.c **** * Summary:
 112:Generated_Source\PSoC4/cyfitter_cfg.c **** *  If an error is encountered during clock configuration (crystal startup error,
 113:Generated_Source\PSoC4/cyfitter_cfg.c **** *  PLL lock error, etc.), the system will end up here.  Unless reimplemented by
 114:Generated_Source\PSoC4/cyfitter_cfg.c **** *  the customer, this function will stop in an infinite loop.
 115:Generated_Source\PSoC4/cyfitter_cfg.c **** *
 116:Generated_Source\PSoC4/cyfitter_cfg.c **** * Parameters:
 117:Generated_Source\PSoC4/cyfitter_cfg.c **** *   void
 118:Generated_Source\PSoC4/cyfitter_cfg.c **** *
 119:Generated_Source\PSoC4/cyfitter_cfg.c **** * Return:
 120:Generated_Source\PSoC4/cyfitter_cfg.c **** *   void
 121:Generated_Source\PSoC4/cyfitter_cfg.c **** *
 122:Generated_Source\PSoC4/cyfitter_cfg.c **** *******************************************************************************/
 123:Generated_Source\PSoC4/cyfitter_cfg.c **** CY_CFG_UNUSED
 124:Generated_Source\PSoC4/cyfitter_cfg.c **** static void CyClockStartupError(uint8 errorCode);
 125:Generated_Source\PSoC4/cyfitter_cfg.c **** CY_CFG_UNUSED
 126:Generated_Source\PSoC4/cyfitter_cfg.c **** static void CyClockStartupError(uint8 errorCode)
 127:Generated_Source\PSoC4/cyfitter_cfg.c **** {
 128:Generated_Source\PSoC4/cyfitter_cfg.c ****     /* To remove the compiler warning if errorCode not used.                */
 129:Generated_Source\PSoC4/cyfitter_cfg.c ****     errorCode = errorCode;
 130:Generated_Source\PSoC4/cyfitter_cfg.c **** 
 131:Generated_Source\PSoC4/cyfitter_cfg.c ****     /* If we have a clock startup error (bad MHz crystal, PLL lock, etc.),  */
 132:Generated_Source\PSoC4/cyfitter_cfg.c ****     /* we will end up here to allow the customer to implement something to  */
 133:Generated_Source\PSoC4/cyfitter_cfg.c ****     /* deal with the clock condition.                                       */
 134:Generated_Source\PSoC4/cyfitter_cfg.c **** 
 135:Generated_Source\PSoC4/cyfitter_cfg.c **** #ifdef CY_CFG_CLOCK_STARTUP_ERROR_CALLBACK
 136:Generated_Source\PSoC4/cyfitter_cfg.c ****     CY_CFG_Clock_Startup_ErrorCallback();
 137:Generated_Source\PSoC4/cyfitter_cfg.c **** #else
 138:Generated_Source\PSoC4/cyfitter_cfg.c ****     /*  If not using CY_CFG_CLOCK_STARTUP_ERROR_CALLBACK, place your clock startup code here. */
 139:Generated_Source\PSoC4/cyfitter_cfg.c ****     /* `#START CyClockStartupError` */
 140:Generated_Source\PSoC4/cyfitter_cfg.c **** 
 141:Generated_Source\PSoC4/cyfitter_cfg.c **** 
 142:Generated_Source\PSoC4/cyfitter_cfg.c **** 
 143:Generated_Source\PSoC4/cyfitter_cfg.c ****     /* `#END` */
 144:Generated_Source\PSoC4/cyfitter_cfg.c **** 
 145:Generated_Source\PSoC4/cyfitter_cfg.c ****     while(1) {}
ARM GAS  C:\Users\JamesH\AppData\Local\Temp\ccsMpl52.s 			page 4


 146:Generated_Source\PSoC4/cyfitter_cfg.c **** #endif /* CY_CFG_CLOCK_STARTUP_ERROR_CALLBACK */
 147:Generated_Source\PSoC4/cyfitter_cfg.c **** }
 148:Generated_Source\PSoC4/cyfitter_cfg.c **** #endif
 149:Generated_Source\PSoC4/cyfitter_cfg.c **** 
 150:Generated_Source\PSoC4/cyfitter_cfg.c **** #define CY_CFG_BASE_ADDR_COUNT 10u
 151:Generated_Source\PSoC4/cyfitter_cfg.c **** CYPACKED typedef struct
 152:Generated_Source\PSoC4/cyfitter_cfg.c **** {
 153:Generated_Source\PSoC4/cyfitter_cfg.c **** 	uint8 offset;
 154:Generated_Source\PSoC4/cyfitter_cfg.c **** 	uint8 value;
 155:Generated_Source\PSoC4/cyfitter_cfg.c **** } CYPACKED_ATTR cy_cfg_addrvalue_t;
 156:Generated_Source\PSoC4/cyfitter_cfg.c **** 
 157:Generated_Source\PSoC4/cyfitter_cfg.c **** 
 158:Generated_Source\PSoC4/cyfitter_cfg.c **** 
 159:Generated_Source\PSoC4/cyfitter_cfg.c **** /*******************************************************************************
 160:Generated_Source\PSoC4/cyfitter_cfg.c **** * Function Name: cfg_write_bytes32
 161:Generated_Source\PSoC4/cyfitter_cfg.c **** ********************************************************************************
 162:Generated_Source\PSoC4/cyfitter_cfg.c **** * Summary:
 163:Generated_Source\PSoC4/cyfitter_cfg.c **** *  This function is used for setting up the chip configuration areas that
 164:Generated_Source\PSoC4/cyfitter_cfg.c **** *  contain relatively sparse data.
 165:Generated_Source\PSoC4/cyfitter_cfg.c **** *
 166:Generated_Source\PSoC4/cyfitter_cfg.c **** * Parameters:
 167:Generated_Source\PSoC4/cyfitter_cfg.c **** *   void
 168:Generated_Source\PSoC4/cyfitter_cfg.c **** *
 169:Generated_Source\PSoC4/cyfitter_cfg.c **** * Return:
 170:Generated_Source\PSoC4/cyfitter_cfg.c **** *   void
 171:Generated_Source\PSoC4/cyfitter_cfg.c **** *
 172:Generated_Source\PSoC4/cyfitter_cfg.c **** *******************************************************************************/
 173:Generated_Source\PSoC4/cyfitter_cfg.c **** static void cfg_write_bytes32(const uint32 addr_table[], const cy_cfg_addrvalue_t data_table[]);
 174:Generated_Source\PSoC4/cyfitter_cfg.c **** static void cfg_write_bytes32(const uint32 addr_table[], const cy_cfg_addrvalue_t data_table[])
 175:Generated_Source\PSoC4/cyfitter_cfg.c **** {
  27              		.loc 1 175 0
  28              		.cfi_startproc
  29              		@ args = 0, pretend = 0, frame = 0
  30              		@ frame_needed = 0, uses_anonymous_args = 0
  31              	.LVL0:
  32 0000 F0B5     		push	{r4, r5, r6, r7, lr}
  33              		.cfi_def_cfa_offset 20
  34              		.cfi_offset 4, -20
  35              		.cfi_offset 5, -16
  36              		.cfi_offset 6, -12
  37              		.cfi_offset 7, -8
  38              		.cfi_offset 14, -4
  39              	.LVL1:
 176:Generated_Source\PSoC4/cyfitter_cfg.c **** 	/* For 32-bit little-endian architectures */
 177:Generated_Source\PSoC4/cyfitter_cfg.c **** 	uint32 i, j = 0u;
  40              		.loc 1 177 0
  41 0002 0025     		movs	r5, #0
 178:Generated_Source\PSoC4/cyfitter_cfg.c **** 	for (i = 0u; i < CY_CFG_BASE_ADDR_COUNT; i++)
  42              		.loc 1 178 0
  43 0004 0027     		movs	r7, #0
  44 0006 11E0     		b	.L2
  45              	.LVL2:
  46              	.L5:
  47              	.LBB2:
 179:Generated_Source\PSoC4/cyfitter_cfg.c **** 	{
 180:Generated_Source\PSoC4/cyfitter_cfg.c **** 		uint32 baseAddr = addr_table[i];
  48              		.loc 1 180 0
ARM GAS  C:\Users\JamesH\AppData\Local\Temp\ccsMpl52.s 			page 5


  49 0008 BB00     		lsls	r3, r7, #2
  50 000a C658     		ldr	r6, [r0, r3]
  51              	.LVL3:
 181:Generated_Source\PSoC4/cyfitter_cfg.c **** 		uint8 count = (uint8)baseAddr;
  52              		.loc 1 181 0
  53 000c F3B2     		uxtb	r3, r6
  54              	.LVL4:
 182:Generated_Source\PSoC4/cyfitter_cfg.c **** 		baseAddr &= 0xFFFFFF00u;
  55              		.loc 1 182 0
  56 000e FF22     		movs	r2, #255
  57 0010 9643     		bics	r6, r2
  58              	.LVL5:
 183:Generated_Source\PSoC4/cyfitter_cfg.c **** 		while (count != 0u)
  59              		.loc 1 183 0
  60 0012 08E0     		b	.L3
  61              	.L4:
 184:Generated_Source\PSoC4/cyfitter_cfg.c **** 		{
 185:Generated_Source\PSoC4/cyfitter_cfg.c **** 			CY_SET_REG8((void *)(baseAddr + data_table[j].offset), data_table[j].value);
  62              		.loc 1 185 0
  63 0014 6A00     		lsls	r2, r5, #1
  64 0016 8A18     		adds	r2, r1, r2
  65 0018 1478     		ldrb	r4, [r2]
  66 001a A419     		adds	r4, r4, r6
  67 001c 5278     		ldrb	r2, [r2, #1]
  68 001e 2270     		strb	r2, [r4]
 186:Generated_Source\PSoC4/cyfitter_cfg.c **** 			j++;
  69              		.loc 1 186 0
  70 0020 0135     		adds	r5, r5, #1
  71              	.LVL6:
 187:Generated_Source\PSoC4/cyfitter_cfg.c **** 			count--;
  72              		.loc 1 187 0
  73 0022 013B     		subs	r3, r3, #1
  74              	.LVL7:
  75 0024 DBB2     		uxtb	r3, r3
  76              	.LVL8:
  77              	.L3:
 183:Generated_Source\PSoC4/cyfitter_cfg.c **** 		{
  78              		.loc 1 183 0
  79 0026 002B     		cmp	r3, #0
  80 0028 F4D1     		bne	.L4
  81              	.LBE2:
 178:Generated_Source\PSoC4/cyfitter_cfg.c **** 	{
  82              		.loc 1 178 0 discriminator 2
  83 002a 0137     		adds	r7, r7, #1
  84              	.LVL9:
  85              	.L2:
 178:Generated_Source\PSoC4/cyfitter_cfg.c **** 	{
  86              		.loc 1 178 0 is_stmt 0 discriminator 1
  87 002c 092F     		cmp	r7, #9
  88 002e EBD9     		bls	.L5
 188:Generated_Source\PSoC4/cyfitter_cfg.c **** 		}
 189:Generated_Source\PSoC4/cyfitter_cfg.c **** 	}
 190:Generated_Source\PSoC4/cyfitter_cfg.c **** }
  89              		.loc 1 190 0 is_stmt 1
  90              		@ sp needed
  91              	.LVL10:
  92              	.LVL11:
ARM GAS  C:\Users\JamesH\AppData\Local\Temp\ccsMpl52.s 			page 6


  93 0030 F0BD     		pop	{r4, r5, r6, r7, pc}
  94              		.cfi_endproc
  95              	.LFE4:
  96              		.size	cfg_write_bytes32, .-cfg_write_bytes32
  97 0032 C046     		.section	.text.AnalogSetDefault,"ax",%progbits
  98              		.align	2
  99              		.code	16
 100              		.thumb_func
 101              		.type	AnalogSetDefault, %function
 102              	AnalogSetDefault:
 103              	.LFB6:
 191:Generated_Source\PSoC4/cyfitter_cfg.c **** 
 192:Generated_Source\PSoC4/cyfitter_cfg.c **** 
 193:Generated_Source\PSoC4/cyfitter_cfg.c **** /*******************************************************************************
 194:Generated_Source\PSoC4/cyfitter_cfg.c **** * Function Name: ClockSetup
 195:Generated_Source\PSoC4/cyfitter_cfg.c **** ********************************************************************************
 196:Generated_Source\PSoC4/cyfitter_cfg.c **** *
 197:Generated_Source\PSoC4/cyfitter_cfg.c **** * Summary:
 198:Generated_Source\PSoC4/cyfitter_cfg.c **** *   Performs the initialization of all of the clocks in the device based on the
 199:Generated_Source\PSoC4/cyfitter_cfg.c **** *   settings in the Clock tab of the DWR.  This includes enabling the requested
 200:Generated_Source\PSoC4/cyfitter_cfg.c **** *   clocks and setting the necessary dividers to produce the desired frequency. 
 201:Generated_Source\PSoC4/cyfitter_cfg.c **** *
 202:Generated_Source\PSoC4/cyfitter_cfg.c **** * Parameters:
 203:Generated_Source\PSoC4/cyfitter_cfg.c **** *   void
 204:Generated_Source\PSoC4/cyfitter_cfg.c **** *
 205:Generated_Source\PSoC4/cyfitter_cfg.c **** * Return:
 206:Generated_Source\PSoC4/cyfitter_cfg.c **** *   void
 207:Generated_Source\PSoC4/cyfitter_cfg.c **** *
 208:Generated_Source\PSoC4/cyfitter_cfg.c **** *******************************************************************************/
 209:Generated_Source\PSoC4/cyfitter_cfg.c **** static void ClockSetup(void);
 210:Generated_Source\PSoC4/cyfitter_cfg.c **** CY_CFG_SECTION
 211:Generated_Source\PSoC4/cyfitter_cfg.c **** static void ClockSetup(void)
 212:Generated_Source\PSoC4/cyfitter_cfg.c **** {
 213:Generated_Source\PSoC4/cyfitter_cfg.c **** 
 214:Generated_Source\PSoC4/cyfitter_cfg.c **** 	/* Set Flash Cycles based on max possible frequency in case a glitch occurs during ClockSetup(). *
 215:Generated_Source\PSoC4/cyfitter_cfg.c **** 	CY_SET_REG32((void CYXDATA *)(CYREG_CPUSS_FLASH_CTL), (0x0012u));
 216:Generated_Source\PSoC4/cyfitter_cfg.c **** 	/* Setup and trim IMO based on desired frequency. */
 217:Generated_Source\PSoC4/cyfitter_cfg.c **** 	CySysClkWriteImoFreq(48u);
 218:Generated_Source\PSoC4/cyfitter_cfg.c **** 	/* CYDEV_CLK_ILO_CONFIG Starting address: CYDEV_CLK_ILO_CONFIG */
 219:Generated_Source\PSoC4/cyfitter_cfg.c **** 	CY_SET_REG32((void *)(CYREG_CLK_ILO_CONFIG), 0x80000006u);
 220:Generated_Source\PSoC4/cyfitter_cfg.c **** 
 221:Generated_Source\PSoC4/cyfitter_cfg.c **** 
 222:Generated_Source\PSoC4/cyfitter_cfg.c **** 	/* Setup phase aligned clocks */
 223:Generated_Source\PSoC4/cyfitter_cfg.c **** 	CY_SET_REG32((void *)CYREG_PERI_DIV_16_CTL2, 0x00009500u);
 224:Generated_Source\PSoC4/cyfitter_cfg.c **** 	CY_SET_REG32((void *)CYREG_PERI_DIV_CMD, 0x8000FF42u);
 225:Generated_Source\PSoC4/cyfitter_cfg.c **** 	CY_SET_REG32((void *)CYREG_PERI_DIV_16_CTL1, 0x00002200u);
 226:Generated_Source\PSoC4/cyfitter_cfg.c **** 	CY_SET_REG32((void *)CYREG_PERI_DIV_CMD, 0x8000FF41u);
 227:Generated_Source\PSoC4/cyfitter_cfg.c **** 	CY_SET_REG32((void *)CYREG_PERI_DIV_16_CTL0, 0x00000500u);
 228:Generated_Source\PSoC4/cyfitter_cfg.c **** 	CY_SET_REG32((void *)CYREG_PERI_DIV_CMD, 0x8000FF40u);
 229:Generated_Source\PSoC4/cyfitter_cfg.c **** 
 230:Generated_Source\PSoC4/cyfitter_cfg.c **** 	/* CYDEV_CLK_IMO_CONFIG Starting address: CYDEV_CLK_IMO_CONFIG */
 231:Generated_Source\PSoC4/cyfitter_cfg.c **** 	CY_SET_REG32((void *)(CYREG_CLK_IMO_CONFIG), 0x80000000u);
 232:Generated_Source\PSoC4/cyfitter_cfg.c **** 
 233:Generated_Source\PSoC4/cyfitter_cfg.c **** 	/* CYDEV_CLK_SELECT Starting address: CYDEV_CLK_SELECT */
 234:Generated_Source\PSoC4/cyfitter_cfg.c **** 	CY_SET_REG32((void *)(CYREG_CLK_SELECT), 0x00040000u);
 235:Generated_Source\PSoC4/cyfitter_cfg.c **** 
 236:Generated_Source\PSoC4/cyfitter_cfg.c **** 	/* CYDEV_PERI_PCLK_CTL19 Starting address: CYDEV_PERI_PCLK_CTL19 */
ARM GAS  C:\Users\JamesH\AppData\Local\Temp\ccsMpl52.s 			page 7


 237:Generated_Source\PSoC4/cyfitter_cfg.c **** 	CY_SET_REG32((void *)(CYREG_PERI_PCLK_CTL19), 0x00000042u);
 238:Generated_Source\PSoC4/cyfitter_cfg.c **** 
 239:Generated_Source\PSoC4/cyfitter_cfg.c **** 	/* CYDEV_PERI_PCLK_CTL4 Starting address: CYDEV_PERI_PCLK_CTL4 */
 240:Generated_Source\PSoC4/cyfitter_cfg.c **** 	CY_SET_REG32((void *)(CYREG_PERI_PCLK_CTL4), 0x00000041u);
 241:Generated_Source\PSoC4/cyfitter_cfg.c **** 
 242:Generated_Source\PSoC4/cyfitter_cfg.c **** 	/* CYDEV_PERI_PCLK_CTL2 Starting address: CYDEV_PERI_PCLK_CTL2 */
 243:Generated_Source\PSoC4/cyfitter_cfg.c **** 	CY_SET_REG32((void *)(CYREG_PERI_PCLK_CTL2), 0x00000040u);
 244:Generated_Source\PSoC4/cyfitter_cfg.c **** 
 245:Generated_Source\PSoC4/cyfitter_cfg.c **** 	(void)CyIntSetVector(7u, &CySysWdtIsr);
 246:Generated_Source\PSoC4/cyfitter_cfg.c **** 	CyIntEnable(7u);
 247:Generated_Source\PSoC4/cyfitter_cfg.c **** 	CY_SET_REG32((void *)(CYREG_WDT_CONFIG), 0x00000000u);
 248:Generated_Source\PSoC4/cyfitter_cfg.c **** }
 249:Generated_Source\PSoC4/cyfitter_cfg.c **** 
 250:Generated_Source\PSoC4/cyfitter_cfg.c **** 
 251:Generated_Source\PSoC4/cyfitter_cfg.c **** /* Analog API Functions */
 252:Generated_Source\PSoC4/cyfitter_cfg.c **** 
 253:Generated_Source\PSoC4/cyfitter_cfg.c **** 
 254:Generated_Source\PSoC4/cyfitter_cfg.c **** /*******************************************************************************
 255:Generated_Source\PSoC4/cyfitter_cfg.c **** * Function Name: AnalogSetDefault
 256:Generated_Source\PSoC4/cyfitter_cfg.c **** ********************************************************************************
 257:Generated_Source\PSoC4/cyfitter_cfg.c **** *
 258:Generated_Source\PSoC4/cyfitter_cfg.c **** * Summary:
 259:Generated_Source\PSoC4/cyfitter_cfg.c **** *  Sets up the analog portions of the chip to default values based on chip
 260:Generated_Source\PSoC4/cyfitter_cfg.c **** *  configuration options from the project.
 261:Generated_Source\PSoC4/cyfitter_cfg.c **** *
 262:Generated_Source\PSoC4/cyfitter_cfg.c **** * Parameters:
 263:Generated_Source\PSoC4/cyfitter_cfg.c **** *  void
 264:Generated_Source\PSoC4/cyfitter_cfg.c **** *
 265:Generated_Source\PSoC4/cyfitter_cfg.c **** * Return:
 266:Generated_Source\PSoC4/cyfitter_cfg.c **** *  void
 267:Generated_Source\PSoC4/cyfitter_cfg.c **** *
 268:Generated_Source\PSoC4/cyfitter_cfg.c **** *******************************************************************************/
 269:Generated_Source\PSoC4/cyfitter_cfg.c **** static void AnalogSetDefault(void);
 270:Generated_Source\PSoC4/cyfitter_cfg.c **** static void AnalogSetDefault(void)
 271:Generated_Source\PSoC4/cyfitter_cfg.c **** {
 104              		.loc 1 271 0
 105              		.cfi_startproc
 106              		@ args = 0, pretend = 0, frame = 0
 107              		@ frame_needed = 0, uses_anonymous_args = 0
 108              		@ link register save eliminated.
 272:Generated_Source\PSoC4/cyfitter_cfg.c **** 	CY_SET_XTND_REG32((void CYFAR *)CYREG_CTBM0_DFT_CTRL, 0x00000003u);
 109              		.loc 1 272 0
 110 0000 0323     		movs	r3, #3
 111 0002 044A     		ldr	r2, .L7
 112 0004 1360     		str	r3, [r2]
 273:Generated_Source\PSoC4/cyfitter_cfg.c **** 	CY_SET_XTND_REG32((void CYFAR *)CYREG_CTBM1_DFT_CTRL, 0x00000003u);
 113              		.loc 1 273 0
 114 0006 044A     		ldr	r2, .L7+4
 115 0008 1360     		str	r3, [r2]
 274:Generated_Source\PSoC4/cyfitter_cfg.c **** 	CY_SET_XTND_REG32((void CYFAR *)CYREG_PASS_DSAB_DSAB_CTRL, 0x00000000u);
 116              		.loc 1 274 0
 117 000a 0022     		movs	r2, #0
 118 000c 034B     		ldr	r3, .L7+8
 119 000e 1A60     		str	r2, [r3]
 275:Generated_Source\PSoC4/cyfitter_cfg.c **** }
 120              		.loc 1 275 0
 121              		@ sp needed
ARM GAS  C:\Users\JamesH\AppData\Local\Temp\ccsMpl52.s 			page 8


 122 0010 7047     		bx	lr
 123              	.L8:
 124 0012 C046     		.align	2
 125              	.L7:
 126 0014 30003040 		.word	1076887600
 127 0018 30003140 		.word	1076953136
 128 001c 000E3F40 		.word	1077874176
 129              		.cfi_endproc
 130              	.LFE6:
 131              		.size	AnalogSetDefault, .-AnalogSetDefault
 132              		.section	.text.CYMEMZERO,"ax",%progbits
 133              		.align	2
 134              		.code	16
 135              		.thumb_func
 136              		.type	CYMEMZERO, %function
 137              	CYMEMZERO:
 138              	.LFB1:
  77:Generated_Source\PSoC4/cyfitter_cfg.c **** 	(void)memset(s, 0, n);
 139              		.loc 1 77 0
 140              		.cfi_startproc
 141              		@ args = 0, pretend = 0, frame = 0
 142              		@ frame_needed = 0, uses_anonymous_args = 0
 143              	.LVL12:
 144 0000 10B5     		push	{r4, lr}
 145              		.cfi_def_cfa_offset 8
 146              		.cfi_offset 4, -8
 147              		.cfi_offset 14, -4
 148 0002 0A00     		movs	r2, r1
  78:Generated_Source\PSoC4/cyfitter_cfg.c **** }
 149              		.loc 1 78 0
 150 0004 0021     		movs	r1, #0
 151              	.LVL13:
 152 0006 FFF7FEFF 		bl	memset
 153              	.LVL14:
  79:Generated_Source\PSoC4/cyfitter_cfg.c **** CY_CFG_UNUSED
 154              		.loc 1 79 0
 155              		@ sp needed
 156 000a 10BD     		pop	{r4, pc}
 157              		.cfi_endproc
 158              	.LFE1:
 159              		.size	CYMEMZERO, .-CYMEMZERO
 160              		.section	.psocinit,"ax",%progbits
 161              		.align	2
 162              		.code	16
 163              		.thumb_func
 164              		.type	ClockSetup, %function
 165              	ClockSetup:
 166              	.LFB5:
 212:Generated_Source\PSoC4/cyfitter_cfg.c **** 
 167              		.loc 1 212 0
 168              		.cfi_startproc
 169              		@ args = 0, pretend = 0, frame = 0
 170              		@ frame_needed = 0, uses_anonymous_args = 0
 171 0000 10B5     		push	{r4, lr}
 172              		.cfi_def_cfa_offset 8
 173              		.cfi_offset 4, -8
 174              		.cfi_offset 14, -4
ARM GAS  C:\Users\JamesH\AppData\Local\Temp\ccsMpl52.s 			page 9


 215:Generated_Source\PSoC4/cyfitter_cfg.c **** 	/* Setup and trim IMO based on desired frequency. */
 175              		.loc 1 215 0
 176 0002 1222     		movs	r2, #18
 177 0004 1B4B     		ldr	r3, .L11
 178 0006 1A60     		str	r2, [r3]
 217:Generated_Source\PSoC4/cyfitter_cfg.c **** 	/* CYDEV_CLK_ILO_CONFIG Starting address: CYDEV_CLK_ILO_CONFIG */
 179              		.loc 1 217 0
 180 0008 3020     		movs	r0, #48
 181 000a FFF7FEFF 		bl	CySysClkWriteImoFreq
 182              	.LVL15:
 219:Generated_Source\PSoC4/cyfitter_cfg.c **** 
 183              		.loc 1 219 0
 184 000e 1A4A     		ldr	r2, .L11+4
 185 0010 1A4B     		ldr	r3, .L11+8
 186 0012 1A60     		str	r2, [r3]
 223:Generated_Source\PSoC4/cyfitter_cfg.c **** 	CY_SET_REG32((void *)CYREG_PERI_DIV_CMD, 0x8000FF42u);
 187              		.loc 1 223 0
 188 0014 9522     		movs	r2, #149
 189 0016 1202     		lsls	r2, r2, #8
 190 0018 194B     		ldr	r3, .L11+12
 191 001a 1A60     		str	r2, [r3]
 224:Generated_Source\PSoC4/cyfitter_cfg.c **** 	CY_SET_REG32((void *)CYREG_PERI_DIV_16_CTL1, 0x00002200u);
 192              		.loc 1 224 0
 193 001c 194B     		ldr	r3, .L11+16
 194 001e 1A4A     		ldr	r2, .L11+20
 195 0020 1A60     		str	r2, [r3]
 225:Generated_Source\PSoC4/cyfitter_cfg.c **** 	CY_SET_REG32((void *)CYREG_PERI_DIV_CMD, 0x8000FF41u);
 196              		.loc 1 225 0
 197 0022 8821     		movs	r1, #136
 198 0024 8901     		lsls	r1, r1, #6
 199 0026 194A     		ldr	r2, .L11+24
 200 0028 1160     		str	r1, [r2]
 226:Generated_Source\PSoC4/cyfitter_cfg.c **** 	CY_SET_REG32((void *)CYREG_PERI_DIV_16_CTL0, 0x00000500u);
 201              		.loc 1 226 0
 202 002a 194A     		ldr	r2, .L11+28
 203 002c 1A60     		str	r2, [r3]
 227:Generated_Source\PSoC4/cyfitter_cfg.c **** 	CY_SET_REG32((void *)CYREG_PERI_DIV_CMD, 0x8000FF40u);
 204              		.loc 1 227 0
 205 002e A021     		movs	r1, #160
 206 0030 C900     		lsls	r1, r1, #3
 207 0032 184A     		ldr	r2, .L11+32
 208 0034 1160     		str	r1, [r2]
 228:Generated_Source\PSoC4/cyfitter_cfg.c **** 
 209              		.loc 1 228 0
 210 0036 184A     		ldr	r2, .L11+36
 211 0038 1A60     		str	r2, [r3]
 231:Generated_Source\PSoC4/cyfitter_cfg.c **** 
 212              		.loc 1 231 0
 213 003a 8022     		movs	r2, #128
 214 003c 1206     		lsls	r2, r2, #24
 215 003e 174B     		ldr	r3, .L11+40
 216 0040 1A60     		str	r2, [r3]
 234:Generated_Source\PSoC4/cyfitter_cfg.c **** 
 217              		.loc 1 234 0
 218 0042 8022     		movs	r2, #128
 219 0044 D202     		lsls	r2, r2, #11
 220 0046 164B     		ldr	r3, .L11+44
ARM GAS  C:\Users\JamesH\AppData\Local\Temp\ccsMpl52.s 			page 10


 221 0048 1A60     		str	r2, [r3]
 237:Generated_Source\PSoC4/cyfitter_cfg.c **** 
 222              		.loc 1 237 0
 223 004a 4222     		movs	r2, #66
 224 004c 154B     		ldr	r3, .L11+48
 225 004e 1A60     		str	r2, [r3]
 240:Generated_Source\PSoC4/cyfitter_cfg.c **** 
 226              		.loc 1 240 0
 227 0050 013A     		subs	r2, r2, #1
 228 0052 154B     		ldr	r3, .L11+52
 229 0054 1A60     		str	r2, [r3]
 243:Generated_Source\PSoC4/cyfitter_cfg.c **** 
 230              		.loc 1 243 0
 231 0056 013A     		subs	r2, r2, #1
 232 0058 144B     		ldr	r3, .L11+56
 233 005a 1A60     		str	r2, [r3]
 245:Generated_Source\PSoC4/cyfitter_cfg.c **** 	CyIntEnable(7u);
 234              		.loc 1 245 0
 235 005c 1449     		ldr	r1, .L11+60
 236 005e 0720     		movs	r0, #7
 237 0060 FFF7FEFF 		bl	CyIntSetVector
 238              	.LVL16:
 246:Generated_Source\PSoC4/cyfitter_cfg.c **** 	CY_SET_REG32((void *)(CYREG_WDT_CONFIG), 0x00000000u);
 239              		.loc 1 246 0
 240 0064 0720     		movs	r0, #7
 241 0066 FFF7FEFF 		bl	CyIntEnable
 242              	.LVL17:
 247:Generated_Source\PSoC4/cyfitter_cfg.c **** }
 243              		.loc 1 247 0
 244 006a 0022     		movs	r2, #0
 245 006c 114B     		ldr	r3, .L11+64
 246 006e 1A60     		str	r2, [r3]
 248:Generated_Source\PSoC4/cyfitter_cfg.c **** 
 247              		.loc 1 248 0
 248              		@ sp needed
 249 0070 10BD     		pop	{r4, pc}
 250              	.L12:
 251 0072 C046     		.align	2
 252              	.L11:
 253 0074 30001040 		.word	1074790448
 254 0078 06000080 		.word	-2147483642
 255 007c 04010B40 		.word	1074462980
 256 0080 08030140 		.word	1073808136
 257 0084 00000140 		.word	1073807360
 258 0088 42FF0080 		.word	-2147418302
 259 008c 04030140 		.word	1073808132
 260 0090 41FF0080 		.word	-2147418303
 261 0094 00030140 		.word	1073808128
 262 0098 40FF0080 		.word	-2147418304
 263 009c 08010B40 		.word	1074462984
 264 00a0 00010B40 		.word	1074462976
 265 00a4 4C010140 		.word	1073807692
 266 00a8 10010140 		.word	1073807632
 267 00ac 08010140 		.word	1073807624
 268 00b0 00000000 		.word	CySysWdtIsr
 269 00b4 0C020B40 		.word	1074463244
 270              		.cfi_endproc
ARM GAS  C:\Users\JamesH\AppData\Local\Temp\ccsMpl52.s 			page 11


 271              	.LFE5:
 272              		.size	ClockSetup, .-ClockSetup
 273              		.align	2
 274              		.global	cyfitter_cfg
 275              		.code	16
 276              		.thumb_func
 277              		.type	cyfitter_cfg, %function
 278              	cyfitter_cfg:
 279              	.LFB7:
 276:Generated_Source\PSoC4/cyfitter_cfg.c **** 
 277:Generated_Source\PSoC4/cyfitter_cfg.c **** 
 278:Generated_Source\PSoC4/cyfitter_cfg.c **** 
 279:Generated_Source\PSoC4/cyfitter_cfg.c **** 
 280:Generated_Source\PSoC4/cyfitter_cfg.c **** /*******************************************************************************
 281:Generated_Source\PSoC4/cyfitter_cfg.c **** * Function Name: cyfitter_cfg
 282:Generated_Source\PSoC4/cyfitter_cfg.c **** ********************************************************************************
 283:Generated_Source\PSoC4/cyfitter_cfg.c **** * Summary:
 284:Generated_Source\PSoC4/cyfitter_cfg.c **** *  This function is called by the start-up code for the selected device. It
 285:Generated_Source\PSoC4/cyfitter_cfg.c **** *  performs all of the necessary device configuration based on the design
 286:Generated_Source\PSoC4/cyfitter_cfg.c **** *  settings.  This includes settings from the Design Wide Resources (DWR) such
 287:Generated_Source\PSoC4/cyfitter_cfg.c **** *  as Clocks and Pins as well as any component configuration that is necessary.
 288:Generated_Source\PSoC4/cyfitter_cfg.c **** *
 289:Generated_Source\PSoC4/cyfitter_cfg.c **** * Parameters:
 290:Generated_Source\PSoC4/cyfitter_cfg.c **** *   void
 291:Generated_Source\PSoC4/cyfitter_cfg.c **** *
 292:Generated_Source\PSoC4/cyfitter_cfg.c **** * Return:
 293:Generated_Source\PSoC4/cyfitter_cfg.c **** *   void
 294:Generated_Source\PSoC4/cyfitter_cfg.c **** *
 295:Generated_Source\PSoC4/cyfitter_cfg.c **** *******************************************************************************/
 296:Generated_Source\PSoC4/cyfitter_cfg.c **** CY_CFG_SECTION
 297:Generated_Source\PSoC4/cyfitter_cfg.c **** void cyfitter_cfg(void)
 298:Generated_Source\PSoC4/cyfitter_cfg.c **** {
 280              		.loc 1 298 0
 281              		.cfi_startproc
 282              		@ args = 0, pretend = 0, frame = 0
 283              		@ frame_needed = 0, uses_anonymous_args = 0
 284 00b8 10B5     		push	{r4, lr}
 285              		.cfi_def_cfa_offset 8
 286              		.cfi_offset 4, -8
 287              		.cfi_offset 14, -4
 299:Generated_Source\PSoC4/cyfitter_cfg.c **** 	/* Disable interrupts by default. Let user enable if/when they want. */
 300:Generated_Source\PSoC4/cyfitter_cfg.c **** 	CyGlobalIntDisable;
 288              		.loc 1 300 0
 289              		.syntax divided
 290              	@ 300 "Generated_Source\PSoC4\cyfitter_cfg.c" 1
 291 00ba 72B6     		CPSID   i
 292              	@ 0 "" 2
 293              	.LVL18:
 294              		.thumb
 295              		.syntax unified
 296              	.LBB3:
 301:Generated_Source\PSoC4/cyfitter_cfg.c **** 
 302:Generated_Source\PSoC4/cyfitter_cfg.c **** 	{
 303:Generated_Source\PSoC4/cyfitter_cfg.c **** 		static const uint32 CYCODE cy_cfg_addr_table[] = {
 304:Generated_Source\PSoC4/cyfitter_cfg.c **** 			0x400F0005u, /* Base address: 0x400F0000 Count: 5 */
 305:Generated_Source\PSoC4/cyfitter_cfg.c **** 			0x400F304Du, /* Base address: 0x400F3000 Count: 77 */
 306:Generated_Source\PSoC4/cyfitter_cfg.c **** 			0x400F3121u, /* Base address: 0x400F3100 Count: 33 */
ARM GAS  C:\Users\JamesH\AppData\Local\Temp\ccsMpl52.s 			page 12


 307:Generated_Source\PSoC4/cyfitter_cfg.c **** 			0x400F323Eu, /* Base address: 0x400F3200 Count: 62 */
 308:Generated_Source\PSoC4/cyfitter_cfg.c **** 			0x400F332Cu, /* Base address: 0x400F3300 Count: 44 */
 309:Generated_Source\PSoC4/cyfitter_cfg.c **** 			0x400F4002u, /* Base address: 0x400F4000 Count: 2 */
 310:Generated_Source\PSoC4/cyfitter_cfg.c **** 			0x400F4101u, /* Base address: 0x400F4100 Count: 1 */
 311:Generated_Source\PSoC4/cyfitter_cfg.c **** 			0x400F420Bu, /* Base address: 0x400F4200 Count: 11 */
 312:Generated_Source\PSoC4/cyfitter_cfg.c **** 			0x400F4313u, /* Base address: 0x400F4300 Count: 19 */
 313:Generated_Source\PSoC4/cyfitter_cfg.c **** 			0x400F6002u, /* Base address: 0x400F6000 Count: 2 */
 314:Generated_Source\PSoC4/cyfitter_cfg.c **** 		};
 315:Generated_Source\PSoC4/cyfitter_cfg.c **** 
 316:Generated_Source\PSoC4/cyfitter_cfg.c **** 		static const cy_cfg_addrvalue_t CYCODE cy_cfg_data_table[] = {
 317:Generated_Source\PSoC4/cyfitter_cfg.c **** 			{0x03u, 0xFFu},
 318:Generated_Source\PSoC4/cyfitter_cfg.c **** 			{0x13u, 0xFFu},
 319:Generated_Source\PSoC4/cyfitter_cfg.c **** 			{0x23u, 0xFFu},
 320:Generated_Source\PSoC4/cyfitter_cfg.c **** 			{0x33u, 0xFFu},
 321:Generated_Source\PSoC4/cyfitter_cfg.c **** 			{0x81u, 0x0Du},
 322:Generated_Source\PSoC4/cyfitter_cfg.c **** 			{0x04u, 0x1Fu},
 323:Generated_Source\PSoC4/cyfitter_cfg.c **** 			{0x10u, 0x06u},
 324:Generated_Source\PSoC4/cyfitter_cfg.c **** 			{0x12u, 0x11u},
 325:Generated_Source\PSoC4/cyfitter_cfg.c **** 			{0x14u, 0x10u},
 326:Generated_Source\PSoC4/cyfitter_cfg.c **** 			{0x16u, 0x04u},
 327:Generated_Source\PSoC4/cyfitter_cfg.c **** 			{0x18u, 0x18u},
 328:Generated_Source\PSoC4/cyfitter_cfg.c **** 			{0x1Au, 0x03u},
 329:Generated_Source\PSoC4/cyfitter_cfg.c **** 			{0x24u, 0x07u},
 330:Generated_Source\PSoC4/cyfitter_cfg.c **** 			{0x26u, 0x08u},
 331:Generated_Source\PSoC4/cyfitter_cfg.c **** 			{0x28u, 0x01u},
 332:Generated_Source\PSoC4/cyfitter_cfg.c **** 			{0x2Au, 0x12u},
 333:Generated_Source\PSoC4/cyfitter_cfg.c **** 			{0x36u, 0x1Fu},
 334:Generated_Source\PSoC4/cyfitter_cfg.c **** 			{0x40u, 0x30u},
 335:Generated_Source\PSoC4/cyfitter_cfg.c **** 			{0x41u, 0x04u},
 336:Generated_Source\PSoC4/cyfitter_cfg.c **** 			{0x49u, 0xFFu},
 337:Generated_Source\PSoC4/cyfitter_cfg.c **** 			{0x4Au, 0xFFu},
 338:Generated_Source\PSoC4/cyfitter_cfg.c **** 			{0x4Bu, 0xFFu},
 339:Generated_Source\PSoC4/cyfitter_cfg.c **** 			{0x4Du, 0xA0u},
 340:Generated_Source\PSoC4/cyfitter_cfg.c **** 			{0x4Fu, 0x04u},
 341:Generated_Source\PSoC4/cyfitter_cfg.c **** 			{0x50u, 0x18u},
 342:Generated_Source\PSoC4/cyfitter_cfg.c **** 			{0x58u, 0x04u},
 343:Generated_Source\PSoC4/cyfitter_cfg.c **** 			{0x5Au, 0x04u},
 344:Generated_Source\PSoC4/cyfitter_cfg.c **** 			{0x5Bu, 0x04u},
 345:Generated_Source\PSoC4/cyfitter_cfg.c **** 			{0x5Fu, 0x01u},
 346:Generated_Source\PSoC4/cyfitter_cfg.c **** 			{0x60u, 0x40u},
 347:Generated_Source\PSoC4/cyfitter_cfg.c **** 			{0x62u, 0xC0u},
 348:Generated_Source\PSoC4/cyfitter_cfg.c **** 			{0x64u, 0x40u},
 349:Generated_Source\PSoC4/cyfitter_cfg.c **** 			{0x65u, 0x40u},
 350:Generated_Source\PSoC4/cyfitter_cfg.c **** 			{0x66u, 0xC0u},
 351:Generated_Source\PSoC4/cyfitter_cfg.c **** 			{0x68u, 0xC0u},
 352:Generated_Source\PSoC4/cyfitter_cfg.c **** 			{0x6Au, 0xC0u},
 353:Generated_Source\PSoC4/cyfitter_cfg.c **** 			{0x6Cu, 0xC0u},
 354:Generated_Source\PSoC4/cyfitter_cfg.c **** 			{0x6Eu, 0xC0u},
 355:Generated_Source\PSoC4/cyfitter_cfg.c **** 			{0x82u, 0x02u},
 356:Generated_Source\PSoC4/cyfitter_cfg.c **** 			{0x84u, 0x60u},
 357:Generated_Source\PSoC4/cyfitter_cfg.c **** 			{0x86u, 0x0Cu},
 358:Generated_Source\PSoC4/cyfitter_cfg.c **** 			{0x88u, 0x40u},
 359:Generated_Source\PSoC4/cyfitter_cfg.c **** 			{0x8Au, 0x10u},
 360:Generated_Source\PSoC4/cyfitter_cfg.c **** 			{0x90u, 0x18u},
 361:Generated_Source\PSoC4/cyfitter_cfg.c **** 			{0x92u, 0x44u},
 362:Generated_Source\PSoC4/cyfitter_cfg.c **** 			{0x96u, 0x7Eu},
 363:Generated_Source\PSoC4/cyfitter_cfg.c **** 			{0xA4u, 0x04u},
ARM GAS  C:\Users\JamesH\AppData\Local\Temp\ccsMpl52.s 			page 13


 364:Generated_Source\PSoC4/cyfitter_cfg.c **** 			{0xA6u, 0x48u},
 365:Generated_Source\PSoC4/cyfitter_cfg.c **** 			{0xA8u, 0x1Cu},
 366:Generated_Source\PSoC4/cyfitter_cfg.c **** 			{0xAAu, 0x20u},
 367:Generated_Source\PSoC4/cyfitter_cfg.c **** 			{0xAEu, 0x01u},
 368:Generated_Source\PSoC4/cyfitter_cfg.c **** 			{0xB0u, 0x7Cu},
 369:Generated_Source\PSoC4/cyfitter_cfg.c **** 			{0xB2u, 0x01u},
 370:Generated_Source\PSoC4/cyfitter_cfg.c **** 			{0xB4u, 0x02u},
 371:Generated_Source\PSoC4/cyfitter_cfg.c **** 			{0xBEu, 0x10u},
 372:Generated_Source\PSoC4/cyfitter_cfg.c **** 			{0xC0u, 0x30u},
 373:Generated_Source\PSoC4/cyfitter_cfg.c **** 			{0xC1u, 0x04u},
 374:Generated_Source\PSoC4/cyfitter_cfg.c **** 			{0xC5u, 0xD0u},
 375:Generated_Source\PSoC4/cyfitter_cfg.c **** 			{0xC6u, 0x12u},
 376:Generated_Source\PSoC4/cyfitter_cfg.c **** 			{0xC8u, 0x1Eu},
 377:Generated_Source\PSoC4/cyfitter_cfg.c **** 			{0xC9u, 0xFFu},
 378:Generated_Source\PSoC4/cyfitter_cfg.c **** 			{0xCAu, 0xFFu},
 379:Generated_Source\PSoC4/cyfitter_cfg.c **** 			{0xCBu, 0xFFu},
 380:Generated_Source\PSoC4/cyfitter_cfg.c **** 			{0xCDu, 0xAFu},
 381:Generated_Source\PSoC4/cyfitter_cfg.c **** 			{0xCEu, 0x0Fu},
 382:Generated_Source\PSoC4/cyfitter_cfg.c **** 			{0xCFu, 0x04u},
 383:Generated_Source\PSoC4/cyfitter_cfg.c **** 			{0xD0u, 0x18u},
 384:Generated_Source\PSoC4/cyfitter_cfg.c **** 			{0xD2u, 0x87u},
 385:Generated_Source\PSoC4/cyfitter_cfg.c **** 			{0xD4u, 0x05u},
 386:Generated_Source\PSoC4/cyfitter_cfg.c **** 			{0xD8u, 0x04u},
 387:Generated_Source\PSoC4/cyfitter_cfg.c **** 			{0xDAu, 0x04u},
 388:Generated_Source\PSoC4/cyfitter_cfg.c **** 			{0xDBu, 0x04u},
 389:Generated_Source\PSoC4/cyfitter_cfg.c **** 			{0xDFu, 0x01u},
 390:Generated_Source\PSoC4/cyfitter_cfg.c **** 			{0xE0u, 0x40u},
 391:Generated_Source\PSoC4/cyfitter_cfg.c **** 			{0xE2u, 0xC0u},
 392:Generated_Source\PSoC4/cyfitter_cfg.c **** 			{0xE4u, 0x40u},
 393:Generated_Source\PSoC4/cyfitter_cfg.c **** 			{0xE5u, 0x40u},
 394:Generated_Source\PSoC4/cyfitter_cfg.c **** 			{0xE6u, 0xC0u},
 395:Generated_Source\PSoC4/cyfitter_cfg.c **** 			{0xE8u, 0xC0u},
 396:Generated_Source\PSoC4/cyfitter_cfg.c **** 			{0xEAu, 0xC0u},
 397:Generated_Source\PSoC4/cyfitter_cfg.c **** 			{0xECu, 0xC0u},
 398:Generated_Source\PSoC4/cyfitter_cfg.c **** 			{0xEEu, 0xC0u},
 399:Generated_Source\PSoC4/cyfitter_cfg.c **** 			{0x00u, 0x04u},
 400:Generated_Source\PSoC4/cyfitter_cfg.c **** 			{0x06u, 0xA8u},
 401:Generated_Source\PSoC4/cyfitter_cfg.c **** 			{0x09u, 0x14u},
 402:Generated_Source\PSoC4/cyfitter_cfg.c **** 			{0x0Au, 0x40u},
 403:Generated_Source\PSoC4/cyfitter_cfg.c **** 			{0x0Du, 0x08u},
 404:Generated_Source\PSoC4/cyfitter_cfg.c **** 			{0x0Eu, 0x40u},
 405:Generated_Source\PSoC4/cyfitter_cfg.c **** 			{0x10u, 0x28u},
 406:Generated_Source\PSoC4/cyfitter_cfg.c **** 			{0x17u, 0x94u},
 407:Generated_Source\PSoC4/cyfitter_cfg.c **** 			{0x19u, 0x80u},
 408:Generated_Source\PSoC4/cyfitter_cfg.c **** 			{0x1Cu, 0x10u},
 409:Generated_Source\PSoC4/cyfitter_cfg.c **** 			{0x1Du, 0x08u},
 410:Generated_Source\PSoC4/cyfitter_cfg.c **** 			{0x1Eu, 0x08u},
 411:Generated_Source\PSoC4/cyfitter_cfg.c **** 			{0x1Fu, 0x01u},
 412:Generated_Source\PSoC4/cyfitter_cfg.c **** 			{0x40u, 0x10u},
 413:Generated_Source\PSoC4/cyfitter_cfg.c **** 			{0x42u, 0x80u},
 414:Generated_Source\PSoC4/cyfitter_cfg.c **** 			{0x45u, 0x08u},
 415:Generated_Source\PSoC4/cyfitter_cfg.c **** 			{0x46u, 0x80u},
 416:Generated_Source\PSoC4/cyfitter_cfg.c **** 			{0x4Du, 0x01u},
 417:Generated_Source\PSoC4/cyfitter_cfg.c **** 			{0x55u, 0x14u},
 418:Generated_Source\PSoC4/cyfitter_cfg.c **** 			{0x56u, 0xA8u},
 419:Generated_Source\PSoC4/cyfitter_cfg.c **** 			{0x5Du, 0x81u},
 420:Generated_Source\PSoC4/cyfitter_cfg.c **** 			{0x5Eu, 0x08u},
ARM GAS  C:\Users\JamesH\AppData\Local\Temp\ccsMpl52.s 			page 14


 421:Generated_Source\PSoC4/cyfitter_cfg.c **** 			{0x68u, 0x05u},
 422:Generated_Source\PSoC4/cyfitter_cfg.c **** 			{0x6Cu, 0x28u},
 423:Generated_Source\PSoC4/cyfitter_cfg.c **** 			{0x6Eu, 0x40u},
 424:Generated_Source\PSoC4/cyfitter_cfg.c **** 			{0x6Fu, 0x14u},
 425:Generated_Source\PSoC4/cyfitter_cfg.c **** 			{0x77u, 0x80u},
 426:Generated_Source\PSoC4/cyfitter_cfg.c **** 			{0x88u, 0x05u},
 427:Generated_Source\PSoC4/cyfitter_cfg.c **** 			{0xC0u, 0x74u},
 428:Generated_Source\PSoC4/cyfitter_cfg.c **** 			{0xC2u, 0x3Eu},
 429:Generated_Source\PSoC4/cyfitter_cfg.c **** 			{0xC4u, 0xE6u},
 430:Generated_Source\PSoC4/cyfitter_cfg.c **** 			{0xD0u, 0xC3u},
 431:Generated_Source\PSoC4/cyfitter_cfg.c **** 			{0xD6u, 0xD0u},
 432:Generated_Source\PSoC4/cyfitter_cfg.c **** 			{0x80u, 0x20u},
 433:Generated_Source\PSoC4/cyfitter_cfg.c **** 			{0x82u, 0x40u},
 434:Generated_Source\PSoC4/cyfitter_cfg.c **** 			{0x85u, 0x10u},
 435:Generated_Source\PSoC4/cyfitter_cfg.c **** 			{0x87u, 0x20u},
 436:Generated_Source\PSoC4/cyfitter_cfg.c **** 			{0x88u, 0x20u},
 437:Generated_Source\PSoC4/cyfitter_cfg.c **** 			{0x8Au, 0x40u},
 438:Generated_Source\PSoC4/cyfitter_cfg.c **** 			{0x8Bu, 0x15u},
 439:Generated_Source\PSoC4/cyfitter_cfg.c **** 			{0x8Cu, 0x60u},
 440:Generated_Source\PSoC4/cyfitter_cfg.c **** 			{0x8Du, 0x0Fu},
 441:Generated_Source\PSoC4/cyfitter_cfg.c **** 			{0x8Fu, 0x30u},
 442:Generated_Source\PSoC4/cyfitter_cfg.c **** 			{0x90u, 0x06u},
 443:Generated_Source\PSoC4/cyfitter_cfg.c **** 			{0x92u, 0x11u},
 444:Generated_Source\PSoC4/cyfitter_cfg.c **** 			{0x94u, 0x10u},
 445:Generated_Source\PSoC4/cyfitter_cfg.c **** 			{0x95u, 0x10u},
 446:Generated_Source\PSoC4/cyfitter_cfg.c **** 			{0x96u, 0x04u},
 447:Generated_Source\PSoC4/cyfitter_cfg.c **** 			{0x97u, 0x20u},
 448:Generated_Source\PSoC4/cyfitter_cfg.c **** 			{0x98u, 0x18u},
 449:Generated_Source\PSoC4/cyfitter_cfg.c **** 			{0x99u, 0x01u},
 450:Generated_Source\PSoC4/cyfitter_cfg.c **** 			{0x9Au, 0x03u},
 451:Generated_Source\PSoC4/cyfitter_cfg.c **** 			{0x9Bu, 0x02u},
 452:Generated_Source\PSoC4/cyfitter_cfg.c **** 			{0x9Du, 0x04u},
 453:Generated_Source\PSoC4/cyfitter_cfg.c **** 			{0x9Eu, 0x20u},
 454:Generated_Source\PSoC4/cyfitter_cfg.c **** 			{0x9Fu, 0x08u},
 455:Generated_Source\PSoC4/cyfitter_cfg.c **** 			{0xA1u, 0x05u},
 456:Generated_Source\PSoC4/cyfitter_cfg.c **** 			{0xA2u, 0xE0u},
 457:Generated_Source\PSoC4/cyfitter_cfg.c **** 			{0xA3u, 0x0Au},
 458:Generated_Source\PSoC4/cyfitter_cfg.c **** 			{0xA4u, 0x07u},
 459:Generated_Source\PSoC4/cyfitter_cfg.c **** 			{0xA6u, 0x08u},
 460:Generated_Source\PSoC4/cyfitter_cfg.c **** 			{0xA8u, 0x01u},
 461:Generated_Source\PSoC4/cyfitter_cfg.c **** 			{0xAAu, 0x12u},
 462:Generated_Source\PSoC4/cyfitter_cfg.c **** 			{0xADu, 0x03u},
 463:Generated_Source\PSoC4/cyfitter_cfg.c **** 			{0xAFu, 0x3Cu},
 464:Generated_Source\PSoC4/cyfitter_cfg.c **** 			{0xB0u, 0x80u},
 465:Generated_Source\PSoC4/cyfitter_cfg.c **** 			{0xB2u, 0x60u},
 466:Generated_Source\PSoC4/cyfitter_cfg.c **** 			{0xB3u, 0x30u},
 467:Generated_Source\PSoC4/cyfitter_cfg.c **** 			{0xB4u, 0x1Fu},
 468:Generated_Source\PSoC4/cyfitter_cfg.c **** 			{0xB5u, 0x03u},
 469:Generated_Source\PSoC4/cyfitter_cfg.c **** 			{0xB7u, 0x0Cu},
 470:Generated_Source\PSoC4/cyfitter_cfg.c **** 			{0xBAu, 0xCAu},
 471:Generated_Source\PSoC4/cyfitter_cfg.c **** 			{0xBBu, 0xA8u},
 472:Generated_Source\PSoC4/cyfitter_cfg.c **** 			{0xC0u, 0x45u},
 473:Generated_Source\PSoC4/cyfitter_cfg.c **** 			{0xC5u, 0x30u},
 474:Generated_Source\PSoC4/cyfitter_cfg.c **** 			{0xC6u, 0x40u},
 475:Generated_Source\PSoC4/cyfitter_cfg.c **** 			{0xC7u, 0x07u},
 476:Generated_Source\PSoC4/cyfitter_cfg.c **** 			{0xC8u, 0x1Eu},
 477:Generated_Source\PSoC4/cyfitter_cfg.c **** 			{0xC9u, 0xFFu},
ARM GAS  C:\Users\JamesH\AppData\Local\Temp\ccsMpl52.s 			page 15


 478:Generated_Source\PSoC4/cyfitter_cfg.c **** 			{0xCAu, 0xFFu},
 479:Generated_Source\PSoC4/cyfitter_cfg.c **** 			{0xCBu, 0xFFu},
 480:Generated_Source\PSoC4/cyfitter_cfg.c **** 			{0xCDu, 0x60u},
 481:Generated_Source\PSoC4/cyfitter_cfg.c **** 			{0xD8u, 0x04u},
 482:Generated_Source\PSoC4/cyfitter_cfg.c **** 			{0xD9u, 0x04u},
 483:Generated_Source\PSoC4/cyfitter_cfg.c **** 			{0xDAu, 0x04u},
 484:Generated_Source\PSoC4/cyfitter_cfg.c **** 			{0xDBu, 0x04u},
 485:Generated_Source\PSoC4/cyfitter_cfg.c **** 			{0xDFu, 0x01u},
 486:Generated_Source\PSoC4/cyfitter_cfg.c **** 			{0xE0u, 0x70u},
 487:Generated_Source\PSoC4/cyfitter_cfg.c **** 			{0xE1u, 0x20u},
 488:Generated_Source\PSoC4/cyfitter_cfg.c **** 			{0xE2u, 0x51u},
 489:Generated_Source\PSoC4/cyfitter_cfg.c **** 			{0xE3u, 0xC8u},
 490:Generated_Source\PSoC4/cyfitter_cfg.c **** 			{0xE4u, 0xD1u},
 491:Generated_Source\PSoC4/cyfitter_cfg.c **** 			{0xE5u, 0xDCu},
 492:Generated_Source\PSoC4/cyfitter_cfg.c **** 			{0xE6u, 0x51u},
 493:Generated_Source\PSoC4/cyfitter_cfg.c **** 			{0xE7u, 0xDCu},
 494:Generated_Source\PSoC4/cyfitter_cfg.c **** 			{0x00u, 0x40u},
 495:Generated_Source\PSoC4/cyfitter_cfg.c **** 			{0x01u, 0x02u},
 496:Generated_Source\PSoC4/cyfitter_cfg.c **** 			{0x03u, 0x08u},
 497:Generated_Source\PSoC4/cyfitter_cfg.c **** 			{0x09u, 0x94u},
 498:Generated_Source\PSoC4/cyfitter_cfg.c **** 			{0x0Au, 0x40u},
 499:Generated_Source\PSoC4/cyfitter_cfg.c **** 			{0x10u, 0x28u},
 500:Generated_Source\PSoC4/cyfitter_cfg.c **** 			{0x12u, 0x40u},
 501:Generated_Source\PSoC4/cyfitter_cfg.c **** 			{0x18u, 0x44u},
 502:Generated_Source\PSoC4/cyfitter_cfg.c **** 			{0x19u, 0x40u},
 503:Generated_Source\PSoC4/cyfitter_cfg.c **** 			{0x1Bu, 0x08u},
 504:Generated_Source\PSoC4/cyfitter_cfg.c **** 			{0x21u, 0x28u},
 505:Generated_Source\PSoC4/cyfitter_cfg.c **** 			{0x22u, 0x40u},
 506:Generated_Source\PSoC4/cyfitter_cfg.c **** 			{0x29u, 0x42u},
 507:Generated_Source\PSoC4/cyfitter_cfg.c **** 			{0x2Au, 0x40u},
 508:Generated_Source\PSoC4/cyfitter_cfg.c **** 			{0x31u, 0x28u},
 509:Generated_Source\PSoC4/cyfitter_cfg.c **** 			{0x32u, 0x40u},
 510:Generated_Source\PSoC4/cyfitter_cfg.c **** 			{0x38u, 0x68u},
 511:Generated_Source\PSoC4/cyfitter_cfg.c **** 			{0x40u, 0x40u},
 512:Generated_Source\PSoC4/cyfitter_cfg.c **** 			{0x49u, 0x42u},
 513:Generated_Source\PSoC4/cyfitter_cfg.c **** 			{0x50u, 0x14u},
 514:Generated_Source\PSoC4/cyfitter_cfg.c **** 			{0x51u, 0x80u},
 515:Generated_Source\PSoC4/cyfitter_cfg.c **** 			{0x69u, 0x11u},
 516:Generated_Source\PSoC4/cyfitter_cfg.c **** 			{0x6Bu, 0x12u},
 517:Generated_Source\PSoC4/cyfitter_cfg.c **** 			{0x82u, 0x40u},
 518:Generated_Source\PSoC4/cyfitter_cfg.c **** 			{0x87u, 0x02u},
 519:Generated_Source\PSoC4/cyfitter_cfg.c **** 			{0x89u, 0x19u},
 520:Generated_Source\PSoC4/cyfitter_cfg.c **** 			{0x8Fu, 0x18u},
 521:Generated_Source\PSoC4/cyfitter_cfg.c **** 			{0x92u, 0x40u},
 522:Generated_Source\PSoC4/cyfitter_cfg.c **** 			{0x94u, 0x04u},
 523:Generated_Source\PSoC4/cyfitter_cfg.c **** 			{0xA0u, 0x28u},
 524:Generated_Source\PSoC4/cyfitter_cfg.c **** 			{0xA1u, 0x14u},
 525:Generated_Source\PSoC4/cyfitter_cfg.c **** 			{0xA5u, 0x20u},
 526:Generated_Source\PSoC4/cyfitter_cfg.c **** 			{0xB1u, 0x20u},
 527:Generated_Source\PSoC4/cyfitter_cfg.c **** 			{0xB7u, 0x01u},
 528:Generated_Source\PSoC4/cyfitter_cfg.c **** 			{0xC0u, 0x0Bu},
 529:Generated_Source\PSoC4/cyfitter_cfg.c **** 			{0xC2u, 0x0Fu},
 530:Generated_Source\PSoC4/cyfitter_cfg.c **** 			{0xC4u, 0x0Eu},
 531:Generated_Source\PSoC4/cyfitter_cfg.c **** 			{0xCAu, 0x09u},
 532:Generated_Source\PSoC4/cyfitter_cfg.c **** 			{0xCCu, 0x0Eu},
 533:Generated_Source\PSoC4/cyfitter_cfg.c **** 			{0xCEu, 0x0Eu},
 534:Generated_Source\PSoC4/cyfitter_cfg.c **** 			{0xD0u, 0x01u},
ARM GAS  C:\Users\JamesH\AppData\Local\Temp\ccsMpl52.s 			page 16


 535:Generated_Source\PSoC4/cyfitter_cfg.c **** 			{0xD2u, 0x08u},
 536:Generated_Source\PSoC4/cyfitter_cfg.c **** 			{0xE4u, 0x03u},
 537:Generated_Source\PSoC4/cyfitter_cfg.c **** 			{0xEAu, 0x40u},
 538:Generated_Source\PSoC4/cyfitter_cfg.c **** 			{0x57u, 0x80u},
 539:Generated_Source\PSoC4/cyfitter_cfg.c **** 			{0xD4u, 0x40u},
 540:Generated_Source\PSoC4/cyfitter_cfg.c **** 			{0xB7u, 0x80u},
 541:Generated_Source\PSoC4/cyfitter_cfg.c **** 			{0x55u, 0x01u},
 542:Generated_Source\PSoC4/cyfitter_cfg.c **** 			{0x56u, 0x20u},
 543:Generated_Source\PSoC4/cyfitter_cfg.c **** 			{0x58u, 0x40u},
 544:Generated_Source\PSoC4/cyfitter_cfg.c **** 			{0x61u, 0x80u},
 545:Generated_Source\PSoC4/cyfitter_cfg.c **** 			{0x64u, 0x10u},
 546:Generated_Source\PSoC4/cyfitter_cfg.c **** 			{0x66u, 0x80u},
 547:Generated_Source\PSoC4/cyfitter_cfg.c **** 			{0x88u, 0x50u},
 548:Generated_Source\PSoC4/cyfitter_cfg.c **** 			{0xD4u, 0x03u},
 549:Generated_Source\PSoC4/cyfitter_cfg.c **** 			{0xD6u, 0x07u},
 550:Generated_Source\PSoC4/cyfitter_cfg.c **** 			{0xD8u, 0x01u},
 551:Generated_Source\PSoC4/cyfitter_cfg.c **** 			{0xE0u, 0x05u},
 552:Generated_Source\PSoC4/cyfitter_cfg.c **** 			{0x52u, 0x20u},
 553:Generated_Source\PSoC4/cyfitter_cfg.c **** 			{0x59u, 0x40u},
 554:Generated_Source\PSoC4/cyfitter_cfg.c **** 			{0x5Eu, 0x01u},
 555:Generated_Source\PSoC4/cyfitter_cfg.c **** 			{0x66u, 0x01u},
 556:Generated_Source\PSoC4/cyfitter_cfg.c **** 			{0x81u, 0x80u},
 557:Generated_Source\PSoC4/cyfitter_cfg.c **** 			{0x86u, 0x20u},
 558:Generated_Source\PSoC4/cyfitter_cfg.c **** 			{0x89u, 0x40u},
 559:Generated_Source\PSoC4/cyfitter_cfg.c **** 			{0x8Au, 0x81u},
 560:Generated_Source\PSoC4/cyfitter_cfg.c **** 			{0x8Du, 0x01u},
 561:Generated_Source\PSoC4/cyfitter_cfg.c **** 			{0x8Eu, 0x01u},
 562:Generated_Source\PSoC4/cyfitter_cfg.c **** 			{0x9Eu, 0x80u},
 563:Generated_Source\PSoC4/cyfitter_cfg.c **** 			{0xA5u, 0x81u},
 564:Generated_Source\PSoC4/cyfitter_cfg.c **** 			{0xB2u, 0x20u},
 565:Generated_Source\PSoC4/cyfitter_cfg.c **** 			{0xD4u, 0x05u},
 566:Generated_Source\PSoC4/cyfitter_cfg.c **** 			{0xD6u, 0x01u},
 567:Generated_Source\PSoC4/cyfitter_cfg.c **** 			{0xD8u, 0x01u},
 568:Generated_Source\PSoC4/cyfitter_cfg.c **** 			{0xE0u, 0x09u},
 569:Generated_Source\PSoC4/cyfitter_cfg.c **** 			{0xE4u, 0x07u},
 570:Generated_Source\PSoC4/cyfitter_cfg.c **** 			{0xECu, 0x01u},
 571:Generated_Source\PSoC4/cyfitter_cfg.c **** 			{0x01u, 0x01u},
 572:Generated_Source\PSoC4/cyfitter_cfg.c **** 			{0x10u, 0x01u},
 573:Generated_Source\PSoC4/cyfitter_cfg.c **** 		};
 574:Generated_Source\PSoC4/cyfitter_cfg.c **** 
 575:Generated_Source\PSoC4/cyfitter_cfg.c **** 
 576:Generated_Source\PSoC4/cyfitter_cfg.c **** 
 577:Generated_Source\PSoC4/cyfitter_cfg.c **** 		CYPACKED typedef struct {
 578:Generated_Source\PSoC4/cyfitter_cfg.c **** 			void CYFAR *address;
 579:Generated_Source\PSoC4/cyfitter_cfg.c **** 			uint16 size;
 580:Generated_Source\PSoC4/cyfitter_cfg.c **** 		} CYPACKED_ATTR cfg_memset_t;
 581:Generated_Source\PSoC4/cyfitter_cfg.c **** 
 582:Generated_Source\PSoC4/cyfitter_cfg.c **** 		static const cfg_memset_t CYCODE cfg_memset_list[] = {
 583:Generated_Source\PSoC4/cyfitter_cfg.c **** 			/* address, size */
 584:Generated_Source\PSoC4/cyfitter_cfg.c **** 			{(void CYFAR *)(CYDEV_UDB_P0_U0_BASE), 1024u},
 585:Generated_Source\PSoC4/cyfitter_cfg.c **** 			{(void CYFAR *)(CYDEV_UDB_DSI0_BASE), 1024u},
 586:Generated_Source\PSoC4/cyfitter_cfg.c **** 		};
 587:Generated_Source\PSoC4/cyfitter_cfg.c **** 
 588:Generated_Source\PSoC4/cyfitter_cfg.c **** 		uint8 CYDATA i;
 589:Generated_Source\PSoC4/cyfitter_cfg.c **** 
 590:Generated_Source\PSoC4/cyfitter_cfg.c **** 		/* Zero out critical memory blocks before beginning configuration */
 591:Generated_Source\PSoC4/cyfitter_cfg.c **** 		for (i = 0u; i < (sizeof(cfg_memset_list)/sizeof(cfg_memset_list[0])); i++)
ARM GAS  C:\Users\JamesH\AppData\Local\Temp\ccsMpl52.s 			page 17


 297              		.loc 1 591 0
 298 00bc 0024     		movs	r4, #0
 299 00be 0FE0     		b	.L14
 300              	.LVL19:
 301              	.L15:
 302              	.LBB4:
 592:Generated_Source\PSoC4/cyfitter_cfg.c **** 		{
 593:Generated_Source\PSoC4/cyfitter_cfg.c **** 			const cfg_memset_t CYCODE * CYDATA ms = &cfg_memset_list[i];
 594:Generated_Source\PSoC4/cyfitter_cfg.c **** 			CYMEMZERO(ms->address, (size_t)(uint32)(ms->size));
 303              		.loc 1 594 0 discriminator 3
 304 00c0 3948     		ldr	r0, .L16
 305 00c2 6200     		lsls	r2, r4, #1
 306 00c4 1319     		adds	r3, r2, r4
 307 00c6 5900     		lsls	r1, r3, #1
 308 00c8 0B00     		movs	r3, r1
 309 00ca 4118     		adds	r1, r0, r1
 310 00cc 8988     		ldrh	r1, [r1, #4]
 311 00ce 1A5A     		ldrh	r2, [r3, r0]
 312 00d0 C318     		adds	r3, r0, r3
 313 00d2 5888     		ldrh	r0, [r3, #2]
 314 00d4 0004     		lsls	r0, r0, #16
 315 00d6 1043     		orrs	r0, r2
 316 00d8 FFF7FEFF 		bl	CYMEMZERO
 317              	.LVL20:
 318              	.LBE4:
 591:Generated_Source\PSoC4/cyfitter_cfg.c **** 		{
 319              		.loc 1 591 0 discriminator 3
 320 00dc 0134     		adds	r4, r4, #1
 321              	.LVL21:
 322 00de E4B2     		uxtb	r4, r4
 323              	.LVL22:
 324              	.L14:
 591:Generated_Source\PSoC4/cyfitter_cfg.c **** 		{
 325              		.loc 1 591 0 is_stmt 0 discriminator 1
 326 00e0 012C     		cmp	r4, #1
 327 00e2 EDD9     		bls	.L15
 595:Generated_Source\PSoC4/cyfitter_cfg.c **** 		}
 596:Generated_Source\PSoC4/cyfitter_cfg.c **** 
 597:Generated_Source\PSoC4/cyfitter_cfg.c **** 		cfg_write_bytes32(cy_cfg_addr_table, cy_cfg_data_table);
 328              		.loc 1 597 0 is_stmt 1
 329 00e4 3049     		ldr	r1, .L16
 330 00e6 0C31     		adds	r1, r1, #12
 331 00e8 3048     		ldr	r0, .L16+4
 332 00ea 0C30     		adds	r0, r0, #12
 333 00ec FFF7FEFF 		bl	cfg_write_bytes32
 334              	.LVL23:
 598:Generated_Source\PSoC4/cyfitter_cfg.c **** 
 599:Generated_Source\PSoC4/cyfitter_cfg.c **** 		/* HSIOM Starting address: CYDEV_HSIOM_BASE */
 600:Generated_Source\PSoC4/cyfitter_cfg.c **** 		CY_SET_REG32((void *)(CYDEV_HSIOM_BASE), 0x00000003u);
 335              		.loc 1 600 0
 336 00f0 0321     		movs	r1, #3
 337 00f2 2F4B     		ldr	r3, .L16+8
 338 00f4 1960     		str	r1, [r3]
 601:Generated_Source\PSoC4/cyfitter_cfg.c **** 		CY_SET_REG32((void *)(CYREG_HSIOM_PORT_SEL1), 0x000000EEu);
 339              		.loc 1 601 0
 340 00f6 EE22     		movs	r2, #238
 341 00f8 2E4B     		ldr	r3, .L16+12
ARM GAS  C:\Users\JamesH\AppData\Local\Temp\ccsMpl52.s 			page 18


 342 00fa 1A60     		str	r2, [r3]
 602:Generated_Source\PSoC4/cyfitter_cfg.c **** 		CY_SET_REG32((void *)(CYREG_HSIOM_PORT_SEL2), 0x33033330u);
 343              		.loc 1 602 0
 344 00fc 2E4A     		ldr	r2, .L16+16
 345 00fe 2F4B     		ldr	r3, .L16+20
 346 0100 1A60     		str	r2, [r3]
 603:Generated_Source\PSoC4/cyfitter_cfg.c **** 		CY_SET_REG32((void *)(CYREG_HSIOM_PORT_SEL3), 0x0033EE33u);
 347              		.loc 1 603 0
 348 0102 2F4A     		ldr	r2, .L16+24
 349 0104 2F4B     		ldr	r3, .L16+28
 350 0106 1A60     		str	r2, [r3]
 604:Generated_Source\PSoC4/cyfitter_cfg.c **** 		CY_SET_REG32((void *)(CYREG_HSIOM_PORT_SEL5), 0x00000099u);
 351              		.loc 1 604 0
 352 0108 9922     		movs	r2, #153
 353 010a 2F4B     		ldr	r3, .L16+32
 354 010c 1A60     		str	r2, [r3]
 605:Generated_Source\PSoC4/cyfitter_cfg.c **** 
 606:Generated_Source\PSoC4/cyfitter_cfg.c **** 		/* UDB_PA_0 Starting address: CYDEV_UDB_PA0_BASE */
 607:Generated_Source\PSoC4/cyfitter_cfg.c **** 		CY_SET_REG32((void *)(CYDEV_UDB_PA0_BASE), 0x00990000u);
 355              		.loc 1 607 0
 356 010e 9923     		movs	r3, #153
 357 0110 1B04     		lsls	r3, r3, #16
 358 0112 2E4A     		ldr	r2, .L16+36
 359 0114 1360     		str	r3, [r2]
 608:Generated_Source\PSoC4/cyfitter_cfg.c **** 		CY_SET_REG32((void *)(CYREG_UDB_PA0_CFG8), 0x00010000u);
 360              		.loc 1 608 0
 361 0116 8020     		movs	r0, #128
 362 0118 4002     		lsls	r0, r0, #9
 363 011a 2D4A     		ldr	r2, .L16+40
 364 011c 1060     		str	r0, [r2]
 609:Generated_Source\PSoC4/cyfitter_cfg.c **** 
 610:Generated_Source\PSoC4/cyfitter_cfg.c **** 		/* UDB_PA_1 Starting address: CYDEV_UDB_PA1_BASE */
 611:Generated_Source\PSoC4/cyfitter_cfg.c **** 		CY_SET_REG32((void *)(CYDEV_UDB_PA1_BASE), 0x00990000u);
 365              		.loc 1 611 0
 366 011e 2D4A     		ldr	r2, .L16+44
 367 0120 1360     		str	r3, [r2]
 612:Generated_Source\PSoC4/cyfitter_cfg.c **** 
 613:Generated_Source\PSoC4/cyfitter_cfg.c **** 		/* UDB_PA_2 Starting address: CYDEV_UDB_PA2_BASE */
 614:Generated_Source\PSoC4/cyfitter_cfg.c **** 		CY_SET_REG32((void *)(CYDEV_UDB_PA2_BASE), 0x00990000u);
 368              		.loc 1 614 0
 369 0122 2D4A     		ldr	r2, .L16+48
 370 0124 1360     		str	r3, [r2]
 615:Generated_Source\PSoC4/cyfitter_cfg.c **** 		CY_SET_REG32((void *)(CYREG_UDB_PA2_CFG8), 0x1B9C0000u);
 371              		.loc 1 615 0
 372 0126 2D48     		ldr	r0, .L16+52
 373 0128 2D4A     		ldr	r2, .L16+56
 374 012a 1060     		str	r0, [r2]
 616:Generated_Source\PSoC4/cyfitter_cfg.c **** 
 617:Generated_Source\PSoC4/cyfitter_cfg.c **** 		/* UDB_PA_3 Starting address: CYDEV_UDB_PA3_BASE */
 618:Generated_Source\PSoC4/cyfitter_cfg.c **** 		CY_SET_REG32((void *)(CYDEV_UDB_PA3_BASE), 0x00990000u);
 375              		.loc 1 618 0
 376 012c 2D4A     		ldr	r2, .L16+60
 377 012e 1360     		str	r3, [r2]
 619:Generated_Source\PSoC4/cyfitter_cfg.c **** 		CY_SET_REG32((void *)(CYREG_UDB_PA3_CFG8), 0x07580000u);
 378              		.loc 1 619 0
 379 0130 EB22     		movs	r2, #235
 380 0132 D204     		lsls	r2, r2, #19
ARM GAS  C:\Users\JamesH\AppData\Local\Temp\ccsMpl52.s 			page 19


 381 0134 2C4B     		ldr	r3, .L16+64
 382 0136 1A60     		str	r2, [r3]
 620:Generated_Source\PSoC4/cyfitter_cfg.c **** 
 621:Generated_Source\PSoC4/cyfitter_cfg.c **** 		/* Enable UDB array and digital routing */
 622:Generated_Source\PSoC4/cyfitter_cfg.c **** 		CY_SET_XTND_REG8((void *)CYREG_UDB_UDBIF_WAIT_CFG, (uint8)((CY_GET_XTND_REG8((void *)CYREG_UDB_UD
 383              		.loc 1 622 0
 384 0138 2C48     		ldr	r0, .L16+68
 385 013a 0378     		ldrb	r3, [r0]
 386 013c 3C22     		movs	r2, #60
 387 013e 9343     		bics	r3, r2
 388 0140 1422     		movs	r2, #20
 389 0142 1343     		orrs	r3, r2
 390 0144 DBB2     		uxtb	r3, r3
 391 0146 0370     		strb	r3, [r0]
 623:Generated_Source\PSoC4/cyfitter_cfg.c **** 		CY_SET_XTND_REG8((void *)CYREG_UDB_UDBIF_BANK_CTL, (uint8)(CY_GET_XTND_REG8((void *)CYREG_UDB_UDB
 392              		.loc 1 623 0
 393 0148 294A     		ldr	r2, .L16+72
 394 014a 1078     		ldrb	r0, [r2]
 395 014c 1623     		movs	r3, #22
 396 014e 0343     		orrs	r3, r0
 397 0150 DBB2     		uxtb	r3, r3
 398 0152 1370     		strb	r3, [r2]
 399              	.LBE3:
 624:Generated_Source\PSoC4/cyfitter_cfg.c **** 	}
 625:Generated_Source\PSoC4/cyfitter_cfg.c **** 
 626:Generated_Source\PSoC4/cyfitter_cfg.c **** 	/* Perform second pass device configuration. These items must be configured in specific order afte
 627:Generated_Source\PSoC4/cyfitter_cfg.c **** 	/* IOPINS0_0 Starting address: CYDEV_GPIO_PRT0_BASE */
 628:Generated_Source\PSoC4/cyfitter_cfg.c **** 	CY_SET_REG32((void *)(CYDEV_GPIO_PRT0_BASE), 0x00000001u);
 400              		.loc 1 628 0
 401 0154 0122     		movs	r2, #1
 402 0156 274B     		ldr	r3, .L16+76
 403 0158 1A60     		str	r2, [r3]
 629:Generated_Source\PSoC4/cyfitter_cfg.c **** 	CY_SET_REG32((void *)(CYREG_GPIO_PRT0_PC), 0x00000006u);
 404              		.loc 1 629 0
 405 015a 0532     		adds	r2, r2, #5
 406 015c 264B     		ldr	r3, .L16+80
 407 015e 1A60     		str	r2, [r3]
 630:Generated_Source\PSoC4/cyfitter_cfg.c **** 
 631:Generated_Source\PSoC4/cyfitter_cfg.c **** 	/* IOPINS0_1 Starting address: CYDEV_GPIO_PRT1_BASE */
 632:Generated_Source\PSoC4/cyfitter_cfg.c **** 	CY_SET_REG32((void *)(CYDEV_GPIO_PRT1_BASE), 0x00000003u);
 408              		.loc 1 632 0
 409 0160 264B     		ldr	r3, .L16+84
 410 0162 1960     		str	r1, [r3]
 633:Generated_Source\PSoC4/cyfitter_cfg.c **** 	CY_SET_REG32((void *)(CYREG_GPIO_PRT1_PC), 0x00000024u);
 411              		.loc 1 633 0
 412 0164 1E32     		adds	r2, r2, #30
 413 0166 264B     		ldr	r3, .L16+88
 414 0168 1A60     		str	r2, [r3]
 634:Generated_Source\PSoC4/cyfitter_cfg.c **** 
 635:Generated_Source\PSoC4/cyfitter_cfg.c **** 	/* IOPINS0_2 Starting address: CYDEV_GPIO_PRT2_BASE */
 636:Generated_Source\PSoC4/cyfitter_cfg.c **** 	CY_SET_REG32((void *)(CYDEV_GPIO_PRT2_BASE), 0x000000DEu);
 415              		.loc 1 636 0
 416 016a BA32     		adds	r2, r2, #186
 417 016c 254B     		ldr	r3, .L16+92
 418 016e 1A60     		str	r2, [r3]
 637:Generated_Source\PSoC4/cyfitter_cfg.c **** 	CY_SET_REG32((void *)(CYREG_GPIO_PRT2_PC), 0x00D86DB0u);
 419              		.loc 1 637 0
ARM GAS  C:\Users\JamesH\AppData\Local\Temp\ccsMpl52.s 			page 20


 420 0170 254A     		ldr	r2, .L16+96
 421 0172 264B     		ldr	r3, .L16+100
 422 0174 1A60     		str	r2, [r3]
 638:Generated_Source\PSoC4/cyfitter_cfg.c **** 
 639:Generated_Source\PSoC4/cyfitter_cfg.c **** 	/* IOPINS0_3 Starting address: CYDEV_GPIO_PRT3_BASE */
 640:Generated_Source\PSoC4/cyfitter_cfg.c **** 	CY_SET_REG32((void *)(CYDEV_GPIO_PRT3_BASE), 0x00000033u);
 423              		.loc 1 640 0
 424 0176 3322     		movs	r2, #51
 425 0178 254B     		ldr	r3, .L16+104
 426 017a 1A60     		str	r2, [r3]
 641:Generated_Source\PSoC4/cyfitter_cfg.c **** 	CY_SET_REG32((void *)(CYREG_GPIO_PRT3_PC), 0x00036DB6u);
 427              		.loc 1 641 0
 428 017c 254A     		ldr	r2, .L16+108
 429 017e 264B     		ldr	r3, .L16+112
 430 0180 1A60     		str	r2, [r3]
 642:Generated_Source\PSoC4/cyfitter_cfg.c **** 
 643:Generated_Source\PSoC4/cyfitter_cfg.c **** 	/* IOPINS0_5 Starting address: CYDEV_GPIO_PRT5_BASE */
 644:Generated_Source\PSoC4/cyfitter_cfg.c **** 	CY_SET_REG32((void *)(CYDEV_GPIO_PRT5_BASE), 0x00000002u);
 431              		.loc 1 644 0
 432 0182 0223     		movs	r3, #2
 433 0184 254A     		ldr	r2, .L16+116
 434 0186 1360     		str	r3, [r2]
 645:Generated_Source\PSoC4/cyfitter_cfg.c **** 	CY_SET_REG32((void *)(CYREG_GPIO_PRT5_PC), 0x00000031u);
 435              		.loc 1 645 0
 436 0188 2E31     		adds	r1, r1, #46
 437 018a 254A     		ldr	r2, .L16+120
 438 018c 1160     		str	r1, [r2]
 646:Generated_Source\PSoC4/cyfitter_cfg.c **** 	CY_SET_REG32((void *)(CYREG_GPIO_PRT5_PC2), 0x00000002u);
 439              		.loc 1 646 0
 440 018e 254A     		ldr	r2, .L16+124
 441 0190 1360     		str	r3, [r2]
 647:Generated_Source\PSoC4/cyfitter_cfg.c **** 
 648:Generated_Source\PSoC4/cyfitter_cfg.c **** 	/* IOPINS0_7 Starting address: CYDEV_GPIO_PRT7_BASE */
 649:Generated_Source\PSoC4/cyfitter_cfg.c **** 	CY_SET_REG32((void *)(CYDEV_GPIO_PRT7_BASE), 0x00000002u);
 442              		.loc 1 649 0
 443 0192 254A     		ldr	r2, .L16+128
 444 0194 1360     		str	r3, [r2]
 650:Generated_Source\PSoC4/cyfitter_cfg.c **** 	CY_SET_REG32((void *)(CYREG_GPIO_PRT7_PC), 0x00000030u);
 445              		.loc 1 650 0
 446 0196 3022     		movs	r2, #48
 447 0198 244B     		ldr	r3, .L16+132
 448 019a 1A60     		str	r2, [r3]
 651:Generated_Source\PSoC4/cyfitter_cfg.c **** 
 652:Generated_Source\PSoC4/cyfitter_cfg.c **** 
 653:Generated_Source\PSoC4/cyfitter_cfg.c **** 	/* Setup clocks based on selections from Clock DWR */
 654:Generated_Source\PSoC4/cyfitter_cfg.c **** 	ClockSetup();
 449              		.loc 1 654 0
 450 019c FFF730FF 		bl	ClockSetup
 451              	.LVL24:
 655:Generated_Source\PSoC4/cyfitter_cfg.c **** 
 656:Generated_Source\PSoC4/cyfitter_cfg.c **** 	/* Perform basic analog initialization to defaults */
 657:Generated_Source\PSoC4/cyfitter_cfg.c **** 	AnalogSetDefault();
 452              		.loc 1 657 0
 453 01a0 FFF7FEFF 		bl	AnalogSetDefault
 454              	.LVL25:
 658:Generated_Source\PSoC4/cyfitter_cfg.c **** 
 659:Generated_Source\PSoC4/cyfitter_cfg.c **** }
ARM GAS  C:\Users\JamesH\AppData\Local\Temp\ccsMpl52.s 			page 21


 455              		.loc 1 659 0
 456              		@ sp needed
 457              	.LVL26:
 458 01a4 10BD     		pop	{r4, pc}
 459              	.L17:
 460 01a6 C046     		.align	2
 461              	.L16:
 462 01a8 00000000 		.word	.LANCHOR0
 463 01ac 00020000 		.word	.LANCHOR1
 464 01b0 00000240 		.word	1073872896
 465 01b4 00010240 		.word	1073873152
 466 01b8 30330333 		.word	855847728
 467 01bc 00020240 		.word	1073873408
 468 01c0 33EE3300 		.word	3403315
 469 01c4 00030240 		.word	1073873664
 470 01c8 00050240 		.word	1073874176
 471 01cc 00500F40 		.word	1074745344
 472 01d0 08500F40 		.word	1074745352
 473 01d4 10500F40 		.word	1074745360
 474 01d8 20500F40 		.word	1074745376
 475 01dc 00009C1B 		.word	463208448
 476 01e0 28500F40 		.word	1074745384
 477 01e4 30500F40 		.word	1074745392
 478 01e8 38500F40 		.word	1074745400
 479 01ec 01700F40 		.word	1074753537
 480 01f0 00700F40 		.word	1074753536
 481 01f4 00000440 		.word	1074003968
 482 01f8 08000440 		.word	1074003976
 483 01fc 00010440 		.word	1074004224
 484 0200 08010440 		.word	1074004232
 485 0204 00020440 		.word	1074004480
 486 0208 B06DD800 		.word	14183856
 487 020c 08020440 		.word	1074004488
 488 0210 00030440 		.word	1074004736
 489 0214 B66D0300 		.word	224694
 490 0218 08030440 		.word	1074004744
 491 021c 00050440 		.word	1074005248
 492 0220 08050440 		.word	1074005256
 493 0224 18050440 		.word	1074005272
 494 0228 00070440 		.word	1074005760
 495 022c 08070440 		.word	1074005768
 496              		.cfi_endproc
 497              	.LFE7:
 498              		.size	cyfitter_cfg, .-cyfitter_cfg
 499              		.section	.rodata
 500              		.align	2
 501              		.set	.LANCHOR0,. + 0
 502              		.set	.LANCHOR1,. + 512
 503              		.type	cfg_memset_list.4911, %object
 504              		.size	cfg_memset_list.4911, 12
 505              	cfg_memset_list.4911:
 506 0000 00300F40 		.word	1074737152
 507 0004 0004     		.short	1024
 508 0006 00400F40 		.4byte	1074741248
 509 000a 0004     		.short	1024
 510              		.type	cy_cfg_data_table.4906, %object
 511              		.size	cy_cfg_data_table.4906, 512
ARM GAS  C:\Users\JamesH\AppData\Local\Temp\ccsMpl52.s 			page 22


 512              	cy_cfg_data_table.4906:
 513 000c 03       		.byte	3
 514 000d FF       		.byte	-1
 515 000e 13       		.byte	19
 516 000f FF       		.byte	-1
 517 0010 23       		.byte	35
 518 0011 FF       		.byte	-1
 519 0012 33       		.byte	51
 520 0013 FF       		.byte	-1
 521 0014 81       		.byte	-127
 522 0015 0D       		.byte	13
 523 0016 04       		.byte	4
 524 0017 1F       		.byte	31
 525 0018 10       		.byte	16
 526 0019 06       		.byte	6
 527 001a 12       		.byte	18
 528 001b 11       		.byte	17
 529 001c 14       		.byte	20
 530 001d 10       		.byte	16
 531 001e 16       		.byte	22
 532 001f 04       		.byte	4
 533 0020 18       		.byte	24
 534 0021 18       		.byte	24
 535 0022 1A       		.byte	26
 536 0023 03       		.byte	3
 537 0024 24       		.byte	36
 538 0025 07       		.byte	7
 539 0026 26       		.byte	38
 540 0027 08       		.byte	8
 541 0028 28       		.byte	40
 542 0029 01       		.byte	1
 543 002a 2A       		.byte	42
 544 002b 12       		.byte	18
 545 002c 36       		.byte	54
 546 002d 1F       		.byte	31
 547 002e 40       		.byte	64
 548 002f 30       		.byte	48
 549 0030 41       		.byte	65
 550 0031 04       		.byte	4
 551 0032 49       		.byte	73
 552 0033 FF       		.byte	-1
 553 0034 4A       		.byte	74
 554 0035 FF       		.byte	-1
 555 0036 4B       		.byte	75
 556 0037 FF       		.byte	-1
 557 0038 4D       		.byte	77
 558 0039 A0       		.byte	-96
 559 003a 4F       		.byte	79
 560 003b 04       		.byte	4
 561 003c 50       		.byte	80
 562 003d 18       		.byte	24
 563 003e 58       		.byte	88
 564 003f 04       		.byte	4
 565 0040 5A       		.byte	90
 566 0041 04       		.byte	4
 567 0042 5B       		.byte	91
 568 0043 04       		.byte	4
ARM GAS  C:\Users\JamesH\AppData\Local\Temp\ccsMpl52.s 			page 23


 569 0044 5F       		.byte	95
 570 0045 01       		.byte	1
 571 0046 60       		.byte	96
 572 0047 40       		.byte	64
 573 0048 62       		.byte	98
 574 0049 C0       		.byte	-64
 575 004a 64       		.byte	100
 576 004b 40       		.byte	64
 577 004c 65       		.byte	101
 578 004d 40       		.byte	64
 579 004e 66       		.byte	102
 580 004f C0       		.byte	-64
 581 0050 68       		.byte	104
 582 0051 C0       		.byte	-64
 583 0052 6A       		.byte	106
 584 0053 C0       		.byte	-64
 585 0054 6C       		.byte	108
 586 0055 C0       		.byte	-64
 587 0056 6E       		.byte	110
 588 0057 C0       		.byte	-64
 589 0058 82       		.byte	-126
 590 0059 02       		.byte	2
 591 005a 84       		.byte	-124
 592 005b 60       		.byte	96
 593 005c 86       		.byte	-122
 594 005d 0C       		.byte	12
 595 005e 88       		.byte	-120
 596 005f 40       		.byte	64
 597 0060 8A       		.byte	-118
 598 0061 10       		.byte	16
 599 0062 90       		.byte	-112
 600 0063 18       		.byte	24
 601 0064 92       		.byte	-110
 602 0065 44       		.byte	68
 603 0066 96       		.byte	-106
 604 0067 7E       		.byte	126
 605 0068 A4       		.byte	-92
 606 0069 04       		.byte	4
 607 006a A6       		.byte	-90
 608 006b 48       		.byte	72
 609 006c A8       		.byte	-88
 610 006d 1C       		.byte	28
 611 006e AA       		.byte	-86
 612 006f 20       		.byte	32
 613 0070 AE       		.byte	-82
 614 0071 01       		.byte	1
 615 0072 B0       		.byte	-80
 616 0073 7C       		.byte	124
 617 0074 B2       		.byte	-78
 618 0075 01       		.byte	1
 619 0076 B4       		.byte	-76
 620 0077 02       		.byte	2
 621 0078 BE       		.byte	-66
 622 0079 10       		.byte	16
 623 007a C0       		.byte	-64
 624 007b 30       		.byte	48
 625 007c C1       		.byte	-63
ARM GAS  C:\Users\JamesH\AppData\Local\Temp\ccsMpl52.s 			page 24


 626 007d 04       		.byte	4
 627 007e C5       		.byte	-59
 628 007f D0       		.byte	-48
 629 0080 C6       		.byte	-58
 630 0081 12       		.byte	18
 631 0082 C8       		.byte	-56
 632 0083 1E       		.byte	30
 633 0084 C9       		.byte	-55
 634 0085 FF       		.byte	-1
 635 0086 CA       		.byte	-54
 636 0087 FF       		.byte	-1
 637 0088 CB       		.byte	-53
 638 0089 FF       		.byte	-1
 639 008a CD       		.byte	-51
 640 008b AF       		.byte	-81
 641 008c CE       		.byte	-50
 642 008d 0F       		.byte	15
 643 008e CF       		.byte	-49
 644 008f 04       		.byte	4
 645 0090 D0       		.byte	-48
 646 0091 18       		.byte	24
 647 0092 D2       		.byte	-46
 648 0093 87       		.byte	-121
 649 0094 D4       		.byte	-44
 650 0095 05       		.byte	5
 651 0096 D8       		.byte	-40
 652 0097 04       		.byte	4
 653 0098 DA       		.byte	-38
 654 0099 04       		.byte	4
 655 009a DB       		.byte	-37
 656 009b 04       		.byte	4
 657 009c DF       		.byte	-33
 658 009d 01       		.byte	1
 659 009e E0       		.byte	-32
 660 009f 40       		.byte	64
 661 00a0 E2       		.byte	-30
 662 00a1 C0       		.byte	-64
 663 00a2 E4       		.byte	-28
 664 00a3 40       		.byte	64
 665 00a4 E5       		.byte	-27
 666 00a5 40       		.byte	64
 667 00a6 E6       		.byte	-26
 668 00a7 C0       		.byte	-64
 669 00a8 E8       		.byte	-24
 670 00a9 C0       		.byte	-64
 671 00aa EA       		.byte	-22
 672 00ab C0       		.byte	-64
 673 00ac EC       		.byte	-20
 674 00ad C0       		.byte	-64
 675 00ae EE       		.byte	-18
 676 00af C0       		.byte	-64
 677 00b0 00       		.byte	0
 678 00b1 04       		.byte	4
 679 00b2 06       		.byte	6
 680 00b3 A8       		.byte	-88
 681 00b4 09       		.byte	9
 682 00b5 14       		.byte	20
ARM GAS  C:\Users\JamesH\AppData\Local\Temp\ccsMpl52.s 			page 25


 683 00b6 0A       		.byte	10
 684 00b7 40       		.byte	64
 685 00b8 0D       		.byte	13
 686 00b9 08       		.byte	8
 687 00ba 0E       		.byte	14
 688 00bb 40       		.byte	64
 689 00bc 10       		.byte	16
 690 00bd 28       		.byte	40
 691 00be 17       		.byte	23
 692 00bf 94       		.byte	-108
 693 00c0 19       		.byte	25
 694 00c1 80       		.byte	-128
 695 00c2 1C       		.byte	28
 696 00c3 10       		.byte	16
 697 00c4 1D       		.byte	29
 698 00c5 08       		.byte	8
 699 00c6 1E       		.byte	30
 700 00c7 08       		.byte	8
 701 00c8 1F       		.byte	31
 702 00c9 01       		.byte	1
 703 00ca 40       		.byte	64
 704 00cb 10       		.byte	16
 705 00cc 42       		.byte	66
 706 00cd 80       		.byte	-128
 707 00ce 45       		.byte	69
 708 00cf 08       		.byte	8
 709 00d0 46       		.byte	70
 710 00d1 80       		.byte	-128
 711 00d2 4D       		.byte	77
 712 00d3 01       		.byte	1
 713 00d4 55       		.byte	85
 714 00d5 14       		.byte	20
 715 00d6 56       		.byte	86
 716 00d7 A8       		.byte	-88
 717 00d8 5D       		.byte	93
 718 00d9 81       		.byte	-127
 719 00da 5E       		.byte	94
 720 00db 08       		.byte	8
 721 00dc 68       		.byte	104
 722 00dd 05       		.byte	5
 723 00de 6C       		.byte	108
 724 00df 28       		.byte	40
 725 00e0 6E       		.byte	110
 726 00e1 40       		.byte	64
 727 00e2 6F       		.byte	111
 728 00e3 14       		.byte	20
 729 00e4 77       		.byte	119
 730 00e5 80       		.byte	-128
 731 00e6 88       		.byte	-120
 732 00e7 05       		.byte	5
 733 00e8 C0       		.byte	-64
 734 00e9 74       		.byte	116
 735 00ea C2       		.byte	-62
 736 00eb 3E       		.byte	62
 737 00ec C4       		.byte	-60
 738 00ed E6       		.byte	-26
 739 00ee D0       		.byte	-48
ARM GAS  C:\Users\JamesH\AppData\Local\Temp\ccsMpl52.s 			page 26


 740 00ef C3       		.byte	-61
 741 00f0 D6       		.byte	-42
 742 00f1 D0       		.byte	-48
 743 00f2 80       		.byte	-128
 744 00f3 20       		.byte	32
 745 00f4 82       		.byte	-126
 746 00f5 40       		.byte	64
 747 00f6 85       		.byte	-123
 748 00f7 10       		.byte	16
 749 00f8 87       		.byte	-121
 750 00f9 20       		.byte	32
 751 00fa 88       		.byte	-120
 752 00fb 20       		.byte	32
 753 00fc 8A       		.byte	-118
 754 00fd 40       		.byte	64
 755 00fe 8B       		.byte	-117
 756 00ff 15       		.byte	21
 757 0100 8C       		.byte	-116
 758 0101 60       		.byte	96
 759 0102 8D       		.byte	-115
 760 0103 0F       		.byte	15
 761 0104 8F       		.byte	-113
 762 0105 30       		.byte	48
 763 0106 90       		.byte	-112
 764 0107 06       		.byte	6
 765 0108 92       		.byte	-110
 766 0109 11       		.byte	17
 767 010a 94       		.byte	-108
 768 010b 10       		.byte	16
 769 010c 95       		.byte	-107
 770 010d 10       		.byte	16
 771 010e 96       		.byte	-106
 772 010f 04       		.byte	4
 773 0110 97       		.byte	-105
 774 0111 20       		.byte	32
 775 0112 98       		.byte	-104
 776 0113 18       		.byte	24
 777 0114 99       		.byte	-103
 778 0115 01       		.byte	1
 779 0116 9A       		.byte	-102
 780 0117 03       		.byte	3
 781 0118 9B       		.byte	-101
 782 0119 02       		.byte	2
 783 011a 9D       		.byte	-99
 784 011b 04       		.byte	4
 785 011c 9E       		.byte	-98
 786 011d 20       		.byte	32
 787 011e 9F       		.byte	-97
 788 011f 08       		.byte	8
 789 0120 A1       		.byte	-95
 790 0121 05       		.byte	5
 791 0122 A2       		.byte	-94
 792 0123 E0       		.byte	-32
 793 0124 A3       		.byte	-93
 794 0125 0A       		.byte	10
 795 0126 A4       		.byte	-92
 796 0127 07       		.byte	7
ARM GAS  C:\Users\JamesH\AppData\Local\Temp\ccsMpl52.s 			page 27


 797 0128 A6       		.byte	-90
 798 0129 08       		.byte	8
 799 012a A8       		.byte	-88
 800 012b 01       		.byte	1
 801 012c AA       		.byte	-86
 802 012d 12       		.byte	18
 803 012e AD       		.byte	-83
 804 012f 03       		.byte	3
 805 0130 AF       		.byte	-81
 806 0131 3C       		.byte	60
 807 0132 B0       		.byte	-80
 808 0133 80       		.byte	-128
 809 0134 B2       		.byte	-78
 810 0135 60       		.byte	96
 811 0136 B3       		.byte	-77
 812 0137 30       		.byte	48
 813 0138 B4       		.byte	-76
 814 0139 1F       		.byte	31
 815 013a B5       		.byte	-75
 816 013b 03       		.byte	3
 817 013c B7       		.byte	-73
 818 013d 0C       		.byte	12
 819 013e BA       		.byte	-70
 820 013f CA       		.byte	-54
 821 0140 BB       		.byte	-69
 822 0141 A8       		.byte	-88
 823 0142 C0       		.byte	-64
 824 0143 45       		.byte	69
 825 0144 C5       		.byte	-59
 826 0145 30       		.byte	48
 827 0146 C6       		.byte	-58
 828 0147 40       		.byte	64
 829 0148 C7       		.byte	-57
 830 0149 07       		.byte	7
 831 014a C8       		.byte	-56
 832 014b 1E       		.byte	30
 833 014c C9       		.byte	-55
 834 014d FF       		.byte	-1
 835 014e CA       		.byte	-54
 836 014f FF       		.byte	-1
 837 0150 CB       		.byte	-53
 838 0151 FF       		.byte	-1
 839 0152 CD       		.byte	-51
 840 0153 60       		.byte	96
 841 0154 D8       		.byte	-40
 842 0155 04       		.byte	4
 843 0156 D9       		.byte	-39
 844 0157 04       		.byte	4
 845 0158 DA       		.byte	-38
 846 0159 04       		.byte	4
 847 015a DB       		.byte	-37
 848 015b 04       		.byte	4
 849 015c DF       		.byte	-33
 850 015d 01       		.byte	1
 851 015e E0       		.byte	-32
 852 015f 70       		.byte	112
 853 0160 E1       		.byte	-31
ARM GAS  C:\Users\JamesH\AppData\Local\Temp\ccsMpl52.s 			page 28


 854 0161 20       		.byte	32
 855 0162 E2       		.byte	-30
 856 0163 51       		.byte	81
 857 0164 E3       		.byte	-29
 858 0165 C8       		.byte	-56
 859 0166 E4       		.byte	-28
 860 0167 D1       		.byte	-47
 861 0168 E5       		.byte	-27
 862 0169 DC       		.byte	-36
 863 016a E6       		.byte	-26
 864 016b 51       		.byte	81
 865 016c E7       		.byte	-25
 866 016d DC       		.byte	-36
 867 016e 00       		.byte	0
 868 016f 40       		.byte	64
 869 0170 01       		.byte	1
 870 0171 02       		.byte	2
 871 0172 03       		.byte	3
 872 0173 08       		.byte	8
 873 0174 09       		.byte	9
 874 0175 94       		.byte	-108
 875 0176 0A       		.byte	10
 876 0177 40       		.byte	64
 877 0178 10       		.byte	16
 878 0179 28       		.byte	40
 879 017a 12       		.byte	18
 880 017b 40       		.byte	64
 881 017c 18       		.byte	24
 882 017d 44       		.byte	68
 883 017e 19       		.byte	25
 884 017f 40       		.byte	64
 885 0180 1B       		.byte	27
 886 0181 08       		.byte	8
 887 0182 21       		.byte	33
 888 0183 28       		.byte	40
 889 0184 22       		.byte	34
 890 0185 40       		.byte	64
 891 0186 29       		.byte	41
 892 0187 42       		.byte	66
 893 0188 2A       		.byte	42
 894 0189 40       		.byte	64
 895 018a 31       		.byte	49
 896 018b 28       		.byte	40
 897 018c 32       		.byte	50
 898 018d 40       		.byte	64
 899 018e 38       		.byte	56
 900 018f 68       		.byte	104
 901 0190 40       		.byte	64
 902 0191 40       		.byte	64
 903 0192 49       		.byte	73
 904 0193 42       		.byte	66
 905 0194 50       		.byte	80
 906 0195 14       		.byte	20
 907 0196 51       		.byte	81
 908 0197 80       		.byte	-128
 909 0198 69       		.byte	105
 910 0199 11       		.byte	17
ARM GAS  C:\Users\JamesH\AppData\Local\Temp\ccsMpl52.s 			page 29


 911 019a 6B       		.byte	107
 912 019b 12       		.byte	18
 913 019c 82       		.byte	-126
 914 019d 40       		.byte	64
 915 019e 87       		.byte	-121
 916 019f 02       		.byte	2
 917 01a0 89       		.byte	-119
 918 01a1 19       		.byte	25
 919 01a2 8F       		.byte	-113
 920 01a3 18       		.byte	24
 921 01a4 92       		.byte	-110
 922 01a5 40       		.byte	64
 923 01a6 94       		.byte	-108
 924 01a7 04       		.byte	4
 925 01a8 A0       		.byte	-96
 926 01a9 28       		.byte	40
 927 01aa A1       		.byte	-95
 928 01ab 14       		.byte	20
 929 01ac A5       		.byte	-91
 930 01ad 20       		.byte	32
 931 01ae B1       		.byte	-79
 932 01af 20       		.byte	32
 933 01b0 B7       		.byte	-73
 934 01b1 01       		.byte	1
 935 01b2 C0       		.byte	-64
 936 01b3 0B       		.byte	11
 937 01b4 C2       		.byte	-62
 938 01b5 0F       		.byte	15
 939 01b6 C4       		.byte	-60
 940 01b7 0E       		.byte	14
 941 01b8 CA       		.byte	-54
 942 01b9 09       		.byte	9
 943 01ba CC       		.byte	-52
 944 01bb 0E       		.byte	14
 945 01bc CE       		.byte	-50
 946 01bd 0E       		.byte	14
 947 01be D0       		.byte	-48
 948 01bf 01       		.byte	1
 949 01c0 D2       		.byte	-46
 950 01c1 08       		.byte	8
 951 01c2 E4       		.byte	-28
 952 01c3 03       		.byte	3
 953 01c4 EA       		.byte	-22
 954 01c5 40       		.byte	64
 955 01c6 57       		.byte	87
 956 01c7 80       		.byte	-128
 957 01c8 D4       		.byte	-44
 958 01c9 40       		.byte	64
 959 01ca B7       		.byte	-73
 960 01cb 80       		.byte	-128
 961 01cc 55       		.byte	85
 962 01cd 01       		.byte	1
 963 01ce 56       		.byte	86
 964 01cf 20       		.byte	32
 965 01d0 58       		.byte	88
 966 01d1 40       		.byte	64
 967 01d2 61       		.byte	97
ARM GAS  C:\Users\JamesH\AppData\Local\Temp\ccsMpl52.s 			page 30


 968 01d3 80       		.byte	-128
 969 01d4 64       		.byte	100
 970 01d5 10       		.byte	16
 971 01d6 66       		.byte	102
 972 01d7 80       		.byte	-128
 973 01d8 88       		.byte	-120
 974 01d9 50       		.byte	80
 975 01da D4       		.byte	-44
 976 01db 03       		.byte	3
 977 01dc D6       		.byte	-42
 978 01dd 07       		.byte	7
 979 01de D8       		.byte	-40
 980 01df 01       		.byte	1
 981 01e0 E0       		.byte	-32
 982 01e1 05       		.byte	5
 983 01e2 52       		.byte	82
 984 01e3 20       		.byte	32
 985 01e4 59       		.byte	89
 986 01e5 40       		.byte	64
 987 01e6 5E       		.byte	94
 988 01e7 01       		.byte	1
 989 01e8 66       		.byte	102
 990 01e9 01       		.byte	1
 991 01ea 81       		.byte	-127
 992 01eb 80       		.byte	-128
 993 01ec 86       		.byte	-122
 994 01ed 20       		.byte	32
 995 01ee 89       		.byte	-119
 996 01ef 40       		.byte	64
 997 01f0 8A       		.byte	-118
 998 01f1 81       		.byte	-127
 999 01f2 8D       		.byte	-115
 1000 01f3 01       		.byte	1
 1001 01f4 8E       		.byte	-114
 1002 01f5 01       		.byte	1
 1003 01f6 9E       		.byte	-98
 1004 01f7 80       		.byte	-128
 1005 01f8 A5       		.byte	-91
 1006 01f9 81       		.byte	-127
 1007 01fa B2       		.byte	-78
 1008 01fb 20       		.byte	32
 1009 01fc D4       		.byte	-44
 1010 01fd 05       		.byte	5
 1011 01fe D6       		.byte	-42
 1012 01ff 01       		.byte	1
 1013 0200 D8       		.byte	-40
 1014 0201 01       		.byte	1
 1015 0202 E0       		.byte	-32
 1016 0203 09       		.byte	9
 1017 0204 E4       		.byte	-28
 1018 0205 07       		.byte	7
 1019 0206 EC       		.byte	-20
 1020 0207 01       		.byte	1
 1021 0208 01       		.byte	1
 1022 0209 01       		.byte	1
 1023 020a 10       		.byte	16
 1024 020b 01       		.byte	1
ARM GAS  C:\Users\JamesH\AppData\Local\Temp\ccsMpl52.s 			page 31


 1025              		.type	cy_cfg_addr_table.4905, %object
 1026              		.size	cy_cfg_addr_table.4905, 40
 1027              	cy_cfg_addr_table.4905:
 1028 020c 05000F40 		.word	1074724869
 1029 0210 4D300F40 		.word	1074737229
 1030 0214 21310F40 		.word	1074737441
 1031 0218 3E320F40 		.word	1074737726
 1032 021c 2C330F40 		.word	1074737964
 1033 0220 02400F40 		.word	1074741250
 1034 0224 01410F40 		.word	1074741505
 1035 0228 0B420F40 		.word	1074741771
 1036 022c 13430F40 		.word	1074742035
 1037 0230 02600F40 		.word	1074749442
 1038              		.text
 1039              	.Letext0:
 1040              		.file 2 "c:\\program files (x86)\\cypress\\psoc creator\\4.4\\psoc creator\\import\\gnu\\arm\\5.4.
 1041              		.file 3 "Generated_Source\\PSoC4\\cytypes.h"
 1042              		.file 4 "Generated_Source\\PSoC4\\CyLib.h"