ARM GAS  C:\Users\JamesH\AppData\Local\Temp\ccxqgNPT.s 			page 1


   1              		.syntax unified
   2              		.cpu cortex-m0
   3              		.fpu softvfp
   4              		.eabi_attribute 20, 1
   5              		.eabi_attribute 21, 1
   6              		.eabi_attribute 23, 3
   7              		.eabi_attribute 24, 1
   8              		.eabi_attribute 25, 1
   9              		.eabi_attribute 26, 1
  10              		.eabi_attribute 30, 1
  11              		.eabi_attribute 34, 0
  12              		.eabi_attribute 18, 4
  13              		.thumb
  14              		.syntax unified
  15              		.file	"fnReceive.c"
  16              		.text
  17              	.Ltext0:
  18              		.cfi_sections	.debug_frame
  19              		.section	.text.RunFn,"ax",%progbits
  20              		.align	2
  21              		.global	RunFn
  22              		.code	16
  23              		.thumb_func
  24              		.type	RunFn, %function
  25              	RunFn:
  26              	.LFB35:
  27              		.file 1 "fnReceive.c"
   1:fnReceive.c   **** /* ========================================
   2:fnReceive.c   ****  *
   3:fnReceive.c   ****  * Copyright YOUR COMPANY, THE YEAR
   4:fnReceive.c   ****  * All Rights Reserved
   5:fnReceive.c   ****  * UNPUBLISHED, LICENSED SOFTWARE.
   6:fnReceive.c   ****  *
   7:fnReceive.c   ****  * CONFIDENTIAL AND PROPRIETARY INFORMATION
   8:fnReceive.c   ****  * WHICH IS THE PROPERTY OF your company.
   9:fnReceive.c   ****  *
  10:fnReceive.c   ****  * ========================================
  11:fnReceive.c   **** */
  12:fnReceive.c   **** // This file will interpret function calls that come over serial
  13:fnReceive.c   **** 
  14:fnReceive.c   **** #include "project.h"
  15:fnReceive.c   **** #include "string.h"
  16:fnReceive.c   **** #include <stdio.h>
  17:fnReceive.c   **** #include <stdlib.h>
  18:fnReceive.c   **** #include "SBT0811.h"
  19:fnReceive.c   **** #include "IMU.h"
  20:fnReceive.c   **** #include "SG90.h"
  21:fnReceive.c   **** #include "TB9051.h"
  22:fnReceive.c   **** 
  23:fnReceive.c   **** void fnCall(int fn, float para2, float para3);
  24:fnReceive.c   **** 
  25:fnReceive.c   **** void RunFn(char * comString){
  28              		.loc 1 25 0
  29              		.cfi_startproc
  30              		@ args = 0, pretend = 0, frame = 0
  31              		@ frame_needed = 0, uses_anonymous_args = 0
  32              		@ link register save eliminated.
ARM GAS  C:\Users\JamesH\AppData\Local\Temp\ccxqgNPT.s 			page 2


  33              	.LVL0:
  26:fnReceive.c   ****     ///// This interprets incoming serial as strings, trying to bypass that /////
  27:fnReceive.c   ****     /*char *pEnd;
  28:fnReceive.c   ****     
  29:fnReceive.c   ****     int b = strlen(comString);
  30:fnReceive.c   ****     for (int i = 0 ; i<b-1; i++) 
  31:fnReceive.c   ****     { 
  32:fnReceive.c   ****         if (comString[i] == 44) {
  33:fnReceive.c   ****             comString[i] = 32;
  34:fnReceive.c   ****         }
  35:fnReceive.c   ****     }
  36:fnReceive.c   ****     float para1 = strtof(comString, &pEnd);
  37:fnReceive.c   ****     float para2 = strtof(pEnd, &pEnd);
  38:fnReceive.c   ****     float para3 = strtof(pEnd, &pEnd);
  39:fnReceive.c   ****     fnCall(para1, para2, para3);*/
  40:fnReceive.c   ****     
  41:fnReceive.c   ****     //char string[20]; sprintf(string, "%f, ", para1); UART_PutString(string);
  42:fnReceive.c   ****     //sprintf(string, "%f, ", para2); UART_PutString(string);
  43:fnReceive.c   ****     //sprintf(string, "%f\n", para3); UART_PutString(string);
  44:fnReceive.c   **** }
  34              		.loc 1 44 0
  35              		@ sp needed
  36 0000 7047     		bx	lr
  37              		.cfi_endproc
  38              	.LFE35:
  39              		.size	RunFn, .-RunFn
  40              		.global	__aeabi_f2iz
  41 0002 C046     		.section	.text.fnCall,"ax",%progbits
  42              		.align	2
  43              		.global	fnCall
  44              		.code	16
  45              		.thumb_func
  46              		.type	fnCall, %function
  47              	fnCall:
  48              	.LFB36:
  45:fnReceive.c   **** 
  46:fnReceive.c   **** void fnCall(int fn, float para2, float para3) {
  49              		.loc 1 46 0
  50              		.cfi_startproc
  51              		@ args = 0, pretend = 0, frame = 0
  52              		@ frame_needed = 0, uses_anonymous_args = 0
  53              	.LVL1:
  54 0000 70B5     		push	{r4, r5, r6, lr}
  55              		.cfi_def_cfa_offset 16
  56              		.cfi_offset 4, -16
  57              		.cfi_offset 5, -12
  58              		.cfi_offset 6, -8
  59              		.cfi_offset 14, -4
  60 0002 0C1C     		adds	r4, r1, #0
  47:fnReceive.c   ****     switch (fn) { 
  61              		.loc 1 47 0
  62 0004 3228     		cmp	r0, #50
  63 0006 57D0     		beq	.L4
  64 0008 10DC     		bgt	.L5
  65 000a 0328     		cmp	r0, #3
  66 000c 34D0     		beq	.L6
  67 000e 05DC     		bgt	.L7
ARM GAS  C:\Users\JamesH\AppData\Local\Temp\ccxqgNPT.s 			page 3


  68 0010 0128     		cmp	r0, #1
  69 0012 23D0     		beq	.L8
  70 0014 25DC     		bgt	.L9
  71 0016 0028     		cmp	r0, #0
  72 0018 1BD0     		beq	.L10
  73 001a 72E0     		b	.L2
  74              	.L7:
  75 001c 0528     		cmp	r0, #5
  76 001e 3CD0     		beq	.L11
  77 0020 35DB     		blt	.L12
  78 0022 0628     		cmp	r0, #6
  79 0024 3FD0     		beq	.L13
  80 0026 0728     		cmp	r0, #7
  81 0028 43D0     		beq	.L14
  82 002a 6AE0     		b	.L2
  83              	.L5:
  84 002c C828     		cmp	r0, #200
  85 002e 5AD0     		beq	.L15
  86 0030 07DC     		bgt	.L16
  87 0032 3428     		cmp	r0, #52
  88 0034 4CD0     		beq	.L17
  89 0036 45DB     		blt	.L18
  90 0038 3C28     		cmp	r0, #60
  91 003a 4DD0     		beq	.L19
  92 003c 3D28     		cmp	r0, #61
  93 003e 4ED0     		beq	.L20
  94 0040 5FE0     		b	.L2
  95              	.L16:
  96 0042 CA28     		cmp	r0, #202
  97 0044 55D0     		beq	.L21
  98 0046 51DB     		blt	.L22
  99 0048 CB28     		cmp	r0, #203
 100 004a 55D0     		beq	.L23
 101 004c D028     		cmp	r0, #208
 102 004e 56D0     		beq	.L24
 103 0050 57E0     		b	.L2
 104              	.L10:
  48:fnReceive.c   ****         case 0: TB9051_VehMoveTo(para2,para3);          break; // Motor Commands
 105              		.loc 1 48 0
 106 0052 111C     		adds	r1, r2, #0
 107              	.LVL2:
 108 0054 201C     		adds	r0, r4, #0
 109              	.LVL3:
 110 0056 FFF7FEFF 		bl	TB9051_VehMoveTo
 111              	.LVL4:
 112 005a 52E0     		b	.L2
 113              	.LVL5:
 114              	.L8:
  49:fnReceive.c   ****         case 1: TB9051_Begin();                         break;
 115              		.loc 1 49 0
 116 005c FFF7FEFF 		bl	TB9051_Begin
 117              	.LVL6:
 118 0060 4FE0     		b	.L2
 119              	.LVL7:
 120              	.L9:
  50:fnReceive.c   ****         case 2: TB9051_Forward((int)para2,(int)para3);  break;
 121              		.loc 1 50 0
ARM GAS  C:\Users\JamesH\AppData\Local\Temp\ccxqgNPT.s 			page 4


 122 0062 101C     		adds	r0, r2, #0
 123              	.LVL8:
 124 0064 FFF7FEFF 		bl	__aeabi_f2iz
 125              	.LVL9:
 126 0068 0500     		movs	r5, r0
 127 006a 201C     		adds	r0, r4, #0
 128 006c FFF7FEFF 		bl	__aeabi_f2iz
 129              	.LVL10:
 130 0070 2900     		movs	r1, r5
 131 0072 FFF7FEFF 		bl	TB9051_Forward
 132              	.LVL11:
 133 0076 44E0     		b	.L2
 134              	.LVL12:
 135              	.L6:
  51:fnReceive.c   ****         case 3: TB9051_Reverse((int)para2,(int)para3);  break;
 136              		.loc 1 51 0
 137 0078 101C     		adds	r0, r2, #0
 138              	.LVL13:
 139 007a FFF7FEFF 		bl	__aeabi_f2iz
 140              	.LVL14:
 141 007e 0500     		movs	r5, r0
 142 0080 201C     		adds	r0, r4, #0
 143 0082 FFF7FEFF 		bl	__aeabi_f2iz
 144              	.LVL15:
 145 0086 2900     		movs	r1, r5
 146 0088 FFF7FEFF 		bl	TB9051_Reverse
 147              	.LVL16:
 148 008c 39E0     		b	.L2
 149              	.LVL17:
 150              	.L12:
  52:fnReceive.c   ****         case 4: TB9051_Brake((int)para2);               break;
 151              		.loc 1 52 0
 152 008e 081C     		adds	r0, r1, #0
 153              	.LVL18:
 154 0090 FFF7FEFF 		bl	__aeabi_f2iz
 155              	.LVL19:
 156 0094 FFF7FEFF 		bl	TB9051_Brake
 157              	.LVL20:
 158 0098 33E0     		b	.L2
 159              	.LVL21:
 160              	.L11:
  53:fnReceive.c   ****         case 5: TB9051_VehForward((int)para2);          break;
 161              		.loc 1 53 0
 162 009a 081C     		adds	r0, r1, #0
 163              	.LVL22:
 164 009c FFF7FEFF 		bl	__aeabi_f2iz
 165              	.LVL23:
 166 00a0 FFF7FEFF 		bl	TB9051_VehForward
 167              	.LVL24:
 168 00a4 2DE0     		b	.L2
 169              	.LVL25:
 170              	.L13:
  54:fnReceive.c   ****         case 6: TB9051_VehReverse((int)para2);          break;
 171              		.loc 1 54 0
 172 00a6 081C     		adds	r0, r1, #0
 173              	.LVL26:
 174 00a8 FFF7FEFF 		bl	__aeabi_f2iz
ARM GAS  C:\Users\JamesH\AppData\Local\Temp\ccxqgNPT.s 			page 5


 175              	.LVL27:
 176 00ac FFF7FEFF 		bl	TB9051_VehReverse
 177              	.LVL28:
 178 00b0 27E0     		b	.L2
 179              	.LVL29:
 180              	.L14:
  55:fnReceive.c   ****         case 7: TB9051_VehBrake();                      break;
 181              		.loc 1 55 0
 182 00b2 FFF7FEFF 		bl	TB9051_VehBrake
 183              	.LVL30:
 184 00b6 24E0     		b	.L2
 185              	.LVL31:
 186              	.L4:
  56:fnReceive.c   ****         case 50: oneStepCCW((int)para2);                break; // Stepper Commands
 187              		.loc 1 56 0
 188 00b8 081C     		adds	r0, r1, #0
 189              	.LVL32:
 190 00ba FFF7FEFF 		bl	__aeabi_f2iz
 191              	.LVL33:
 192 00be FFF7FEFF 		bl	oneStepCCW
 193              	.LVL34:
 194 00c2 1EE0     		b	.L2
 195              	.LVL35:
 196              	.L18:
  57:fnReceive.c   ****         case 51: oneStepCW((int)para2);                 break;
 197              		.loc 1 57 0
 198 00c4 081C     		adds	r0, r1, #0
 199              	.LVL36:
 200 00c6 FFF7FEFF 		bl	__aeabi_f2iz
 201              	.LVL37:
 202 00ca FFF7FEFF 		bl	oneStepCW
 203              	.LVL38:
 204 00ce 18E0     		b	.L2
 205              	.LVL39:
 206              	.L17:
  58:fnReceive.c   ****         case 52: moveAngle(para2);                      break;
 207              		.loc 1 58 0
 208 00d0 081C     		adds	r0, r1, #0
 209              	.LVL40:
 210 00d2 FFF7FEFF 		bl	moveAngle
 211              	.LVL41:
 212 00d6 14E0     		b	.L2
 213              	.LVL42:
 214              	.L19:
  59:fnReceive.c   ****         case 60: SG90_Begin();                          break; // Servo Commands
 215              		.loc 1 59 0
 216 00d8 FFF7FEFF 		bl	SG90_Begin
 217              	.LVL43:
 218 00dc 11E0     		b	.L2
 219              	.LVL44:
 220              	.L20:
  60:fnReceive.c   ****         case 61: SG90_ToAngle(para2);                   break;
 221              		.loc 1 60 0
 222 00de 081C     		adds	r0, r1, #0
 223              	.LVL45:
 224 00e0 FFF7FEFF 		bl	SG90_ToAngle
 225              	.LVL46:
ARM GAS  C:\Users\JamesH\AppData\Local\Temp\ccxqgNPT.s 			page 6


 226 00e4 0DE0     		b	.L2
 227              	.LVL47:
 228              	.L15:
  61:fnReceive.c   ****         case 200: LIS3MDL_Begin();                      break; // Accelerometer
 229              		.loc 1 61 0
 230 00e6 FFF7FEFF 		bl	LIS3MDL_Begin
 231              	.LVL48:
 232 00ea 0AE0     		b	.L2
 233              	.LVL49:
 234              	.L22:
  62:fnReceive.c   ****         case 201: LIS3MDL_MasterStatus();               break;
 235              		.loc 1 62 0
 236 00ec FFF7FEFF 		bl	LIS3MDL_MasterStatus
 237              	.LVL50:
 238 00f0 07E0     		b	.L2
 239              	.LVL51:
 240              	.L21:
  63:fnReceive.c   ****         case 202: LIS3MDL_TransferByte();               break;
 241              		.loc 1 63 0
 242 00f2 FFF7FEFF 		bl	LIS3MDL_TransferByte
 243              	.LVL52:
 244 00f6 04E0     		b	.L2
 245              	.LVL53:
 246              	.L23:
  64:fnReceive.c   ****         case 203: LIS3MDL_TransferMultipleBytes();      break;
 247              		.loc 1 64 0
 248 00f8 FFF7FEFF 		bl	LIS3MDL_TransferMultipleBytes
 249              	.LVL54:
 250 00fc 01E0     		b	.L2
 251              	.LVL55:
 252              	.L24:
  65:fnReceive.c   ****         //case 204: LIS3MDL_ReadAxisRaw(uint8 * (&para2))); TO-DO; break;
  66:fnReceive.c   ****         //case 205: LIS3MDL_ReadAxisDeg(uint16_t * (&para2))); TO-DO; break;
  67:fnReceive.c   ****         //case 206: LIS3MDL_ReadMultipleBytes();          break;
  68:fnReceive.c   ****         //case 207: LIS3MDL_ReadWhoAmIReg(uint8 * rdPtr) TO-DO; break; 
  69:fnReceive.c   ****         case 208: LSM6DS3_Begin();                        break;
 253              		.loc 1 69 0
 254 00fe FFF7FEFF 		bl	LSM6DS3_Begin
 255              	.LVL56:
 256              	.L2:
  70:fnReceive.c   ****         //case 211: LSM6DS3_ReadAxisRaw TO-DO
  71:fnReceive.c   ****         //case 212 LSM6DS3_ReadAxisDeg TO-DO
  72:fnReceive.c   ****         //case 213: LSM6DS3_ReadMultipleBytes();          break;
  73:fnReceive.c   ****         //case 214: LSM6DS3_ReadWhoAmIReg() TO-DO;      break;
  74:fnReceive.c   ****         //case 215: LSM6DS3_ReadCtrlReg(); TO-DO:       break;
  75:fnReceive.c   ****         
  76:fnReceive.c   ****         
  77:fnReceive.c   ****         
  78:fnReceive.c   ****         
  79:fnReceive.c   ****             
  80:fnReceive.c   ****         
  81:fnReceive.c   ****         
  82:fnReceive.c   ****         
  83:fnReceive.c   ****     }
  84:fnReceive.c   **** }
 257              		.loc 1 84 0
 258              		@ sp needed
ARM GAS  C:\Users\JamesH\AppData\Local\Temp\ccxqgNPT.s 			page 7


 259              	.LVL57:
 260 0102 70BD     		pop	{r4, r5, r6, pc}
 261              		.cfi_endproc
 262              	.LFE36:
 263              		.size	fnCall, .-fnCall
 264              		.text
 265              	.Letext0:
 266              		.file 2 "TB9051.h"
 267              		.file 3 "SBT0811.h"
 268              		.file 4 "SG90.h"
 269              		.file 5 "IMU.h"