ARM GAS  C:\Users\JamesH\AppData\Local\Temp\ccYo42jV.s 			page 1


   1              		.syntax unified
   2              		.cpu cortex-m0
   3              		.fpu softvfp
   4              		.eabi_attribute 20, 1
   5              		.eabi_attribute 21, 1
   6              		.eabi_attribute 23, 3
   7              		.eabi_attribute 24, 1
   8              		.eabi_attribute 25, 1
   9              		.eabi_attribute 26, 1
  10              		.eabi_attribute 30, 1
  11              		.eabi_attribute 34, 0
  12              		.eabi_attribute 18, 4
  13              		.thumb
  14              		.syntax unified
  15              		.file	"IMU.c"
  16              		.text
  17              	.Ltext0:
  18              		.cfi_sections	.debug_frame
  19              		.section	.text.LIS3MDL_Begin,"ax",%progbits
  20              		.align	2
  21              		.global	LIS3MDL_Begin
  22              		.code	16
  23              		.thumb_func
  24              		.type	LIS3MDL_Begin, %function
  25              	LIS3MDL_Begin:
  26              	.LFB35:
  27              		.file 1 "IMU.c"
   1:IMU.c         **** /* ========================================
   2:IMU.c         ****  *
   3:IMU.c         ****  * Copyright YOUR COMPANY, THE YEAR
   4:IMU.c         ****  * All Rights Reserved
   5:IMU.c         ****  * UNPUBLISHED, LICENSED SOFTWARE.
   6:IMU.c         ****  *
   7:IMU.c         ****  * CONFIDENTIAL AND PROPRIETARY INFORMATION
   8:IMU.c         ****  * WHICH IS THE PROPERTY OF your company.
   9:IMU.c         ****  *
  10:IMU.c         ****  *  Information taken from the datasheet https://www.st.com/en/mems-and-sensors/lis3mdl.html  
  11:IMU.c         ****  * ========================================
  12:IMU.c         **** */
  13:IMU.c         **** 
  14:IMU.c         **** #include "IMU.h"
  15:IMU.c         **** #include "stdio.h"
  16:IMU.c         **** #include <stdlib.h>
  17:IMU.c         **** #include "project.h"
  18:IMU.c         **** #include <math.h>
  19:IMU.c         **** 
  20:IMU.c         **** 
  21:IMU.c         **** ////// Magnetometer /////
  22:IMU.c         **** void LIS3MDL_Begin() {
  28              		.loc 1 22 0
  29              		.cfi_startproc
  30              		@ args = 0, pretend = 0, frame = 0
  31              		@ frame_needed = 0, uses_anonymous_args = 0
  32 0000 10B5     		push	{r4, lr}
  33              		.cfi_def_cfa_offset 8
  34              		.cfi_offset 4, -8
  35              		.cfi_offset 14, -4
ARM GAS  C:\Users\JamesH\AppData\Local\Temp\ccYo42jV.s 			page 2


  23:IMU.c         ****     I2C_1_Start(); //Enable I2C In PSOC
  36              		.loc 1 23 0
  37 0002 FFF7FEFF 		bl	I2C_1_Start
  38              	.LVL0:
  24:IMU.c         ****     
  25:IMU.c         ****     // Enable Data conversion in magnetometer by setting Control register 3 to continuous conversio
  26:IMU.c         ****     I2C_1_I2CMasterSendStart(LIS3MDL_I2CADD,I2C_1_I2C_WRITE_XFER_MODE,100);    // Initialize a tran
  39              		.loc 1 26 0
  40 0006 6422     		movs	r2, #100
  41 0008 0021     		movs	r1, #0
  42 000a 1E20     		movs	r0, #30
  43 000c FFF7FEFF 		bl	I2C_1_I2CMasterSendStart
  44              	.LVL1:
  27:IMU.c         ****     I2C_1_I2CMasterWriteByte(LIS3MDL_REG_CTRL_REG3,100);                       // Indicate which re
  45              		.loc 1 27 0
  46 0010 6421     		movs	r1, #100
  47 0012 2220     		movs	r0, #34
  48 0014 FFF7FEFF 		bl	I2C_1_I2CMasterWriteByte
  49              	.LVL2:
  28:IMU.c         ****     I2C_1_I2CMasterWriteByte(0x00,100);                                        // Write to register
  50              		.loc 1 28 0
  51 0018 6421     		movs	r1, #100
  52 001a 0020     		movs	r0, #0
  53 001c FFF7FEFF 		bl	I2C_1_I2CMasterWriteByte
  54              	.LVL3:
  29:IMU.c         ****     I2C_1_I2CMasterSendStop(100);                    // End of transaction */
  55              		.loc 1 29 0
  56 0020 6420     		movs	r0, #100
  57 0022 FFF7FEFF 		bl	I2C_1_I2CMasterSendStop
  58              	.LVL4:
  30:IMU.c         **** }
  59              		.loc 1 30 0
  60              		@ sp needed
  61 0026 10BD     		pop	{r4, pc}
  62              		.cfi_endproc
  63              	.LFE35:
  64              		.size	LIS3MDL_Begin, .-LIS3MDL_Begin
  65              		.section	.text.LIS3MDL_MasterStatus,"ax",%progbits
  66              		.align	2
  67              		.global	LIS3MDL_MasterStatus
  68              		.code	16
  69              		.thumb_func
  70              		.type	LIS3MDL_MasterStatus, %function
  71              	LIS3MDL_MasterStatus:
  72              	.LFB36:
  31:IMU.c         **** 
  32:IMU.c         **** void LIS3MDL_MasterStatus() {
  73              		.loc 1 32 0
  74              		.cfi_startproc
  75              		@ args = 0, pretend = 0, frame = 0
  76              		@ frame_needed = 0, uses_anonymous_args = 0
  77 0000 10B5     		push	{r4, lr}
  78              		.cfi_def_cfa_offset 8
  79              		.cfi_offset 4, -8
  80              		.cfi_offset 14, -4
  33:IMU.c         ****     I2C_1_I2CMasterStatus();
  81              		.loc 1 33 0
ARM GAS  C:\Users\JamesH\AppData\Local\Temp\ccYo42jV.s 			page 3


  82 0002 FFF7FEFF 		bl	I2C_1_I2CMasterStatus
  83              	.LVL5:
  34:IMU.c         **** }
  84              		.loc 1 34 0
  85              		@ sp needed
  86 0006 10BD     		pop	{r4, pc}
  87              		.cfi_endproc
  88              	.LFE36:
  89              		.size	LIS3MDL_MasterStatus, .-LIS3MDL_MasterStatus
  90              		.section	.text.LIS3MDL_TransferByte,"ax",%progbits
  91              		.align	2
  92              		.global	LIS3MDL_TransferByte
  93              		.code	16
  94              		.thumb_func
  95              		.type	LIS3MDL_TransferByte, %function
  96              	LIS3MDL_TransferByte:
  97              	.LFB37:
  35:IMU.c         **** 
  36:IMU.c         **** void LIS3MDL_TransferByte() {
  98              		.loc 1 36 0
  99              		.cfi_startproc
 100              		@ args = 0, pretend = 0, frame = 0
 101              		@ frame_needed = 0, uses_anonymous_args = 0
 102              		@ link register save eliminated.
  37:IMU.c         ****     /* (M)ST | (M)SAD + W | (S)SAK | (M)SUB | (S)SAK | (M)DATA | (S)SAK | (M)SP */
  38:IMU.c         **** } 
 103              		.loc 1 38 0
 104              		@ sp needed
 105 0000 7047     		bx	lr
 106              		.cfi_endproc
 107              	.LFE37:
 108              		.size	LIS3MDL_TransferByte, .-LIS3MDL_TransferByte
 109 0002 C046     		.section	.text.LIS3MDL_TransferMultipleBytes,"ax",%progbits
 110              		.align	2
 111              		.global	LIS3MDL_TransferMultipleBytes
 112              		.code	16
 113              		.thumb_func
 114              		.type	LIS3MDL_TransferMultipleBytes, %function
 115              	LIS3MDL_TransferMultipleBytes:
 116              	.LFB38:
  39:IMU.c         **** 
  40:IMU.c         **** void LIS3MDL_TransferMultipleBytes() {
 117              		.loc 1 40 0
 118              		.cfi_startproc
 119              		@ args = 0, pretend = 0, frame = 0
 120              		@ frame_needed = 0, uses_anonymous_args = 0
 121              		@ link register save eliminated.
  41:IMU.c         ****     /* (M)ST | (M)SAD + W | (S)SAK | (M)SUB | (S)SAK | DATA | (S)SAK | (M)DATA | (S)SAK |(M)SP */
  42:IMU.c         ****     
  43:IMU.c         **** }
 122              		.loc 1 43 0
 123              		@ sp needed
 124 0000 7047     		bx	lr
 125              		.cfi_endproc
 126              	.LFE38:
 127              		.size	LIS3MDL_TransferMultipleBytes, .-LIS3MDL_TransferMultipleBytes
 128 0002 C046     		.section	.text.LIS3MDL_ReadWhoAmIReg,"ax",%progbits
ARM GAS  C:\Users\JamesH\AppData\Local\Temp\ccYo42jV.s 			page 4


 129              		.align	2
 130              		.global	LIS3MDL_ReadWhoAmIReg
 131              		.code	16
 132              		.thumb_func
 133              		.type	LIS3MDL_ReadWhoAmIReg, %function
 134              	LIS3MDL_ReadWhoAmIReg:
 135              	.LFB39:
  44:IMU.c         **** 
  45:IMU.c         **** void LIS3MDL_ReadWhoAmIReg(uint8 * rdPtr) {
 136              		.loc 1 45 0
 137              		.cfi_startproc
 138              		@ args = 0, pretend = 0, frame = 0
 139              		@ frame_needed = 0, uses_anonymous_args = 0
 140              	.LVL6:
 141 0000 70B5     		push	{r4, r5, r6, lr}
 142              		.cfi_def_cfa_offset 16
 143              		.cfi_offset 4, -16
 144              		.cfi_offset 5, -12
 145              		.cfi_offset 6, -8
 146              		.cfi_offset 14, -4
 147 0002 0500     		movs	r5, r0
  46:IMU.c         ****     /* (M)ST | (M)SAD+W| (S)SAK | (M)SUB | (S)SAK | (M)SR | (M)SAD+R | (S)SAK | (S)DATA | (M)NMAK |
  47:IMU.c         ****     int32 Err1, Err2, Err3, Err4, Err5;
  48:IMU.c         ****     Err1 = I2C_1_I2CMasterSendStart(LIS3MDL_I2CADD, I2C_1_I2C_WRITE_XFER_MODE, 1000);     // (M)ST 
 148              		.loc 1 48 0
 149 0004 FA24     		movs	r4, #250
 150 0006 A400     		lsls	r4, r4, #2
 151 0008 2200     		movs	r2, r4
 152 000a 0021     		movs	r1, #0
 153 000c 1E20     		movs	r0, #30
 154              	.LVL7:
 155 000e FFF7FEFF 		bl	I2C_1_I2CMasterSendStart
 156              	.LVL8:
  49:IMU.c         ****     Err2 = I2C_1_I2CMasterWriteByte(LIS3MDL_REG_WHO_AM_I,1000);                           // (M) SU
 157              		.loc 1 49 0
 158 0012 2100     		movs	r1, r4
 159 0014 0F20     		movs	r0, #15
 160 0016 FFF7FEFF 		bl	I2C_1_I2CMasterWriteByte
 161              	.LVL9:
  50:IMU.c         ****     Err3 = I2C_1_I2CMasterSendRestart(LIS3MDL_I2CADD, I2C_1_I2C_READ_XFER_MODE, 1000);  // (M) SR |
 162              		.loc 1 50 0
 163 001a 2200     		movs	r2, r4
 164 001c 0121     		movs	r1, #1
 165 001e 1E20     		movs	r0, #30
 166 0020 FFF7FEFF 		bl	I2C_1_I2CMasterSendRestart
 167              	.LVL10:
  51:IMU.c         ****     Err4 = I2C_1_I2CMasterReadByte(I2C_1_I2C_NAK_DATA, rdPtr, 1000);                   // (S) DATA 
 168              		.loc 1 51 0
 169 0024 2200     		movs	r2, r4
 170 0026 2900     		movs	r1, r5
 171 0028 0120     		movs	r0, #1
 172 002a FFF7FEFF 		bl	I2C_1_I2CMasterReadByte
 173              	.LVL11:
  52:IMU.c         ****     Err5 = I2C_1_I2CMasterSendStop(100);                                                 // (M) SP
 174              		.loc 1 52 0
 175 002e 6420     		movs	r0, #100
 176 0030 FFF7FEFF 		bl	I2C_1_I2CMasterSendStop
ARM GAS  C:\Users\JamesH\AppData\Local\Temp\ccYo42jV.s 			page 5


 177              	.LVL12:
  53:IMU.c         ****     //char string[80]; sprintf(string, "\nErrors %ld %ld %ld %ld %ld ", Err1,Err2,Err3,Err4,Err5); 
  54:IMU.c         **** }
 178              		.loc 1 54 0
 179              		@ sp needed
 180              	.LVL13:
 181 0034 70BD     		pop	{r4, r5, r6, pc}
 182              		.cfi_endproc
 183              	.LFE39:
 184              		.size	LIS3MDL_ReadWhoAmIReg, .-LIS3MDL_ReadWhoAmIReg
 185 0036 C046     		.section	.text.LIS3MDL_ReadAxisRaw,"ax",%progbits
 186              		.align	2
 187              		.global	LIS3MDL_ReadAxisRaw
 188              		.code	16
 189              		.thumb_func
 190              		.type	LIS3MDL_ReadAxisRaw, %function
 191              	LIS3MDL_ReadAxisRaw:
 192              	.LFB40:
  55:IMU.c         **** 
  56:IMU.c         **** void LIS3MDL_ReadAxisRaw(uint8 * rdPtrL, uint8 * rdPtrH) {
 193              		.loc 1 56 0
 194              		.cfi_startproc
 195              		@ args = 0, pretend = 0, frame = 0
 196              		@ frame_needed = 0, uses_anonymous_args = 0
 197              	.LVL14:
 198 0000 70B5     		push	{r4, r5, r6, lr}
 199              		.cfi_def_cfa_offset 16
 200              		.cfi_offset 4, -16
 201              		.cfi_offset 5, -12
 202              		.cfi_offset 6, -8
 203              		.cfi_offset 14, -4
 204 0002 0600     		movs	r6, r0
 205 0004 0D00     		movs	r5, r1
  57:IMU.c         ****     /* (M)ST | (M)SAD+W| (S)SAK | (M)SUB | (S)SAK | (M)SR | (M)SAD+R | (S)SAK | (S)DATA | (M)MAK | 
  58:IMU.c         ****     int32 Err1, Err2, Err3, Err4, Err5, Err6;
  59:IMU.c         ****     Err1 = I2C_1_I2CMasterSendStart(LIS3MDL_I2CADD, I2C_1_I2C_WRITE_XFER_MODE, 1000);   // (M)ST | 
 206              		.loc 1 59 0
 207 0006 FA24     		movs	r4, #250
 208 0008 A400     		lsls	r4, r4, #2
 209 000a 2200     		movs	r2, r4
 210 000c 0021     		movs	r1, #0
 211              	.LVL15:
 212 000e 1E20     		movs	r0, #30
 213              	.LVL16:
 214 0010 FFF7FEFF 		bl	I2C_1_I2CMasterSendStart
 215              	.LVL17:
  60:IMU.c         ****     Err2 = I2C_1_I2CMasterWriteByte(LIS3MDL_REG_OUT_X_L,1000);                          // (M) SUB 
 216              		.loc 1 60 0
 217 0014 2100     		movs	r1, r4
 218 0016 2820     		movs	r0, #40
 219 0018 FFF7FEFF 		bl	I2C_1_I2CMasterWriteByte
 220              	.LVL18:
  61:IMU.c         ****     Err3 = I2C_1_I2CMasterSendRestart(LIS3MDL_I2CADD, I2C_1_I2C_READ_XFER_MODE, 1000);  // (M) SR |
 221              		.loc 1 61 0
 222 001c 2200     		movs	r2, r4
 223 001e 0121     		movs	r1, #1
 224 0020 1E20     		movs	r0, #30
ARM GAS  C:\Users\JamesH\AppData\Local\Temp\ccYo42jV.s 			page 6


 225 0022 FFF7FEFF 		bl	I2C_1_I2CMasterSendRestart
 226              	.LVL19:
  62:IMU.c         ****     Err4 = I2C_1_I2CMasterReadByte(I2C_1_I2C_ACK_DATA, rdPtrL, 1000);                   // (S) DATA
 227              		.loc 1 62 0
 228 0026 2200     		movs	r2, r4
 229 0028 3100     		movs	r1, r6
 230 002a 0020     		movs	r0, #0
 231 002c FFF7FEFF 		bl	I2C_1_I2CMasterReadByte
 232              	.LVL20:
  63:IMU.c         ****     Err5 = I2C_1_I2CMasterReadByte(I2C_1_I2C_NAK_DATA, rdPtrH, 1000);                // (S) DATA | 
 233              		.loc 1 63 0
 234 0030 2200     		movs	r2, r4
 235 0032 2900     		movs	r1, r5
 236 0034 0120     		movs	r0, #1
 237 0036 FFF7FEFF 		bl	I2C_1_I2CMasterReadByte
 238              	.LVL21:
  64:IMU.c         ****     Err6 = I2C_1_I2CMasterSendStop(100); 
 239              		.loc 1 64 0
 240 003a 6420     		movs	r0, #100
 241 003c FFF7FEFF 		bl	I2C_1_I2CMasterSendStop
 242              	.LVL22:
  65:IMU.c         ****     // char string[80]; sprintf(string, "Errors %ld %ld %ld %ld %ld %ld\t", Err1,Err2,Err3,Err4,Err
  66:IMU.c         ****     
  67:IMU.c         **** }
 243              		.loc 1 67 0
 244              		@ sp needed
 245              	.LVL23:
 246              	.LVL24:
 247 0040 70BD     		pop	{r4, r5, r6, pc}
 248              		.cfi_endproc
 249              	.LFE40:
 250              		.size	LIS3MDL_ReadAxisRaw, .-LIS3MDL_ReadAxisRaw
 251 0042 C046     		.section	.text.LIS3MDL_ReadAxisDeg,"ax",%progbits
 252              		.align	2
 253              		.global	LIS3MDL_ReadAxisDeg
 254              		.code	16
 255              		.thumb_func
 256              		.type	LIS3MDL_ReadAxisDeg, %function
 257              	LIS3MDL_ReadAxisDeg:
 258              	.LFB41:
  68:IMU.c         **** void LIS3MDL_ReadAxisDeg(uint16 * heading) {
 259              		.loc 1 68 0
 260              		.cfi_startproc
 261              		@ args = 0, pretend = 0, frame = 8
 262              		@ frame_needed = 0, uses_anonymous_args = 0
 263              	.LVL25:
 264 0000 F0B5     		push	{r4, r5, r6, r7, lr}
 265              		.cfi_def_cfa_offset 20
 266              		.cfi_offset 4, -20
 267              		.cfi_offset 5, -16
 268              		.cfi_offset 6, -12
 269              		.cfi_offset 7, -8
 270              		.cfi_offset 14, -4
 271 0002 83B0     		sub	sp, sp, #12
 272              		.cfi_def_cfa_offset 32
 273 0004 0700     		movs	r7, r0
  69:IMU.c         ****     /* (M)ST | (M)SAD+W| (S)SAK | (M)SUB | (S)SAK | (M)SR | (M)SAD+R | (S)SAK | (S)DATA | (M)MAK | 
ARM GAS  C:\Users\JamesH\AppData\Local\Temp\ccYo42jV.s 			page 7


  70:IMU.c         ****     int32 Err1, Err2, Err3, Err4, Err5, Err6;
  71:IMU.c         ****     Err1 = I2C_1_I2CMasterSendStart(LIS3MDL_I2CADD, I2C_1_I2C_WRITE_XFER_MODE, 1000);   // (M)ST | 
 274              		.loc 1 71 0
 275 0006 FA24     		movs	r4, #250
 276 0008 A400     		lsls	r4, r4, #2
 277 000a 2200     		movs	r2, r4
 278 000c 0021     		movs	r1, #0
 279 000e 1E20     		movs	r0, #30
 280              	.LVL26:
 281 0010 FFF7FEFF 		bl	I2C_1_I2CMasterSendStart
 282              	.LVL27:
  72:IMU.c         ****     Err2 = I2C_1_I2CMasterWriteByte(LIS3MDL_REG_OUT_X_L,1000);                          // (M) SUB 
 283              		.loc 1 72 0
 284 0014 2100     		movs	r1, r4
 285 0016 2820     		movs	r0, #40
 286 0018 FFF7FEFF 		bl	I2C_1_I2CMasterWriteByte
 287              	.LVL28:
  73:IMU.c         ****     Err3 = I2C_1_I2CMasterSendRestart(LIS3MDL_I2CADD, I2C_1_I2C_READ_XFER_MODE, 1000);  // (M) SR |
 288              		.loc 1 73 0
 289 001c 2200     		movs	r2, r4
 290 001e 0121     		movs	r1, #1
 291 0020 1E20     		movs	r0, #30
 292 0022 FFF7FEFF 		bl	I2C_1_I2CMasterSendRestart
 293              	.LVL29:
  74:IMU.c         ****     uint8 rdPtrL, rdPtrH;
  75:IMU.c         ****     Err4 = I2C_1_I2CMasterReadByte(I2C_1_I2C_ACK_DATA, &rdPtrL, 1000);                    // (S) DA
 294              		.loc 1 75 0
 295 0026 6B46     		mov	r3, sp
 296 0028 DD1D     		adds	r5, r3, #7
 297 002a 2200     		movs	r2, r4
 298 002c 2900     		movs	r1, r5
 299 002e 0020     		movs	r0, #0
 300 0030 FFF7FEFF 		bl	I2C_1_I2CMasterReadByte
 301              	.LVL30:
  76:IMU.c         ****     Err5 = I2C_1_I2CMasterReadByte(I2C_1_I2C_NAK_DATA, &rdPtrH, 1000);                    // (S) DA
 302              		.loc 1 76 0
 303 0034 6B46     		mov	r3, sp
 304 0036 9E1D     		adds	r6, r3, #6
 305 0038 2200     		movs	r2, r4
 306 003a 3100     		movs	r1, r6
 307 003c 0120     		movs	r0, #1
 308 003e FFF7FEFF 		bl	I2C_1_I2CMasterReadByte
 309              	.LVL31:
  77:IMU.c         ****     Err6 = I2C_1_I2CMasterSendStop(100); 
 310              		.loc 1 77 0
 311 0042 6420     		movs	r0, #100
 312 0044 FFF7FEFF 		bl	I2C_1_I2CMasterSendStop
 313              	.LVL32:
  78:IMU.c         ****     // char string[80]; sprintf(string, "Errors %ld %ld %ld %ld %ld %ld\t", Err1,Err2,Err3,Err4,Err
  79:IMU.c         ****     
  80:IMU.c         ****     uint8 rdPtrHS = rdPtrH;
 314              		.loc 1 80 0
 315 0048 3378     		ldrb	r3, [r6]
 316              	.LVL33:
  81:IMU.c         ****     uint8 rdPtrLS = rdPtrL;
 317              		.loc 1 81 0
 318 004a 2A78     		ldrb	r2, [r5]
ARM GAS  C:\Users\JamesH\AppData\Local\Temp\ccYo42jV.s 			page 8


 319              	.LVL34:
  82:IMU.c         ****     *heading = (uint16)rdPtrHS << 8 | rdPtrLS; 
 320              		.loc 1 82 0
 321 004c 1B02     		lsls	r3, r3, #8
 322              	.LVL35:
 323 004e 1343     		orrs	r3, r2
 324 0050 3B80     		strh	r3, [r7]
 325              	.LVL36:
  83:IMU.c         ****     // TO-DO: Calibration script for magnetometer
  84:IMU.c         **** }
 326              		.loc 1 84 0
 327 0052 03B0     		add	sp, sp, #12
 328              		@ sp needed
 329              	.LVL37:
 330 0054 F0BD     		pop	{r4, r5, r6, r7, pc}
 331              		.cfi_endproc
 332              	.LFE41:
 333              		.size	LIS3MDL_ReadAxisDeg, .-LIS3MDL_ReadAxisDeg
 334 0056 C046     		.section	.text.LIS3MDL_ReadCtrlReg,"ax",%progbits
 335              		.align	2
 336              		.global	LIS3MDL_ReadCtrlReg
 337              		.code	16
 338              		.thumb_func
 339              		.type	LIS3MDL_ReadCtrlReg, %function
 340              	LIS3MDL_ReadCtrlReg:
 341              	.LFB42:
  85:IMU.c         **** 
  86:IMU.c         **** void LIS3MDL_ReadCtrlReg(uint8 * CtrlReg1,uint8 * CtrlReg2, uint8 * CtrlReg3, uint8 * CtrlReg4) {
 342              		.loc 1 86 0
 343              		.cfi_startproc
 344              		@ args = 0, pretend = 0, frame = 96
 345              		@ frame_needed = 0, uses_anonymous_args = 0
 346              	.LVL38:
 347 0000 F0B5     		push	{r4, r5, r6, r7, lr}
 348              		.cfi_def_cfa_offset 20
 349              		.cfi_offset 4, -20
 350              		.cfi_offset 5, -16
 351              		.cfi_offset 6, -12
 352              		.cfi_offset 7, -8
 353              		.cfi_offset 14, -4
 354 0002 9DB0     		sub	sp, sp, #116
 355              		.cfi_def_cfa_offset 136
 356 0004 0700     		movs	r7, r0
 357 0006 0691     		str	r1, [sp, #24]
 358 0008 1500     		movs	r5, r2
 359 000a 0793     		str	r3, [sp, #28]
  87:IMU.c         ****     /* (M)ST | (M)SAD+W| (S)SAK | (M)SUB | (S)SAK | (M)SR | (M)SAD+R | (S)SAK | (S)DATA | (M)MAK | 
  88:IMU.c         ****     int32 Err1, Err2, Err3, Err4, Err5, Err6;
  89:IMU.c         ****     Err1 = I2C_1_I2CMasterSendStart(LIS3MDL_I2CADD, I2C_1_I2C_WRITE_XFER_MODE, 1000);   // (M)ST | 
 360              		.loc 1 89 0
 361 000c FA24     		movs	r4, #250
 362 000e A400     		lsls	r4, r4, #2
 363 0010 2200     		movs	r2, r4
 364              	.LVL39:
 365 0012 0021     		movs	r1, #0
 366              	.LVL40:
 367 0014 1E20     		movs	r0, #30
ARM GAS  C:\Users\JamesH\AppData\Local\Temp\ccYo42jV.s 			page 9


 368              	.LVL41:
 369 0016 FFF7FEFF 		bl	I2C_1_I2CMasterSendStart
 370              	.LVL42:
 371 001a 0490     		str	r0, [sp, #16]
 372              	.LVL43:
  90:IMU.c         ****     Err2 = I2C_1_I2CMasterWriteByte(LIS3MDL_REG_CTRL_REG1,1000);                          // (M) SU
 373              		.loc 1 90 0
 374 001c 2100     		movs	r1, r4
 375 001e 2020     		movs	r0, #32
 376              	.LVL44:
 377 0020 FFF7FEFF 		bl	I2C_1_I2CMasterWriteByte
 378              	.LVL45:
 379 0024 0590     		str	r0, [sp, #20]
 380              	.LVL46:
  91:IMU.c         ****     Err3 = I2C_1_I2CMasterSendRestart(LIS3MDL_I2CADD, I2C_1_I2C_READ_XFER_MODE, 1000);  // (M) SR |
 381              		.loc 1 91 0
 382 0026 2200     		movs	r2, r4
 383 0028 0121     		movs	r1, #1
 384 002a 1E20     		movs	r0, #30
 385              	.LVL47:
 386 002c FFF7FEFF 		bl	I2C_1_I2CMasterSendRestart
 387              	.LVL48:
 388 0030 0600     		movs	r6, r0
 389              	.LVL49:
  92:IMU.c         ****     Err4 = I2C_1_I2CMasterReadByte(I2C_1_I2C_ACK_DATA, CtrlReg1, 1000);                 // (S) DATA
 390              		.loc 1 92 0
 391 0032 2200     		movs	r2, r4
 392 0034 3900     		movs	r1, r7
 393 0036 0020     		movs	r0, #0
 394              	.LVL50:
 395 0038 FFF7FEFF 		bl	I2C_1_I2CMasterReadByte
 396              	.LVL51:
  93:IMU.c         ****     Err4 = I2C_1_I2CMasterReadByte(I2C_1_I2C_ACK_DATA, CtrlReg2, 1000);        
 397              		.loc 1 93 0
 398 003c 2200     		movs	r2, r4
 399 003e 0699     		ldr	r1, [sp, #24]
 400 0040 0020     		movs	r0, #0
 401 0042 FFF7FEFF 		bl	I2C_1_I2CMasterReadByte
 402              	.LVL52:
  94:IMU.c         ****     Err4 = I2C_1_I2CMasterReadByte(I2C_1_I2C_ACK_DATA, CtrlReg3, 1000);                 
 403              		.loc 1 94 0
 404 0046 2200     		movs	r2, r4
 405 0048 2900     		movs	r1, r5
 406 004a 0020     		movs	r0, #0
 407 004c FFF7FEFF 		bl	I2C_1_I2CMasterReadByte
 408              	.LVL53:
 409 0050 0500     		movs	r5, r0
 410              	.LVL54:
  95:IMU.c         ****     Err5 = I2C_1_I2CMasterReadByte(I2C_1_I2C_NAK_DATA, CtrlReg4, 1000);                 // (S) DATA
 411              		.loc 1 95 0
 412 0052 2200     		movs	r2, r4
 413 0054 0799     		ldr	r1, [sp, #28]
 414 0056 0120     		movs	r0, #1
 415              	.LVL55:
 416 0058 FFF7FEFF 		bl	I2C_1_I2CMasterReadByte
 417              	.LVL56:
 418 005c 0400     		movs	r4, r0
ARM GAS  C:\Users\JamesH\AppData\Local\Temp\ccYo42jV.s 			page 10


 419              	.LVL57:
  96:IMU.c         ****     Err6 = I2C_1_I2CMasterSendStop(100); 
 420              		.loc 1 96 0
 421 005e 6420     		movs	r0, #100
 422              	.LVL58:
 423 0060 FFF7FEFF 		bl	I2C_1_I2CMasterSendStop
 424              	.LVL59:
  97:IMU.c         ****     char string[80]; sprintf(string, "Errors %ld %ld %ld %ld %ld %ld\t", Err1,Err2,Err3,Err4,Err5,E
 425              		.loc 1 97 0
 426 0064 0390     		str	r0, [sp, #12]
 427 0066 0294     		str	r4, [sp, #8]
 428 0068 0195     		str	r5, [sp, #4]
 429 006a 0096     		str	r6, [sp]
 430 006c 059B     		ldr	r3, [sp, #20]
 431 006e 049A     		ldr	r2, [sp, #16]
 432 0070 0449     		ldr	r1, .L9
 433 0072 08A8     		add	r0, sp, #32
 434              	.LVL60:
 435 0074 FFF7FEFF 		bl	sprintf
 436              	.LVL61:
 437 0078 08A8     		add	r0, sp, #32
 438 007a FFF7FEFF 		bl	UART_PutString
 439              	.LVL62:
  98:IMU.c         **** }
 440              		.loc 1 98 0
 441 007e 1DB0     		add	sp, sp, #116
 442              		@ sp needed
 443              	.LVL63:
 444              	.LVL64:
 445              	.LVL65:
 446              	.LVL66:
 447 0080 F0BD     		pop	{r4, r5, r6, r7, pc}
 448              	.L10:
 449 0082 C046     		.align	2
 450              	.L9:
 451 0084 00000000 		.word	.LC0
 452              		.cfi_endproc
 453              	.LFE42:
 454              		.size	LIS3MDL_ReadCtrlReg, .-LIS3MDL_ReadCtrlReg
 455              		.section	.text.LSM6DS3_Begin,"ax",%progbits
 456              		.align	2
 457              		.global	LSM6DS3_Begin
 458              		.code	16
 459              		.thumb_func
 460              		.type	LSM6DS3_Begin, %function
 461              	LSM6DS3_Begin:
 462              	.LFB43:
  99:IMU.c         **** 
 100:IMU.c         **** /////// Accelerometer and Gyrometer //////
 101:IMU.c         **** // Gyrometer is unlikely to be that useful for us, so we focus on the accelerometer
 102:IMU.c         **** void LSM6DS3_Begin() {
 463              		.loc 1 102 0
 464              		.cfi_startproc
 465              		@ args = 0, pretend = 0, frame = 0
 466              		@ frame_needed = 0, uses_anonymous_args = 0
 467 0000 10B5     		push	{r4, lr}
 468              		.cfi_def_cfa_offset 8
ARM GAS  C:\Users\JamesH\AppData\Local\Temp\ccYo42jV.s 			page 11


 469              		.cfi_offset 4, -8
 470              		.cfi_offset 14, -4
 103:IMU.c         ****     int32 Err1, Err2, Err3, Err4, Err5;
 104:IMU.c         ****     uint8 rdBfr;
 105:IMU.c         ****     
 106:IMU.c         ****     I2C_1_Start(); //Enable I2C In PSOC
 471              		.loc 1 106 0
 472 0002 FFF7FEFF 		bl	I2C_1_Start
 473              	.LVL67:
 107:IMU.c         ****     
 108:IMU.c         ****     // TO-DO: Pre start up calibration, MUST BE PERFORMED IN POWER DOWN MODE
 109:IMU.c         ****     /*I2C_1_I2CMasterSendStart(LSM6DS3_I2CADD,I2C_1_I2C_WRITE_XFER_MODE,100);    // Initialize a tr
 110:IMU.c         ****     I2C_1_I2CMasterWriteByte(LSM6DS3_REG_CTRL1_XL,100);                       // Indicate which reg
 111:IMU.c         ****     I2C_1_I2CMasterWriteByte(0x00,100);                                        // Write to register
 112:IMU.c         ****     I2C_1_I2CMasterSendStop(100);                                                 // End of transac
 113:IMU.c         ****     // Write to FUNC_CFG_ACCESS to allow access to embedded registers
 114:IMU.c         ****     I2C_1_I2CMasterSendStart(LSM6DS3_I2CADD,I2C_1_I2C_WRITE_XFER_MODE,100);    // Initialize a tran
 115:IMU.c         ****     I2C_1_I2CMasterWriteByte(0x01,100);                       // Indicate which register you want t
 116:IMU.c         ****     I2C_1_I2CMasterWriteByte(0x80,100);                                        // Write to register
 117:IMU.c         ****     I2C_1_I2CMasterSendStop(100); 
 118:IMU.c         ****     // Write to change magnitude offset register
 119:IMU.c         ****     I2C_1_I2CMasterSendStart(LSM6DS3_I2CADD,I2C_1_I2C_WRITE_XFER_MODE,100);    // Initialize a tran
 120:IMU.c         ****     I2C_1_I2CMasterWriteByte(0x2D,100);                       // Indicate which register you want t
 121:IMU.c         ****     I2C_1_I2CMasterWriteByte(0xAA,100);
 122:IMU.c         ****     I2C_1_I2CMasterWriteByte(0xAA,100);                                        // Write to register
 123:IMU.c         ****     I2C_1_I2CMasterSendStop(100); 
 124:IMU.c         ****     // Write to FUNC_CFG_ACCESS to disallow access to embedded registers
 125:IMU.c         ****     I2C_1_I2CMasterSendStart(LSM6DS3_I2CADD,I2C_1_I2C_WRITE_XFER_MODE,100);    // Initialize a tran
 126:IMU.c         ****     I2C_1_I2CMasterWriteByte(0x01,100);                       // Indicate which register you want t
 127:IMU.c         ****     I2C_1_I2CMasterWriteByte(0x00,100);                                        // Write to register
 128:IMU.c         ****     I2C_1_I2CMasterSendStop(100); 
 129:IMU.c         ****         //Enable embedded register functions/filters
 130:IMU.c         ****     I2C_1_I2CMasterSendStart(LSM6DS3_I2CADD,I2C_1_I2C_WRITE_XFER_MODE,100);    // Initialize a tran
 131:IMU.c         ****     I2C_1_I2CMasterWriteByte(LSM6DS3_REG_CTRL10_C,100);                       // Indicate which reg
 132:IMU.c         ****     I2C_1_I2CMasterWriteByte(0x3C,100);                                        // Write to register
 133:IMU.c         ****     I2C_1_I2CMasterSendStop(100);
 134:IMU.c         ****     // Enable hard-iron compensation in MASTER_CONFIG
 135:IMU.c         ****     I2C_1_I2CMasterSendStart(LSM6DS3_I2CADD,I2C_1_I2C_WRITE_XFER_MODE,100);    // Initialize a tran
 136:IMU.c         ****     I2C_1_I2CMasterWriteByte(LSM6DS3_REG_MASTER_CONFIG,100);                       // Indicate whic
 137:IMU.c         ****     I2C_1_I2CMasterWriteByte(0x02,100);                                        // Write to register
 138:IMU.c         ****     I2C_1_I2CMasterSendStop(100);*/
 139:IMU.c         **** 
 140:IMU.c         ****     
 141:IMU.c         ****     // Enable Data conversion in magnetometer by setting Control register 1 to continuous conversio
 142:IMU.c         ****     I2C_1_I2CMasterSendStart(LSM6DS3_I2CADD,I2C_1_I2C_WRITE_XFER_MODE,100);    // Initialize a tran
 474              		.loc 1 142 0
 475 0006 6422     		movs	r2, #100
 476 0008 0021     		movs	r1, #0
 477 000a 6A20     		movs	r0, #106
 478 000c FFF7FEFF 		bl	I2C_1_I2CMasterSendStart
 479              	.LVL68:
 143:IMU.c         ****     I2C_1_I2CMasterWriteByte(LSM6DS3_REG_CTRL1_XL,100);                       // Indicate which reg
 480              		.loc 1 143 0
 481 0010 6421     		movs	r1, #100
 482 0012 1020     		movs	r0, #16
 483 0014 FFF7FEFF 		bl	I2C_1_I2CMasterWriteByte
 484              	.LVL69:
ARM GAS  C:\Users\JamesH\AppData\Local\Temp\ccYo42jV.s 			page 12


 144:IMU.c         ****     I2C_1_I2CMasterWriteByte(0x50,100);                                        // Write to register
 485              		.loc 1 144 0
 486 0018 6421     		movs	r1, #100
 487 001a 5020     		movs	r0, #80
 488 001c FFF7FEFF 		bl	I2C_1_I2CMasterWriteByte
 489              	.LVL70:
 145:IMU.c         ****     I2C_1_I2CMasterSendStop(100);                    // End of transaction */
 490              		.loc 1 145 0
 491 0020 6420     		movs	r0, #100
 492 0022 FFF7FEFF 		bl	I2C_1_I2CMasterSendStop
 493              	.LVL71:
 146:IMU.c         **** }
 494              		.loc 1 146 0
 495              		@ sp needed
 496 0026 10BD     		pop	{r4, pc}
 497              		.cfi_endproc
 498              	.LFE43:
 499              		.size	LSM6DS3_Begin, .-LSM6DS3_Begin
 500              		.section	.text.LSM6DS3_ReadWhoAmIReg,"ax",%progbits
 501              		.align	2
 502              		.global	LSM6DS3_ReadWhoAmIReg
 503              		.code	16
 504              		.thumb_func
 505              		.type	LSM6DS3_ReadWhoAmIReg, %function
 506              	LSM6DS3_ReadWhoAmIReg:
 507              	.LFB44:
 147:IMU.c         **** void LSM6DS3_ReadWhoAmIReg(uint8 * rdPtr) {
 508              		.loc 1 147 0
 509              		.cfi_startproc
 510              		@ args = 0, pretend = 0, frame = 88
 511              		@ frame_needed = 0, uses_anonymous_args = 0
 512              	.LVL72:
 513 0000 F0B5     		push	{r4, r5, r6, r7, lr}
 514              		.cfi_def_cfa_offset 20
 515              		.cfi_offset 4, -20
 516              		.cfi_offset 5, -16
 517              		.cfi_offset 6, -12
 518              		.cfi_offset 7, -8
 519              		.cfi_offset 14, -4
 520 0002 9BB0     		sub	sp, sp, #108
 521              		.cfi_def_cfa_offset 128
 522 0004 0700     		movs	r7, r0
 148:IMU.c         ****     /* (M)ST | (M)SAD+W| (S)SAK | (M)SUB | (S)SAK | (M)SR | (M)SAD+R | (S)SAK | (S)DATA | (M)NMAK |
 149:IMU.c         ****     int32 Err1, Err2, Err3, Err4, Err5;
 150:IMU.c         ****     Err1 = I2C_1_I2CMasterSendStart(LSM6DS3_I2CADD, I2C_1_I2C_WRITE_XFER_MODE, 1000);     // (M)ST 
 523              		.loc 1 150 0
 524 0006 FA24     		movs	r4, #250
 525 0008 A400     		lsls	r4, r4, #2
 526 000a 2200     		movs	r2, r4
 527 000c 0021     		movs	r1, #0
 528 000e 6A20     		movs	r0, #106
 529              	.LVL73:
 530 0010 FFF7FEFF 		bl	I2C_1_I2CMasterSendStart
 531              	.LVL74:
 532 0014 0590     		str	r0, [sp, #20]
 533              	.LVL75:
 151:IMU.c         ****     Err2 = I2C_1_I2CMasterWriteByte(LSM6DS3_REG_WHO_AM_I,1000);                           // (M) SU
ARM GAS  C:\Users\JamesH\AppData\Local\Temp\ccYo42jV.s 			page 13


 534              		.loc 1 151 0
 535 0016 2100     		movs	r1, r4
 536 0018 0F20     		movs	r0, #15
 537              	.LVL76:
 538 001a FFF7FEFF 		bl	I2C_1_I2CMasterWriteByte
 539              	.LVL77:
 540 001e 0600     		movs	r6, r0
 541              	.LVL78:
 152:IMU.c         ****     Err3 = I2C_1_I2CMasterSendRestart(LSM6DS3_I2CADD, I2C_1_I2C_READ_XFER_MODE, 1000);  // (M) SR |
 542              		.loc 1 152 0
 543 0020 2200     		movs	r2, r4
 544 0022 0121     		movs	r1, #1
 545 0024 6A20     		movs	r0, #106
 546              	.LVL79:
 547 0026 FFF7FEFF 		bl	I2C_1_I2CMasterSendRestart
 548              	.LVL80:
 549 002a 0500     		movs	r5, r0
 550              	.LVL81:
 153:IMU.c         ****     Err4 = I2C_1_I2CMasterReadByte(I2C_1_I2C_NAK_DATA, rdPtr, 1000);                   // (S) DATA 
 551              		.loc 1 153 0
 552 002c 2200     		movs	r2, r4
 553 002e 3900     		movs	r1, r7
 554 0030 0120     		movs	r0, #1
 555              	.LVL82:
 556 0032 FFF7FEFF 		bl	I2C_1_I2CMasterReadByte
 557              	.LVL83:
 558 0036 0400     		movs	r4, r0
 559              	.LVL84:
 154:IMU.c         ****     Err5 = I2C_1_I2CMasterSendStop(100);                                                 // (M) SP
 560              		.loc 1 154 0
 561 0038 6420     		movs	r0, #100
 562              	.LVL85:
 563 003a FFF7FEFF 		bl	I2C_1_I2CMasterSendStop
 564              	.LVL86:
 155:IMU.c         ****     char string[80]; sprintf(string, "\nErrors %ld %ld %ld %ld %ld ", Err1,Err2,Err3,Err4,Err5); UA
 565              		.loc 1 155 0
 566 003e 0290     		str	r0, [sp, #8]
 567 0040 0194     		str	r4, [sp, #4]
 568 0042 0095     		str	r5, [sp]
 569 0044 3300     		movs	r3, r6
 570 0046 059A     		ldr	r2, [sp, #20]
 571 0048 0449     		ldr	r1, .L13
 572 004a 06A8     		add	r0, sp, #24
 573              	.LVL87:
 574 004c FFF7FEFF 		bl	sprintf
 575              	.LVL88:
 576 0050 06A8     		add	r0, sp, #24
 577 0052 FFF7FEFF 		bl	UART_PutString
 578              	.LVL89:
 156:IMU.c         **** }
 579              		.loc 1 156 0
 580 0056 1BB0     		add	sp, sp, #108
 581              		@ sp needed
 582              	.LVL90:
 583              	.LVL91:
 584              	.LVL92:
 585              	.LVL93:
ARM GAS  C:\Users\JamesH\AppData\Local\Temp\ccYo42jV.s 			page 14


 586 0058 F0BD     		pop	{r4, r5, r6, r7, pc}
 587              	.L14:
 588 005a C046     		.align	2
 589              	.L13:
 590 005c 20000000 		.word	.LC2
 591              		.cfi_endproc
 592              	.LFE44:
 593              		.size	LSM6DS3_ReadWhoAmIReg, .-LSM6DS3_ReadWhoAmIReg
 594              		.section	.text.LSM6DS3_ReadAxisRaw,"ax",%progbits
 595              		.align	2
 596              		.global	LSM6DS3_ReadAxisRaw
 597              		.code	16
 598              		.thumb_func
 599              		.type	LSM6DS3_ReadAxisRaw, %function
 600              	LSM6DS3_ReadAxisRaw:
 601              	.LFB45:
 157:IMU.c         **** 
 158:IMU.c         **** void LSM6DS3_ReadAxisRaw(uint8 * rdPtrL, uint8 * rdPtrH) {
 602              		.loc 1 158 0
 603              		.cfi_startproc
 604              		@ args = 0, pretend = 0, frame = 0
 605              		@ frame_needed = 0, uses_anonymous_args = 0
 606              	.LVL94:
 607 0000 70B5     		push	{r4, r5, r6, lr}
 608              		.cfi_def_cfa_offset 16
 609              		.cfi_offset 4, -16
 610              		.cfi_offset 5, -12
 611              		.cfi_offset 6, -8
 612              		.cfi_offset 14, -4
 613 0002 0600     		movs	r6, r0
 614 0004 0D00     		movs	r5, r1
 159:IMU.c         ****     /* (M)ST | (M)SAD+W| (S)SAK | (M)SUB | (S)SAK | (M)SR | (M)SAD+R | (S)SAK | (S)DATA | (M)MAK | 
 160:IMU.c         ****     int32 Err1, Err2, Err3, Err4, Err5, Err6;
 161:IMU.c         ****     Err1 = I2C_1_I2CMasterSendStart(LSM6DS3_I2CADD, I2C_1_I2C_WRITE_XFER_MODE, 1000);   // (M)ST | 
 615              		.loc 1 161 0
 616 0006 FA24     		movs	r4, #250
 617 0008 A400     		lsls	r4, r4, #2
 618 000a 2200     		movs	r2, r4
 619 000c 0021     		movs	r1, #0
 620              	.LVL95:
 621 000e 6A20     		movs	r0, #106
 622              	.LVL96:
 623 0010 FFF7FEFF 		bl	I2C_1_I2CMasterSendStart
 624              	.LVL97:
 162:IMU.c         ****     Err2 = I2C_1_I2CMasterWriteByte(LSM6DS3_REG_OUTX_H_XL,1000);                          // (M) SU
 625              		.loc 1 162 0
 626 0014 2100     		movs	r1, r4
 627 0016 2920     		movs	r0, #41
 628 0018 FFF7FEFF 		bl	I2C_1_I2CMasterWriteByte
 629              	.LVL98:
 163:IMU.c         ****     Err3 = I2C_1_I2CMasterSendRestart(LSM6DS3_I2CADD, I2C_1_I2C_READ_XFER_MODE, 1000);  // (M) SR |
 630              		.loc 1 163 0
 631 001c 2200     		movs	r2, r4
 632 001e 0121     		movs	r1, #1
 633 0020 6A20     		movs	r0, #106
 634 0022 FFF7FEFF 		bl	I2C_1_I2CMasterSendRestart
 635              	.LVL99:
ARM GAS  C:\Users\JamesH\AppData\Local\Temp\ccYo42jV.s 			page 15


 164:IMU.c         ****     Err4 = I2C_1_I2CMasterReadByte(I2C_1_I2C_ACK_DATA, rdPtrL, 1000);                   // (S) DATA
 636              		.loc 1 164 0
 637 0026 2200     		movs	r2, r4
 638 0028 3100     		movs	r1, r6
 639 002a 0020     		movs	r0, #0
 640 002c FFF7FEFF 		bl	I2C_1_I2CMasterReadByte
 641              	.LVL100:
 165:IMU.c         ****     Err5 = I2C_1_I2CMasterReadByte(I2C_1_I2C_NAK_DATA, rdPtrH, 1000);                // (S) DATA | 
 642              		.loc 1 165 0
 643 0030 2200     		movs	r2, r4
 644 0032 2900     		movs	r1, r5
 645 0034 0120     		movs	r0, #1
 646 0036 FFF7FEFF 		bl	I2C_1_I2CMasterReadByte
 647              	.LVL101:
 166:IMU.c         ****     Err6 = I2C_1_I2CMasterSendStop(100); 
 648              		.loc 1 166 0
 649 003a 6420     		movs	r0, #100
 650 003c FFF7FEFF 		bl	I2C_1_I2CMasterSendStop
 651              	.LVL102:
 167:IMU.c         ****     // char string[80]; sprintf(string, "Errors %ld %ld %ld %ld %ld %ld\t", Err1,Err2,Err3,Err4,Err
 168:IMU.c         ****     
 169:IMU.c         **** }
 652              		.loc 1 169 0
 653              		@ sp needed
 654              	.LVL103:
 655              	.LVL104:
 656 0040 70BD     		pop	{r4, r5, r6, pc}
 657              		.cfi_endproc
 658              	.LFE45:
 659              		.size	LSM6DS3_ReadAxisRaw, .-LSM6DS3_ReadAxisRaw
 660 0042 C046     		.section	.text.LSM6DS3_ReadAxisDeg,"ax",%progbits
 661              		.align	2
 662              		.global	LSM6DS3_ReadAxisDeg
 663              		.code	16
 664              		.thumb_func
 665              		.type	LSM6DS3_ReadAxisDeg, %function
 666              	LSM6DS3_ReadAxisDeg:
 667              	.LFB46:
 170:IMU.c         **** void LSM6DS3_ReadAxisDeg(uint16 * heading) {
 668              		.loc 1 170 0
 669              		.cfi_startproc
 670              		@ args = 0, pretend = 0, frame = 8
 671              		@ frame_needed = 0, uses_anonymous_args = 0
 672              	.LVL105:
 673 0000 F0B5     		push	{r4, r5, r6, r7, lr}
 674              		.cfi_def_cfa_offset 20
 675              		.cfi_offset 4, -20
 676              		.cfi_offset 5, -16
 677              		.cfi_offset 6, -12
 678              		.cfi_offset 7, -8
 679              		.cfi_offset 14, -4
 680 0002 83B0     		sub	sp, sp, #12
 681              		.cfi_def_cfa_offset 32
 682 0004 0700     		movs	r7, r0
 171:IMU.c         ****     /* (M)ST | (M)SAD+W| (S)SAK | (M)SUB | (S)SAK | (M)SR | (M)SAD+R | (S)SAK | (S)DATA | (M)MAK | 
 172:IMU.c         ****     int32 Err1, Err2, Err3, Err4, Err5, Err6;
 173:IMU.c         ****     Err1 = I2C_1_I2CMasterSendStart(LIS3MDL_I2CADD, I2C_1_I2C_WRITE_XFER_MODE, 1000);   // (M)ST | 
ARM GAS  C:\Users\JamesH\AppData\Local\Temp\ccYo42jV.s 			page 16


 683              		.loc 1 173 0
 684 0006 FA24     		movs	r4, #250
 685 0008 A400     		lsls	r4, r4, #2
 686 000a 2200     		movs	r2, r4
 687 000c 0021     		movs	r1, #0
 688 000e 1E20     		movs	r0, #30
 689              	.LVL106:
 690 0010 FFF7FEFF 		bl	I2C_1_I2CMasterSendStart
 691              	.LVL107:
 174:IMU.c         ****     Err2 = I2C_1_I2CMasterWriteByte(LIS3MDL_REG_OUT_X_L,1000);                          // (M) SUB 
 692              		.loc 1 174 0
 693 0014 2100     		movs	r1, r4
 694 0016 2820     		movs	r0, #40
 695 0018 FFF7FEFF 		bl	I2C_1_I2CMasterWriteByte
 696              	.LVL108:
 175:IMU.c         ****     Err3 = I2C_1_I2CMasterSendRestart(LIS3MDL_I2CADD, I2C_1_I2C_READ_XFER_MODE, 1000);  // (M) SR |
 697              		.loc 1 175 0
 698 001c 2200     		movs	r2, r4
 699 001e 0121     		movs	r1, #1
 700 0020 1E20     		movs	r0, #30
 701 0022 FFF7FEFF 		bl	I2C_1_I2CMasterSendRestart
 702              	.LVL109:
 176:IMU.c         ****     uint8 rdPtrL, rdPtrH;
 177:IMU.c         ****     Err4 = I2C_1_I2CMasterReadByte(I2C_1_I2C_ACK_DATA, &rdPtrL, 1000);                    // (S) DA
 703              		.loc 1 177 0
 704 0026 6B46     		mov	r3, sp
 705 0028 DD1D     		adds	r5, r3, #7
 706 002a 2200     		movs	r2, r4
 707 002c 2900     		movs	r1, r5
 708 002e 0020     		movs	r0, #0
 709 0030 FFF7FEFF 		bl	I2C_1_I2CMasterReadByte
 710              	.LVL110:
 178:IMU.c         ****     Err5 = I2C_1_I2CMasterReadByte(I2C_1_I2C_NAK_DATA, &rdPtrH, 1000);                    // (S) DA
 711              		.loc 1 178 0
 712 0034 6B46     		mov	r3, sp
 713 0036 9E1D     		adds	r6, r3, #6
 714 0038 2200     		movs	r2, r4
 715 003a 3100     		movs	r1, r6
 716 003c 0120     		movs	r0, #1
 717 003e FFF7FEFF 		bl	I2C_1_I2CMasterReadByte
 718              	.LVL111:
 179:IMU.c         ****     Err6 = I2C_1_I2CMasterSendStop(100); 
 719              		.loc 1 179 0
 720 0042 6420     		movs	r0, #100
 721 0044 FFF7FEFF 		bl	I2C_1_I2CMasterSendStop
 722              	.LVL112:
 180:IMU.c         ****     // char string[80]; sprintf(string, "Errors %ld %ld %ld %ld %ld %ld\t", Err1,Err2,Err3,Err4,Err
 181:IMU.c         ****     
 182:IMU.c         ****     uint8 rdPtrHS = rdPtrH;
 723              		.loc 1 182 0
 724 0048 3378     		ldrb	r3, [r6]
 725              	.LVL113:
 183:IMU.c         ****     uint8 rdPtrLS = rdPtrL;
 726              		.loc 1 183 0
 727 004a 2A78     		ldrb	r2, [r5]
 728              	.LVL114:
 184:IMU.c         ****     *heading = (uint16)rdPtrHS << 8 | rdPtrLS; 
ARM GAS  C:\Users\JamesH\AppData\Local\Temp\ccYo42jV.s 			page 17


 729              		.loc 1 184 0
 730 004c 1B02     		lsls	r3, r3, #8
 731              	.LVL115:
 732 004e 1343     		orrs	r3, r2
 733 0050 3B80     		strh	r3, [r7]
 734              	.LVL116:
 185:IMU.c         ****     // Convert this heading to degrees.
 186:IMU.c         ****     // TO-DO: Calibration script for magnetometer
 187:IMU.c         **** }
 735              		.loc 1 187 0
 736 0052 03B0     		add	sp, sp, #12
 737              		@ sp needed
 738              	.LVL117:
 739 0054 F0BD     		pop	{r4, r5, r6, r7, pc}
 740              		.cfi_endproc
 741              	.LFE46:
 742              		.size	LSM6DS3_ReadAxisDeg, .-LSM6DS3_ReadAxisDeg
 743 0056 C046     		.section	.text.LSM6DS3_ReadCtrlReg,"ax",%progbits
 744              		.align	2
 745              		.global	LSM6DS3_ReadCtrlReg
 746              		.code	16
 747              		.thumb_func
 748              		.type	LSM6DS3_ReadCtrlReg, %function
 749              	LSM6DS3_ReadCtrlReg:
 750              	.LFB47:
 188:IMU.c         **** 
 189:IMU.c         **** void LSM6DS3_ReadCtrlReg(uint8 CtrlReg[10]) {
 751              		.loc 1 189 0
 752              		.cfi_startproc
 753              		@ args = 0, pretend = 0, frame = 0
 754              		@ frame_needed = 0, uses_anonymous_args = 0
 755              	.LVL118:
 756 0000 70B5     		push	{r4, r5, r6, lr}
 757              		.cfi_def_cfa_offset 16
 758              		.cfi_offset 4, -16
 759              		.cfi_offset 5, -12
 760              		.cfi_offset 6, -8
 761              		.cfi_offset 14, -4
 762 0002 0500     		movs	r5, r0
 190:IMU.c         ****     /* (M)ST | (M)SAD+W| (S)SAK | (M)SUB | (S)SAK | (M)SR | (M)SAD+R | (S)SAK | (S)DATA | (M)MAK | 
 191:IMU.c         ****     I2C_1_I2CMasterSendStart(LSM6DS3_I2CADD, I2C_1_I2C_WRITE_XFER_MODE, 1000);   // (M)ST | (M) SAD
 763              		.loc 1 191 0
 764 0004 FA24     		movs	r4, #250
 765 0006 A400     		lsls	r4, r4, #2
 766 0008 2200     		movs	r2, r4
 767 000a 0021     		movs	r1, #0
 768 000c 6A20     		movs	r0, #106
 769              	.LVL119:
 770 000e FFF7FEFF 		bl	I2C_1_I2CMasterSendStart
 771              	.LVL120:
 192:IMU.c         ****     I2C_1_I2CMasterWriteByte(LSM6DS3_REG_CTRL1_XL,1000); //(M) SUB | (S) SAK         
 772              		.loc 1 192 0
 773 0012 2100     		movs	r1, r4
 774 0014 1020     		movs	r0, #16
 775 0016 FFF7FEFF 		bl	I2C_1_I2CMasterWriteByte
 776              	.LVL121:
 193:IMU.c         ****     I2C_1_I2CMasterSendRestart(LSM6DS3_I2CADD, I2C_1_I2C_READ_XFER_MODE, 1000);  // (M) SR | (M) SA
ARM GAS  C:\Users\JamesH\AppData\Local\Temp\ccYo42jV.s 			page 18


 777              		.loc 1 193 0
 778 001a 2200     		movs	r2, r4
 779 001c 0121     		movs	r1, #1
 780 001e 6A20     		movs	r0, #106
 781 0020 FFF7FEFF 		bl	I2C_1_I2CMasterSendRestart
 782              	.LVL122:
 194:IMU.c         ****     I2C_1_I2CMasterReadByte(I2C_1_I2C_ACK_DATA, &CtrlReg[0], 1000);                 // (S) DATA | (
 783              		.loc 1 194 0
 784 0024 2200     		movs	r2, r4
 785 0026 2900     		movs	r1, r5
 786 0028 0020     		movs	r0, #0
 787 002a FFF7FEFF 		bl	I2C_1_I2CMasterReadByte
 788              	.LVL123:
 195:IMU.c         ****     I2C_1_I2CMasterReadByte(I2C_1_I2C_ACK_DATA, &CtrlReg[1], 1000);        
 789              		.loc 1 195 0
 790 002e 691C     		adds	r1, r5, #1
 791 0030 2200     		movs	r2, r4
 792 0032 0020     		movs	r0, #0
 793 0034 FFF7FEFF 		bl	I2C_1_I2CMasterReadByte
 794              	.LVL124:
 196:IMU.c         ****     I2C_1_I2CMasterReadByte(I2C_1_I2C_ACK_DATA, &CtrlReg[2], 1000);
 795              		.loc 1 196 0
 796 0038 A91C     		adds	r1, r5, #2
 797 003a 2200     		movs	r2, r4
 798 003c 0020     		movs	r0, #0
 799 003e FFF7FEFF 		bl	I2C_1_I2CMasterReadByte
 800              	.LVL125:
 197:IMU.c         ****     I2C_1_I2CMasterReadByte(I2C_1_I2C_ACK_DATA, &CtrlReg[3], 1000);                 
 801              		.loc 1 197 0
 802 0042 E91C     		adds	r1, r5, #3
 803 0044 2200     		movs	r2, r4
 804 0046 0020     		movs	r0, #0
 805 0048 FFF7FEFF 		bl	I2C_1_I2CMasterReadByte
 806              	.LVL126:
 198:IMU.c         ****     I2C_1_I2CMasterReadByte(I2C_1_I2C_ACK_DATA, &CtrlReg[4], 1000);        
 807              		.loc 1 198 0
 808 004c 291D     		adds	r1, r5, #4
 809 004e 2200     		movs	r2, r4
 810 0050 0020     		movs	r0, #0
 811 0052 FFF7FEFF 		bl	I2C_1_I2CMasterReadByte
 812              	.LVL127:
 199:IMU.c         ****     I2C_1_I2CMasterReadByte(I2C_1_I2C_ACK_DATA, &CtrlReg[5], 1000);
 813              		.loc 1 199 0
 814 0056 691D     		adds	r1, r5, #5
 815 0058 2200     		movs	r2, r4
 816 005a 0020     		movs	r0, #0
 817 005c FFF7FEFF 		bl	I2C_1_I2CMasterReadByte
 818              	.LVL128:
 200:IMU.c         ****     I2C_1_I2CMasterReadByte(I2C_1_I2C_ACK_DATA, &CtrlReg[6], 1000);                 
 819              		.loc 1 200 0
 820 0060 A91D     		adds	r1, r5, #6
 821 0062 2200     		movs	r2, r4
 822 0064 0020     		movs	r0, #0
 823 0066 FFF7FEFF 		bl	I2C_1_I2CMasterReadByte
 824              	.LVL129:
 201:IMU.c         ****     I2C_1_I2CMasterReadByte(I2C_1_I2C_ACK_DATA, &CtrlReg[7], 1000);        
 825              		.loc 1 201 0
ARM GAS  C:\Users\JamesH\AppData\Local\Temp\ccYo42jV.s 			page 19


 826 006a E91D     		adds	r1, r5, #7
 827 006c 2200     		movs	r2, r4
 828 006e 0020     		movs	r0, #0
 829 0070 FFF7FEFF 		bl	I2C_1_I2CMasterReadByte
 830              	.LVL130:
 202:IMU.c         ****     I2C_1_I2CMasterReadByte(I2C_1_I2C_ACK_DATA, &CtrlReg[8], 1000);
 831              		.loc 1 202 0
 832 0074 2900     		movs	r1, r5
 833 0076 0831     		adds	r1, r1, #8
 834 0078 2200     		movs	r2, r4
 835 007a 0020     		movs	r0, #0
 836 007c FFF7FEFF 		bl	I2C_1_I2CMasterReadByte
 837              	.LVL131:
 203:IMU.c         ****     I2C_1_I2CMasterReadByte(I2C_1_I2C_NAK_DATA, &CtrlReg[9], 1000);                 // (S) DATA | (
 838              		.loc 1 203 0
 839 0080 2900     		movs	r1, r5
 840 0082 0931     		adds	r1, r1, #9
 841 0084 2200     		movs	r2, r4
 842 0086 0120     		movs	r0, #1
 843 0088 FFF7FEFF 		bl	I2C_1_I2CMasterReadByte
 844              	.LVL132:
 204:IMU.c         ****     I2C_1_I2CMasterSendStop(100); 
 845              		.loc 1 204 0
 846 008c 6420     		movs	r0, #100
 847 008e FFF7FEFF 		bl	I2C_1_I2CMasterSendStop
 848              	.LVL133:
 205:IMU.c         ****     //char string[80]; sprintf(string, "Errors %ld %ld %ld %ld %ld %ld\t", Err1,Err2,Err3,Err4,Err5
 206:IMU.c         **** }...
 849              		.loc 1 206 0
 850              		@ sp needed
 851              	.LVL134:
 852 0092 70BD     		pop	{r4, r5, r6, pc}
 853              		.cfi_endproc
 854              	.LFE47:
 855              		.size	LSM6DS3_ReadCtrlReg, .-LSM6DS3_ReadCtrlReg
 856              		.section	.rodata.str1.4,"aMS",%progbits,1
 857              		.align	2
 858              	.LC0:
 859 0000 4572726F 		.ascii	"Errors %ld %ld %ld %ld %ld %ld\011\000"
 859      72732025 
 859      6C642025 
 859      6C642025 
 859      6C642025 
 860              	.LC2:
 861 0020 0A457272 		.ascii	"\012Errors %ld %ld %ld %ld %ld \000"
 861      6F727320 
 861      256C6420 
 861      256C6420 
 861      256C6420 
 862              		.text
 863              	.Letext0:
 864              		.file 2 "Generated_Source\\PSoC4/cytypes.h"
 865              		.file 3 "Generated_Source\\PSoC4/I2C_1.h"
 866              		.file 4 "Generated_Source\\PSoC4/I2C_1_I2C.h"
 867              		.file 5 "c:\\program files (x86)\\cypress\\psoc creator\\4.4\\psoc creator\\import\\gnu\\arm\\5.4.
 868              		.file 6 "Generated_Source\\PSoC4/UART.h"