ARM GAS  C:\Users\JamesH\AppData\Local\Temp\ccDci7pD.s 			page 1


   1              		.syntax unified
   2              		.cpu cortex-m0
   3              		.fpu softvfp
   4              		.eabi_attribute 20, 1
   5              		.eabi_attribute 21, 1
   6              		.eabi_attribute 23, 3
   7              		.eabi_attribute 24, 1
   8              		.eabi_attribute 25, 1
   9              		.eabi_attribute 26, 1
  10              		.eabi_attribute 30, 1
  11              		.eabi_attribute 34, 0
  12              		.eabi_attribute 18, 4
  13              		.thumb
  14              		.syntax unified
  15              		.file	"main.c"
  16              		.text
  17              	.Ltext0:
  18              		.cfi_sections	.debug_frame
  19              		.global	__aeabi_i2f
  20              		.global	__aeabi_fadd
  21              		.global	__aeabi_fdiv
  22              		.global	__aeabi_f2d
  23              		.section	.text.main,"ax",%progbits
  24              		.align	2
  25              		.global	main
  26              		.code	16
  27              		.thumb_func
  28              		.type	main, %function
  29              	main:
  30              	.LFB35:
  31              		.file 1 "main.c"
   1:main.c        **** /* ========================================
   2:main.c        ****  *
   3:main.c        ****  * Copyright YOUR COMPANY, THE YEAR
   4:main.c        ****  * All Rights Reserved
   5:main.c        ****  * UNPUBLISHED, LICENSED SOFTWARE.
   6:main.c        ****  *
   7:main.c        ****  * CONFIDENTIAL AND PROPRIETARY INFORMATION
   8:main.c        ****  * WHICH IS THE PROPERTY OF your company.
   9:main.c        ****  *
  10:main.c        ****  * ========================================
  11:main.c        **** */
  12:main.c        **** #include "project.h"
  13:main.c        **** #include <stdio.h>
  14:main.c        **** #include <stdlib.h>
  15:main.c        **** #include <math.h>
  16:main.c        **** 
  17:main.c        **** // Custom Headers
  18:main.c        **** #include "SBT0811.h"
  19:main.c        **** #include "IMU.h"
  20:main.c        **** #include "SG90.h"
  21:main.c        **** 
  22:main.c        **** int main(void) // THIS SHOULD BE FREERTOS 
  23:main.c        **** {
  32              		.loc 1 23 0
  33              		.cfi_startproc
  34              		@ args = 0, pretend = 0, frame = 88
ARM GAS  C:\Users\JamesH\AppData\Local\Temp\ccDci7pD.s 			page 2


  35              		@ frame_needed = 0, uses_anonymous_args = 0
  36 0000 70B5     		push	{r4, r5, r6, lr}
  37              		.cfi_def_cfa_offset 16
  38              		.cfi_offset 4, -16
  39              		.cfi_offset 5, -12
  40              		.cfi_offset 6, -8
  41              		.cfi_offset 14, -4
  42 0002 9AB0     		sub	sp, sp, #104
  43              		.cfi_def_cfa_offset 120
  24:main.c        ****     CyGlobalIntEnable;
  44              		.loc 1 24 0
  45              		.syntax divided
  46              	@ 24 "main.c" 1
  47 0004 62B6     		CPSIE   i
  48              	@ 0 "" 2
  25:main.c        ****     UART_Start();
  49              		.loc 1 25 0
  50              		.thumb
  51              		.syntax unified
  52 0006 FFF7FEFF 		bl	UART_Start
  53              	.LVL0:
  26:main.c        ****     //LIS3MDL_Begin();
  27:main.c        ****     LSM6DS3_Begin();
  54              		.loc 1 27 0
  55 000a FFF7FEFF 		bl	LSM6DS3_Begin
  56              	.LVL1:
  28:main.c        ****     SG90_Begin();
  57              		.loc 1 28 0
  58 000e FFF7FEFF 		bl	SG90_Begin
  59              	.LVL2:
  29:main.c        ****     float angle = 0;
  30:main.c        ****     SG90_ToAngle(angle);
  60              		.loc 1 30 0
  61 0012 0020     		movs	r0, #0
  62 0014 FFF7FEFF 		bl	SG90_ToAngle
  63              	.LVL3:
  64              	.L2:
  65              	.LBB2:
  31:main.c        ****     // moveAngle((float)180); TEST
  32:main.c        ****     
  33:main.c        ****         
  34:main.c        ****     for(;;)
  35:main.c        ****     {  
  36:main.c        ****         CyDelay(10);
  66              		.loc 1 36 0 discriminator 1
  67 0018 0A20     		movs	r0, #10
  68 001a FFF7FEFF 		bl	CyDelay
  69              	.LVL4:
  37:main.c        ****         uint8 rdBuffer, rdPtrL, rdPtrH;
  38:main.c        ****         uint16 heading; 
  39:main.c        ****         int16 headingS = (int16)heading;
  40:main.c        ****         uint8 ctrlReg[10]; 
  41:main.c        ****         LSM6DS3_ReadAxisRaw(&rdPtrL, &rdPtrH);
  70              		.loc 1 41 0 discriminator 1
  71 001e 1726     		movs	r6, #23
  72 0020 6E44     		add	r6, r6, sp
  73 0022 1624     		movs	r4, #22
ARM GAS  C:\Users\JamesH\AppData\Local\Temp\ccDci7pD.s 			page 3


  74 0024 6C44     		add	r4, r4, sp
  75 0026 3100     		movs	r1, r6
  76 0028 2000     		movs	r0, r4
  77 002a FFF7FEFF 		bl	LSM6DS3_ReadAxisRaw
  78              	.LVL5:
  42:main.c        ****         int16 word = (uint16)(rdPtrL<<8)|rdPtrH;
  79              		.loc 1 42 0 discriminator 1
  80 002e 2578     		ldrb	r5, [r4]
  81 0030 2C02     		lsls	r4, r5, #8
  82 0032 3678     		ldrb	r6, [r6]
  83 0034 3443     		orrs	r4, r6
  84              	.LVL6:
  43:main.c        ****         int16 wordOS = word + 330; // TO-DO: Perform this calibration in hardware rather than softw
  85              		.loc 1 43 0 discriminator 1
  86 0036 4B34     		adds	r4, r4, #75
  87              	.LVL7:
  88 0038 FF34     		adds	r4, r4, #255
  89              	.LVL8:
  90 003a 24B2     		sxth	r4, r4
  91              	.LVL9:
  44:main.c        ****         float scaled = (float)2*wordOS / INT16_MAX;
  92              		.loc 1 44 0 discriminator 1
  93 003c 2000     		movs	r0, r4
  94 003e FFF7FEFF 		bl	__aeabi_i2f
  95              	.LVL10:
  96 0042 011C     		adds	r1, r0, #0
  97 0044 FFF7FEFF 		bl	__aeabi_fadd
  98              	.LVL11:
  99 0048 0849     		ldr	r1, .L3
 100 004a FFF7FEFF 		bl	__aeabi_fdiv
 101              	.LVL12:
  45:main.c        ****         //TO-DO: Run this data through a filter
  46:main.c        ****         char string[80]; sprintf(string, "Bytes: %d %d\tWord: %d\tScaled: %1.4f\n", rdPtrL, rdPtrH,
 102              		.loc 1 46 0 discriminator 1
 103 004e FFF7FEFF 		bl	__aeabi_f2d
 104              	.LVL13:
 105 0052 0290     		str	r0, [sp, #8]
 106 0054 0391     		str	r1, [sp, #12]
 107 0056 0094     		str	r4, [sp]
 108 0058 3300     		movs	r3, r6
 109 005a 2A00     		movs	r2, r5
 110 005c 0449     		ldr	r1, .L3+4
 111 005e 06A8     		add	r0, sp, #24
 112 0060 FFF7FEFF 		bl	sprintf
 113              	.LVL14:
 114 0064 06A8     		add	r0, sp, #24
 115 0066 FFF7FEFF 		bl	UART_PutString
 116              	.LVL15:
 117 006a D5E7     		b	.L2
 118              	.L4:
 119              		.align	2
 120              	.L3:
 121 006c 00FEFF46 		.word	1191181824
 122 0070 00000000 		.word	.LC0
 123              	.LBE2:
 124              		.cfi_endproc
 125              	.LFE35:
ARM GAS  C:\Users\JamesH\AppData\Local\Temp\ccDci7pD.s 			page 4


 126              		.size	main, .-main
 127              		.section	.rodata.str1.4,"aMS",%progbits,1
 128              		.align	2
 129              	.LC0:
 130 0000 42797465 		.ascii	"Bytes: %d %d\011Word: %d\011Scaled: %1.4f\012\000"
 130      733A2025 
 130      64202564 
 130      09576F72 
 130      643A2025 
 131              		.text
 132              	.Letext0:
 133              		.file 2 "Generated_Source\\PSoC4/cytypes.h"
 134              		.file 3 "Generated_Source\\PSoC4/CyLib.h"
 135              		.file 4 "IMU.h"
 136              		.file 5 "c:\\program files (x86)\\cypress\\psoc creator\\4.4\\psoc creator\\import\\gnu\\arm\\5.4.
 137              		.file 6 "Generated_Source\\PSoC4/UART.h"
 138              		.file 7 "SG90.h"