ARM GAS  C:\Users\JamesH\AppData\Local\Temp\ccEWPkcB.s 			page 1


   1              		.syntax unified
   2              		.cpu cortex-m0
   3              		.fpu softvfp
   4              		.eabi_attribute 20, 1
   5              		.eabi_attribute 21, 1
   6              		.eabi_attribute 23, 3
   7              		.eabi_attribute 24, 1
   8              		.eabi_attribute 25, 1
   9              		.eabi_attribute 26, 1
  10              		.eabi_attribute 30, 1
  11              		.eabi_attribute 34, 0
  12              		.eabi_attribute 18, 4
  13              		.thumb
  14              		.syntax unified
  15              		.file	"SBT0811.c"
  16              		.text
  17              	.Ltext0:
  18              		.cfi_sections	.debug_frame
  19              		.section	.text.oneStepCCW,"ax",%progbits
  20              		.align	2
  21              		.global	oneStepCCW
  22              		.code	16
  23              		.thumb_func
  24              		.type	oneStepCCW, %function
  25              	oneStepCCW:
  26              	.LFB35:
  27              		.file 1 "SBT0811.c"
   1:SBT0811.c     **** /* ========================================
   2:SBT0811.c     ****  *
   3:SBT0811.c     ****  * Copyright YOUR COMPANY, THE YEAR
   4:SBT0811.c     ****  * All Rights Reserved
   5:SBT0811.c     ****  * UNPUBLISHED, LICENSED SOFTWARE.
   6:SBT0811.c     ****  *
   7:SBT0811.c     ****  * CONFIDENTIAL AND PROPRIETARY INFORMATION
   8:SBT0811.c     ****  * WHICH IS THE PROPERTY OF your company.
   9:SBT0811.c     ****  *
  10:SBT0811.c     ****  * ========================================
  11:SBT0811.c     **** */
  12:SBT0811.c     **** #include "SBT0811.h"
  13:SBT0811.c     **** #include "stdio.h"
  14:SBT0811.c     **** #include <stdlib.h>
  15:SBT0811.c     **** #include "project.h"
  16:SBT0811.c     **** #include <math.h>
  17:SBT0811.c     **** 
  18:SBT0811.c     **** 
  19:SBT0811.c     **** void oneStepCCW(int speed) // One step in the counterclockwise direction, multiplex motor inputs.
  20:SBT0811.c     **** {
  28              		.loc 1 20 0
  29              		.cfi_startproc
  30              		@ args = 0, pretend = 0, frame = 0
  31              		@ frame_needed = 0, uses_anonymous_args = 0
  32              	.LVL0:
  33 0000 10B5     		push	{r4, lr}
  34              		.cfi_def_cfa_offset 8
  35              		.cfi_offset 4, -8
  36              		.cfi_offset 14, -4
  37 0002 0400     		movs	r4, r0
ARM GAS  C:\Users\JamesH\AppData\Local\Temp\ccEWPkcB.s 			page 2


  21:SBT0811.c     ****     StepperDriver_Write(0b1000); // TO-DO: Move this to interrupt based so that it isn't blocking.
  38              		.loc 1 21 0
  39 0004 0820     		movs	r0, #8
  40              	.LVL1:
  41 0006 FFF7FEFF 		bl	StepperDriver_Write
  42              	.LVL2:
  22:SBT0811.c     ****     CyDelay(speed);             
  43              		.loc 1 22 0
  44 000a 2000     		movs	r0, r4
  45 000c FFF7FEFF 		bl	CyDelay
  46              	.LVL3:
  23:SBT0811.c     ****     StepperDriver_Write(0b1100);
  47              		.loc 1 23 0
  48 0010 0C20     		movs	r0, #12
  49 0012 FFF7FEFF 		bl	StepperDriver_Write
  50              	.LVL4:
  24:SBT0811.c     ****     CyDelay(speed);
  51              		.loc 1 24 0
  52 0016 2000     		movs	r0, r4
  53 0018 FFF7FEFF 		bl	CyDelay
  54              	.LVL5:
  25:SBT0811.c     ****     StepperDriver_Write(0b0100);
  55              		.loc 1 25 0
  56 001c 0420     		movs	r0, #4
  57 001e FFF7FEFF 		bl	StepperDriver_Write
  58              	.LVL6:
  26:SBT0811.c     ****     CyDelay(speed);
  59              		.loc 1 26 0
  60 0022 2000     		movs	r0, r4
  61 0024 FFF7FEFF 		bl	CyDelay
  62              	.LVL7:
  27:SBT0811.c     ****     StepperDriver_Write(0b0110);
  63              		.loc 1 27 0
  64 0028 0620     		movs	r0, #6
  65 002a FFF7FEFF 		bl	StepperDriver_Write
  66              	.LVL8:
  28:SBT0811.c     ****     CyDelay(speed);
  67              		.loc 1 28 0
  68 002e 2000     		movs	r0, r4
  69 0030 FFF7FEFF 		bl	CyDelay
  70              	.LVL9:
  29:SBT0811.c     ****     StepperDriver_Write(0b0010);
  71              		.loc 1 29 0
  72 0034 0220     		movs	r0, #2
  73 0036 FFF7FEFF 		bl	StepperDriver_Write
  74              	.LVL10:
  30:SBT0811.c     ****     CyDelay(speed);
  75              		.loc 1 30 0
  76 003a 2000     		movs	r0, r4
  77 003c FFF7FEFF 		bl	CyDelay
  78              	.LVL11:
  31:SBT0811.c     ****     StepperDriver_Write(0b0011);
  79              		.loc 1 31 0
  80 0040 0320     		movs	r0, #3
  81 0042 FFF7FEFF 		bl	StepperDriver_Write
  82              	.LVL12:
  32:SBT0811.c     ****     CyDelay(speed);
ARM GAS  C:\Users\JamesH\AppData\Local\Temp\ccEWPkcB.s 			page 3


  83              		.loc 1 32 0
  84 0046 2000     		movs	r0, r4
  85 0048 FFF7FEFF 		bl	CyDelay
  86              	.LVL13:
  33:SBT0811.c     ****     StepperDriver_Write(0b0001);
  87              		.loc 1 33 0
  88 004c 0120     		movs	r0, #1
  89 004e FFF7FEFF 		bl	StepperDriver_Write
  90              	.LVL14:
  34:SBT0811.c     ****     CyDelay(speed);
  91              		.loc 1 34 0
  92 0052 2000     		movs	r0, r4
  93 0054 FFF7FEFF 		bl	CyDelay
  94              	.LVL15:
  35:SBT0811.c     ****     StepperDriver_Write(0b1001);
  95              		.loc 1 35 0
  96 0058 0920     		movs	r0, #9
  97 005a FFF7FEFF 		bl	StepperDriver_Write
  98              	.LVL16:
  36:SBT0811.c     ****     CyDelay(speed);
  99              		.loc 1 36 0
 100 005e 2000     		movs	r0, r4
 101 0060 FFF7FEFF 		bl	CyDelay
 102              	.LVL17:
  37:SBT0811.c     **** }
 103              		.loc 1 37 0
 104              		@ sp needed
 105              	.LVL18:
 106 0064 10BD     		pop	{r4, pc}
 107              		.cfi_endproc
 108              	.LFE35:
 109              		.size	oneStepCCW, .-oneStepCCW
 110 0066 C046     		.section	.text.oneStepCW,"ax",%progbits
 111              		.align	2
 112              		.global	oneStepCW
 113              		.code	16
 114              		.thumb_func
 115              		.type	oneStepCW, %function
 116              	oneStepCW:
 117              	.LFB36:
  38:SBT0811.c     **** 
  39:SBT0811.c     **** void oneStepCW(int speed) // One step in the clockwise direction
  40:SBT0811.c     **** {
 118              		.loc 1 40 0
 119              		.cfi_startproc
 120              		@ args = 0, pretend = 0, frame = 0
 121              		@ frame_needed = 0, uses_anonymous_args = 0
 122              	.LVL19:
 123 0000 10B5     		push	{r4, lr}
 124              		.cfi_def_cfa_offset 8
 125              		.cfi_offset 4, -8
 126              		.cfi_offset 14, -4
 127 0002 0400     		movs	r4, r0
  41:SBT0811.c     ****     StepperDriver_Write(0b1001); // TO-DO: Move this to interrupt based so that it isn't blocking.
 128              		.loc 1 41 0
 129 0004 0920     		movs	r0, #9
 130              	.LVL20:
ARM GAS  C:\Users\JamesH\AppData\Local\Temp\ccEWPkcB.s 			page 4


 131 0006 FFF7FEFF 		bl	StepperDriver_Write
 132              	.LVL21:
  42:SBT0811.c     ****     CyDelay(speed);
 133              		.loc 1 42 0
 134 000a 2000     		movs	r0, r4
 135 000c FFF7FEFF 		bl	CyDelay
 136              	.LVL22:
  43:SBT0811.c     ****     StepperDriver_Write(0b0001);
 137              		.loc 1 43 0
 138 0010 0120     		movs	r0, #1
 139 0012 FFF7FEFF 		bl	StepperDriver_Write
 140              	.LVL23:
  44:SBT0811.c     ****     CyDelay(speed);
 141              		.loc 1 44 0
 142 0016 2000     		movs	r0, r4
 143 0018 FFF7FEFF 		bl	CyDelay
 144              	.LVL24:
  45:SBT0811.c     ****     StepperDriver_Write(0b0011);
 145              		.loc 1 45 0
 146 001c 0320     		movs	r0, #3
 147 001e FFF7FEFF 		bl	StepperDriver_Write
 148              	.LVL25:
  46:SBT0811.c     ****     CyDelay(speed);
 149              		.loc 1 46 0
 150 0022 2000     		movs	r0, r4
 151 0024 FFF7FEFF 		bl	CyDelay
 152              	.LVL26:
  47:SBT0811.c     ****     StepperDriver_Write(0b0010);
 153              		.loc 1 47 0
 154 0028 0220     		movs	r0, #2
 155 002a FFF7FEFF 		bl	StepperDriver_Write
 156              	.LVL27:
  48:SBT0811.c     ****     CyDelay(speed);
 157              		.loc 1 48 0
 158 002e 2000     		movs	r0, r4
 159 0030 FFF7FEFF 		bl	CyDelay
 160              	.LVL28:
  49:SBT0811.c     ****     StepperDriver_Write(0b0110);
 161              		.loc 1 49 0
 162 0034 0620     		movs	r0, #6
 163 0036 FFF7FEFF 		bl	StepperDriver_Write
 164              	.LVL29:
  50:SBT0811.c     ****     CyDelay(speed);
 165              		.loc 1 50 0
 166 003a 2000     		movs	r0, r4
 167 003c FFF7FEFF 		bl	CyDelay
 168              	.LVL30:
  51:SBT0811.c     ****     StepperDriver_Write(0b0100);
 169              		.loc 1 51 0
 170 0040 0420     		movs	r0, #4
 171 0042 FFF7FEFF 		bl	StepperDriver_Write
 172              	.LVL31:
  52:SBT0811.c     ****     CyDelay(speed);
 173              		.loc 1 52 0
 174 0046 2000     		movs	r0, r4
 175 0048 FFF7FEFF 		bl	CyDelay
 176              	.LVL32:
ARM GAS  C:\Users\JamesH\AppData\Local\Temp\ccEWPkcB.s 			page 5


  53:SBT0811.c     ****     StepperDriver_Write(0b1100);
 177              		.loc 1 53 0
 178 004c 0C20     		movs	r0, #12
 179 004e FFF7FEFF 		bl	StepperDriver_Write
 180              	.LVL33:
  54:SBT0811.c     ****     CyDelay(speed);
 181              		.loc 1 54 0
 182 0052 2000     		movs	r0, r4
 183 0054 FFF7FEFF 		bl	CyDelay
 184              	.LVL34:
  55:SBT0811.c     ****     StepperDriver_Write(0b1000);
 185              		.loc 1 55 0
 186 0058 0820     		movs	r0, #8
 187 005a FFF7FEFF 		bl	StepperDriver_Write
 188              	.LVL35:
  56:SBT0811.c     ****     CyDelay(speed);
 189              		.loc 1 56 0
 190 005e 2000     		movs	r0, r4
 191 0060 FFF7FEFF 		bl	CyDelay
 192              	.LVL36:
  57:SBT0811.c     **** }
 193              		.loc 1 57 0
 194              		@ sp needed
 195              	.LVL37:
 196 0064 10BD     		pop	{r4, pc}
 197              		.cfi_endproc
 198              	.LFE36:
 199              		.size	oneStepCW, .-oneStepCW
 200              		.global	__aeabi_fmul
 201              		.global	__aeabi_fdiv
 202              		.global	__aeabi_f2iz
 203              		.global	__aeabi_i2f
 204              		.global	__aeabi_fsub
 205              		.global	__aeabi_f2d
 206 0066 C046     		.section	.text.moveAngle,"ax",%progbits
 207              		.align	2
 208              		.global	moveAngle
 209              		.code	16
 210              		.thumb_func
 211              		.type	moveAngle, %function
 212              	moveAngle:
 213              	.LFB37:
  58:SBT0811.c     **** 
  59:SBT0811.c     **** void moveAngle(float angle){ //angle taken in degrees
 214              		.loc 1 59 0
 215              		.cfi_startproc
 216              		@ args = 0, pretend = 0, frame = 40
 217              		@ frame_needed = 0, uses_anonymous_args = 0
 218              	.LVL38:
 219 0000 30B5     		push	{r4, r5, lr}
 220              		.cfi_def_cfa_offset 12
 221              		.cfi_offset 4, -12
 222              		.cfi_offset 5, -8
 223              		.cfi_offset 14, -4
 224 0002 8DB0     		sub	sp, sp, #52
 225              		.cfi_def_cfa_offset 64
  60:SBT0811.c     ****     float steps = angle * STEPS_PER_REV / 360;
ARM GAS  C:\Users\JamesH\AppData\Local\Temp\ccEWPkcB.s 			page 6


 226              		.loc 1 60 0
 227 0004 8821     		movs	r1, #136
 228 0006 C905     		lsls	r1, r1, #23
 229 0008 FFF7FEFF 		bl	__aeabi_fmul
 230              	.LVL39:
 231 000c 1149     		ldr	r1, .L6
 232 000e FFF7FEFF 		bl	__aeabi_fdiv
 233              	.LVL40:
 234 0012 041C     		adds	r4, r0, #0
 235              	.LVL41:
  61:SBT0811.c     ****     int stepsRound = (int)steps; //number of steps to turn that number of degrees
 236              		.loc 1 61 0
 237 0014 FFF7FEFF 		bl	__aeabi_f2iz
 238              	.LVL42:
 239 0018 0500     		movs	r5, r0
 240              	.LVL43:
  62:SBT0811.c     ****     char string[40];
  63:SBT0811.c     ****     sprintf(string, "steps = %d error = %f\n", stepsRound, (float)(steps-stepsRound));
 241              		.loc 1 63 0
 242 001a FFF7FEFF 		bl	__aeabi_i2f
 243              	.LVL44:
 244 001e 011C     		adds	r1, r0, #0
 245 0020 201C     		adds	r0, r4, #0
 246 0022 FFF7FEFF 		bl	__aeabi_fsub
 247              	.LVL45:
 248 0026 FFF7FEFF 		bl	__aeabi_f2d
 249              	.LVL46:
 250 002a 0090     		str	r0, [sp]
 251 002c 0191     		str	r1, [sp, #4]
 252 002e 2A00     		movs	r2, r5
 253 0030 0949     		ldr	r1, .L6+4
 254 0032 02A8     		add	r0, sp, #8
 255 0034 FFF7FEFF 		bl	sprintf
 256              	.LVL47:
  64:SBT0811.c     ****     UART_PutString(string);
 257              		.loc 1 64 0
 258 0038 02A8     		add	r0, sp, #8
 259 003a FFF7FEFF 		bl	UART_PutString
 260              	.LVL48:
 261              	.LBB2:
  65:SBT0811.c     ****     for (int i = 0; i < stepsRound; i++) {
 262              		.loc 1 65 0
 263 003e 0024     		movs	r4, #0
 264              	.LVL49:
 265 0040 03E0     		b	.L4
 266              	.LVL50:
 267              	.L5:
  66:SBT0811.c     ****         oneStepCW(3);
 268              		.loc 1 66 0 discriminator 3
 269 0042 0320     		movs	r0, #3
 270 0044 FFF7FEFF 		bl	oneStepCW
 271              	.LVL51:
  65:SBT0811.c     ****     for (int i = 0; i < stepsRound; i++) {
 272              		.loc 1 65 0 discriminator 3
 273 0048 0134     		adds	r4, r4, #1
 274              	.LVL52:
 275              	.L4:
ARM GAS  C:\Users\JamesH\AppData\Local\Temp\ccEWPkcB.s 			page 7


  65:SBT0811.c     ****     for (int i = 0; i < stepsRound; i++) {
 276              		.loc 1 65 0 is_stmt 0 discriminator 1
 277 004a AC42     		cmp	r4, r5
 278 004c F9DB     		blt	.L5
 279              	.LBE2:
  67:SBT0811.c     ****     }
  68:SBT0811.c     **** }...
 280              		.loc 1 68 0 is_stmt 1
 281 004e 0DB0     		add	sp, sp, #52
 282              		@ sp needed
 283              	.LVL53:
 284              	.LVL54:
 285 0050 30BD     		pop	{r4, r5, pc}
 286              	.L7:
 287 0052 C046     		.align	2
 288              	.L6:
 289 0054 0000B443 		.word	1135869952
 290 0058 00000000 		.word	.LC0
 291              		.cfi_endproc
 292              	.LFE37:
 293              		.size	moveAngle, .-moveAngle
 294              		.section	.rodata.str1.4,"aMS",%progbits,1
 295              		.align	2
 296              	.LC0:
 297 0000 73746570 		.ascii	"steps = %d error = %f\012\000"
 297      73203D20 
 297      25642065 
 297      72726F72 
 297      203D2025 
 298              		.text
 299              	.Letext0:
 300              		.file 2 "Generated_Source\\PSoC4/StepperDriver.h"
 301              		.file 3 "Generated_Source\\PSoC4/CyLib.h"
 302              		.file 4 "c:\\program files (x86)\\cypress\\psoc creator\\4.4\\psoc creator\\import\\gnu\\arm\\5.4.
 303              		.file 5 "Generated_Source\\PSoC4/UART.h"