ARM GAS  C:\Users\JamesH\AppData\Local\Temp\cc0uF4JC.s 			page 1


   1              		.syntax unified
   2              		.cpu cortex-m0
   3              		.fpu softvfp
   4              		.eabi_attribute 20, 1
   5              		.eabi_attribute 21, 1
   6              		.eabi_attribute 23, 3
   7              		.eabi_attribute 24, 1
   8              		.eabi_attribute 25, 1
   9              		.eabi_attribute 26, 1
  10              		.eabi_attribute 30, 1
  11              		.eabi_attribute 34, 0
  12              		.eabi_attribute 18, 4
  13              		.thumb
  14              		.syntax unified
  15              		.file	"TB9051.c"
  16              		.text
  17              	.Ltext0:
  18              		.cfi_sections	.debug_frame
  19              		.section	.text.TB9051_Begin,"ax",%progbits
  20              		.align	2
  21              		.global	TB9051_Begin
  22              		.code	16
  23              		.thumb_func
  24              		.type	TB9051_Begin, %function
  25              	TB9051_Begin:
  26              	.LFB34:
  27              		.file 1 "TB9051.c"
   1:TB9051.c      **** /* ========================================
   2:TB9051.c      ****  *
   3:TB9051.c      ****  * Copyright YOUR COMPANY, THE YEAR
   4:TB9051.c      ****  * All Rights Reserved
   5:TB9051.c      ****  * UNPUBLISHED, LICENSED SOFTWARE.
   6:TB9051.c      ****  *
   7:TB9051.c      ****  * CONFIDENTIAL AND PROPRIETARY INFORMATION
   8:TB9051.c      ****  * WHICH IS THE PROPERTY OF your company.
   9:TB9051.c      ****  *
  10:TB9051.c      ****  * ========================================
  11:TB9051.c      **** */
  12:TB9051.c      **** #include "TB9051.h"
  13:TB9051.c      **** #include "project.h"
  14:TB9051.c      **** #include <math.h>
  15:TB9051.c      **** 
  16:TB9051.c      **** void TB9051_Begin()
  17:TB9051.c      **** {
  28              		.loc 1 17 0
  29              		.cfi_startproc
  30              		@ args = 0, pretend = 0, frame = 0
  31              		@ frame_needed = 0, uses_anonymous_args = 0
  32 0000 10B5     		push	{r4, lr}
  33              		.cfi_def_cfa_offset 8
  34              		.cfi_offset 4, -8
  35              		.cfi_offset 14, -4
  18:TB9051.c      ****     QuadPWM_Init();
  36              		.loc 1 18 0
  37 0002 FFF7FEFF 		bl	QuadPWM_Init
  38              	.LVL0:
  39              	.LBB2:
ARM GAS  C:\Users\JamesH\AppData\Local\Temp\cc0uF4JC.s 			page 2


  19:TB9051.c      ****     for (int i = 1; i <= 4; i++){ 
  40              		.loc 1 19 0
  41 0006 0124     		movs	r4, #1
  42 0008 04E0     		b	.L2
  43              	.LVL1:
  44              	.L3:
  20:TB9051.c      ****         QuadPWM_SetDutyCycle(i,0);
  45              		.loc 1 20 0 discriminator 3
  46 000a 0021     		movs	r1, #0
  47 000c 2000     		movs	r0, r4
  48 000e FFF7FEFF 		bl	QuadPWM_SetDutyCycle
  49              	.LVL2:
  19:TB9051.c      ****     for (int i = 1; i <= 4; i++){ 
  50              		.loc 1 19 0 discriminator 3
  51 0012 0134     		adds	r4, r4, #1
  52              	.LVL3:
  53              	.L2:
  19:TB9051.c      ****     for (int i = 1; i <= 4; i++){ 
  54              		.loc 1 19 0 is_stmt 0 discriminator 1
  55 0014 042C     		cmp	r4, #4
  56 0016 F8DD     		ble	.L3
  57              	.LBE2:
  21:TB9051.c      ****     }
  22:TB9051.c      ****     TB9051_EN_Write(0x2); // EN high ENB low
  58              		.loc 1 22 0 is_stmt 1
  59 0018 0220     		movs	r0, #2
  60 001a FFF7FEFF 		bl	TB9051_EN_Write
  61              	.LVL4:
  23:TB9051.c      **** }
  62              		.loc 1 23 0
  63              		@ sp needed
  64              	.LVL5:
  65 001e 10BD     		pop	{r4, pc}
  66              		.cfi_endproc
  67              	.LFE34:
  68              		.size	TB9051_Begin, .-TB9051_Begin
  69              		.section	.text.TB9051_Brake,"ax",%progbits
  70              		.align	2
  71              		.global	TB9051_Brake
  72              		.code	16
  73              		.thumb_func
  74              		.type	TB9051_Brake, %function
  75              	TB9051_Brake:
  76              	.LFB40:
  24:TB9051.c      **** 
  25:TB9051.c      **** void TB9051_VehForward(int speed) {
  26:TB9051.c      ****     TB9051_Forward(0,speed);
  27:TB9051.c      ****     TB9051_Forward(1,speed);
  28:TB9051.c      **** }
  29:TB9051.c      **** 
  30:TB9051.c      **** void TB9051_VehReverse(int speed) {
  31:TB9051.c      ****     TB9051_Reverse(0,speed);
  32:TB9051.c      ****     TB9051_Reverse(1,speed);
  33:TB9051.c      **** }
  34:TB9051.c      **** 
  35:TB9051.c      **** void TB9051_VehBrake() {
  36:TB9051.c      ****     TB9051_Brake(0);
ARM GAS  C:\Users\JamesH\AppData\Local\Temp\cc0uF4JC.s 			page 3


  37:TB9051.c      ****     TB9051_Brake(1);
  38:TB9051.c      **** }
  39:TB9051.c      **** 
  40:TB9051.c      **** void TB9051_Forward(int motor, int speed)
  41:TB9051.c      **** { 
  42:TB9051.c      ****     TB9051_Brake(motor);
  43:TB9051.c      ****     if (speed >= QuadPWM_MIN_DUTY_CYCLE & speed <= QuadPWM_MAX_DUTY_CYCLE) {
  44:TB9051.c      ****     //PWM1 H, PWM2 L
  45:TB9051.c      ****     if (motor == 0) {
  46:TB9051.c      ****         QuadPWM_SetDutyCycle(1,speed);
  47:TB9051.c      ****         QuadPWM_SetDutyCycle(2,0);
  48:TB9051.c      ****     }
  49:TB9051.c      ****     else {
  50:TB9051.c      ****         QuadPWM_SetDutyCycle(3,speed);
  51:TB9051.c      ****         QuadPWM_SetDutyCycle(4,0);       
  52:TB9051.c      ****     }
  53:TB9051.c      ****     }
  54:TB9051.c      **** }
  55:TB9051.c      **** 
  56:TB9051.c      **** void TB9051_Reverse(int motor, int speed)
  57:TB9051.c      **** { 
  58:TB9051.c      ****     TB9051_Brake(motor);
  59:TB9051.c      ****     if (speed >= QuadPWM_MIN_DUTY_CYCLE & speed <= QuadPWM_MAX_DUTY_CYCLE) {
  60:TB9051.c      ****         //PWM1 L, PWM2 H
  61:TB9051.c      ****         if (motor == 0) {
  62:TB9051.c      ****             QuadPWM_SetDutyCycle(1,0);
  63:TB9051.c      ****             QuadPWM_SetDutyCycle(2,speed);
  64:TB9051.c      ****         }
  65:TB9051.c      ****         else {
  66:TB9051.c      ****             QuadPWM_SetDutyCycle(3,0);
  67:TB9051.c      ****             QuadPWM_SetDutyCycle(4,speed);       
  68:TB9051.c      ****         }
  69:TB9051.c      ****     }
  70:TB9051.c      **** }
  71:TB9051.c      **** 
  72:TB9051.c      **** void TB9051_Brake(int motor)
  73:TB9051.c      **** { // To avoid damaging motors, a brake is applied between forward and reverse movements
  77              		.loc 1 73 0
  78              		.cfi_startproc
  79              		@ args = 0, pretend = 0, frame = 0
  80              		@ frame_needed = 0, uses_anonymous_args = 0
  81              	.LVL6:
  82 0000 10B5     		push	{r4, lr}
  83              		.cfi_def_cfa_offset 8
  84              		.cfi_offset 4, -8
  85              		.cfi_offset 14, -4
  74:TB9051.c      ****     if (motor == 0) { // Motor 0
  86              		.loc 1 74 0
  87 0002 0028     		cmp	r0, #0
  88 0004 29D1     		bne	.L5
  75:TB9051.c      ****         if (QuadPWM_REG_D0 != 255 & QuadPWM_REG_D1 == 255){ // motor is moving forward
  89              		.loc 1 75 0
  90 0006 2B4B     		ldr	r3, .L9
  91 0008 1B78     		ldrb	r3, [r3]
  92 000a 2B4A     		ldr	r2, .L9+4
  93 000c 1278     		ldrb	r2, [r2]
  94 000e FF3B     		subs	r3, r3, #255
ARM GAS  C:\Users\JamesH\AppData\Local\Temp\cc0uF4JC.s 			page 4


  95 0010 591E     		subs	r1, r3, #1
  96 0012 8B41     		sbcs	r3, r3, r1
  97 0014 FF3A     		subs	r2, r2, #255
  98 0016 5142     		rsbs	r1, r2, #0
  99 0018 4A41     		adcs	r2, r2, r1
 100 001a 1A42     		tst	r2, r3
 101 001c 08D0     		beq	.L6
  76:TB9051.c      ****             QuadPWM_SetDutyCycle(1,0);
 102              		.loc 1 76 0
 103 001e 0021     		movs	r1, #0
 104 0020 0130     		adds	r0, r0, #1
 105              	.LVL7:
 106 0022 FFF7FEFF 		bl	QuadPWM_SetDutyCycle
 107              	.LVL8:
  77:TB9051.c      ****             QuadPWM_SetDutyCycle(2,0);
 108              		.loc 1 77 0
 109 0026 0021     		movs	r1, #0
 110 0028 0220     		movs	r0, #2
 111 002a FFF7FEFF 		bl	QuadPWM_SetDutyCycle
 112              	.LVL9:
 113 002e 3DE0     		b	.L7
 114              	.LVL10:
 115              	.L6:
  78:TB9051.c      ****         }
  79:TB9051.c      ****         else if (QuadPWM_REG_D0 == 255 & QuadPWM_REG_D1 != 255) // motor is moving backward
 116              		.loc 1 79 0
 117 0030 204B     		ldr	r3, .L9
 118 0032 1B78     		ldrb	r3, [r3]
 119 0034 204A     		ldr	r2, .L9+4
 120 0036 1278     		ldrb	r2, [r2]
 121 0038 FF3B     		subs	r3, r3, #255
 122 003a 5942     		rsbs	r1, r3, #0
 123 003c 4B41     		adcs	r3, r3, r1
 124 003e FF3A     		subs	r2, r2, #255
 125 0040 511E     		subs	r1, r2, #1
 126 0042 8A41     		sbcs	r2, r2, r1
 127 0044 1A42     		tst	r2, r3
 128 0046 31D0     		beq	.L7
  80:TB9051.c      ****         {
  81:TB9051.c      ****             QuadPWM_SetDutyCycle(1,25);
 129              		.loc 1 81 0
 130 0048 1921     		movs	r1, #25
 131 004a 0120     		movs	r0, #1
 132              	.LVL11:
 133 004c FFF7FEFF 		bl	QuadPWM_SetDutyCycle
 134              	.LVL12:
  82:TB9051.c      ****             QuadPWM_SetDutyCycle(2,25);
 135              		.loc 1 82 0
 136 0050 1921     		movs	r1, #25
 137 0052 0220     		movs	r0, #2
 138 0054 FFF7FEFF 		bl	QuadPWM_SetDutyCycle
 139              	.LVL13:
 140 0058 28E0     		b	.L7
 141              	.LVL14:
 142              	.L5:
  83:TB9051.c      ****         }
  84:TB9051.c      ****     }
ARM GAS  C:\Users\JamesH\AppData\Local\Temp\cc0uF4JC.s 			page 5


  85:TB9051.c      ****     else // Motor 1
  86:TB9051.c      ****     {
  87:TB9051.c      ****         if (QuadPWM_REG_F0 != 255 & QuadPWM_REG_F1 == 255){ // motor is moving forward
 143              		.loc 1 87 0
 144 005a 184B     		ldr	r3, .L9+8
 145 005c 1B78     		ldrb	r3, [r3]
 146 005e 184A     		ldr	r2, .L9+12
 147 0060 1278     		ldrb	r2, [r2]
 148 0062 FF3B     		subs	r3, r3, #255
 149 0064 591E     		subs	r1, r3, #1
 150 0066 8B41     		sbcs	r3, r3, r1
 151 0068 FF3A     		subs	r2, r2, #255
 152 006a 5142     		rsbs	r1, r2, #0
 153 006c 4A41     		adcs	r2, r2, r1
 154 006e 1A42     		tst	r2, r3
 155 0070 08D0     		beq	.L8
  88:TB9051.c      ****             QuadPWM_SetDutyCycle(3,0);
 156              		.loc 1 88 0
 157 0072 0021     		movs	r1, #0
 158 0074 0320     		movs	r0, #3
 159              	.LVL15:
 160 0076 FFF7FEFF 		bl	QuadPWM_SetDutyCycle
 161              	.LVL16:
  89:TB9051.c      ****             QuadPWM_SetDutyCycle(4,0);
 162              		.loc 1 89 0
 163 007a 0021     		movs	r1, #0
 164 007c 0420     		movs	r0, #4
 165 007e FFF7FEFF 		bl	QuadPWM_SetDutyCycle
 166              	.LVL17:
 167 0082 13E0     		b	.L7
 168              	.LVL18:
 169              	.L8:
  90:TB9051.c      ****         }
  91:TB9051.c      ****         else if (QuadPWM_REG_F0 == 255 & QuadPWM_REG_F1 != 255) // motor is moving backward
 170              		.loc 1 91 0
 171 0084 0D4B     		ldr	r3, .L9+8
 172 0086 1B78     		ldrb	r3, [r3]
 173 0088 0D4A     		ldr	r2, .L9+12
 174 008a 1278     		ldrb	r2, [r2]
 175 008c FF3B     		subs	r3, r3, #255
 176 008e 5942     		rsbs	r1, r3, #0
 177 0090 4B41     		adcs	r3, r3, r1
 178 0092 FF3A     		subs	r2, r2, #255
 179 0094 511E     		subs	r1, r2, #1
 180 0096 8A41     		sbcs	r2, r2, r1
 181 0098 1A42     		tst	r2, r3
 182 009a 07D0     		beq	.L7
  92:TB9051.c      ****         {
  93:TB9051.c      ****             QuadPWM_SetDutyCycle(3,25);
 183              		.loc 1 93 0
 184 009c 1921     		movs	r1, #25
 185 009e 0320     		movs	r0, #3
 186              	.LVL19:
 187 00a0 FFF7FEFF 		bl	QuadPWM_SetDutyCycle
 188              	.LVL20:
  94:TB9051.c      ****             QuadPWM_SetDutyCycle(4,25);
 189              		.loc 1 94 0
ARM GAS  C:\Users\JamesH\AppData\Local\Temp\cc0uF4JC.s 			page 6


 190 00a4 1921     		movs	r1, #25
 191 00a6 0420     		movs	r0, #4
 192 00a8 FFF7FEFF 		bl	QuadPWM_SetDutyCycle
 193              	.LVL21:
 194              	.L7:
  95:TB9051.c      ****         }
  96:TB9051.c      ****     }    
  97:TB9051.c      ****     // TO-DO: ADD non-blocking delay here so that the short brake is applied for a suitable period 
  98:TB9051.c      ****     CyDelay(100);
 195              		.loc 1 98 0
 196 00ac 6420     		movs	r0, #100
 197 00ae FFF7FEFF 		bl	CyDelay
 198              	.LVL22:
  99:TB9051.c      **** }
 199              		.loc 1 99 0
 200              		@ sp needed
 201 00b2 10BD     		pop	{r4, pc}
 202              	.L10:
 203              		.align	2
 204              	.L9:
 205 00b4 23000F40 		.word	1074724899
 206 00b8 33000F40 		.word	1074724915
 207 00bc 43000F40 		.word	1074724931
 208 00c0 53000F40 		.word	1074724947
 209              		.cfi_endproc
 210              	.LFE40:
 211              		.size	TB9051_Brake, .-TB9051_Brake
 212              		.section	.text.TB9051_VehBrake,"ax",%progbits
 213              		.align	2
 214              		.global	TB9051_VehBrake
 215              		.code	16
 216              		.thumb_func
 217              		.type	TB9051_VehBrake, %function
 218              	TB9051_VehBrake:
 219              	.LFB37:
  35:TB9051.c      ****     TB9051_Brake(0);
 220              		.loc 1 35 0
 221              		.cfi_startproc
 222              		@ args = 0, pretend = 0, frame = 0
 223              		@ frame_needed = 0, uses_anonymous_args = 0
 224 0000 10B5     		push	{r4, lr}
 225              		.cfi_def_cfa_offset 8
 226              		.cfi_offset 4, -8
 227              		.cfi_offset 14, -4
  36:TB9051.c      ****     TB9051_Brake(1);
 228              		.loc 1 36 0
 229 0002 0020     		movs	r0, #0
 230 0004 FFF7FEFF 		bl	TB9051_Brake
 231              	.LVL23:
  37:TB9051.c      **** }
 232              		.loc 1 37 0
 233 0008 0120     		movs	r0, #1
 234 000a FFF7FEFF 		bl	TB9051_Brake
 235              	.LVL24:
  38:TB9051.c      **** 
 236              		.loc 1 38 0
 237              		@ sp needed
ARM GAS  C:\Users\JamesH\AppData\Local\Temp\cc0uF4JC.s 			page 7


 238 000e 10BD     		pop	{r4, pc}
 239              		.cfi_endproc
 240              	.LFE37:
 241              		.size	TB9051_VehBrake, .-TB9051_VehBrake
 242              		.section	.text.TB9051_Forward,"ax",%progbits
 243              		.align	2
 244              		.global	TB9051_Forward
 245              		.code	16
 246              		.thumb_func
 247              		.type	TB9051_Forward, %function
 248              	TB9051_Forward:
 249              	.LFB38:
  41:TB9051.c      ****     TB9051_Brake(motor);
 250              		.loc 1 41 0
 251              		.cfi_startproc
 252              		@ args = 0, pretend = 0, frame = 0
 253              		@ frame_needed = 0, uses_anonymous_args = 0
 254              	.LVL25:
 255 0000 70B5     		push	{r4, r5, r6, lr}
 256              		.cfi_def_cfa_offset 16
 257              		.cfi_offset 4, -16
 258              		.cfi_offset 5, -12
 259              		.cfi_offset 6, -8
 260              		.cfi_offset 14, -4
 261 0002 0400     		movs	r4, r0
 262 0004 0D00     		movs	r5, r1
  42:TB9051.c      ****     if (speed >= QuadPWM_MIN_DUTY_CYCLE & speed <= QuadPWM_MAX_DUTY_CYCLE) {
 263              		.loc 1 42 0
 264 0006 FFF7FEFF 		bl	TB9051_Brake
 265              	.LVL26:
  43:TB9051.c      ****     //PWM1 H, PWM2 L
 266              		.loc 1 43 0
 267 000a FF2D     		cmp	r5, #255
 268 000c 12D8     		bhi	.L12
  45:TB9051.c      ****         QuadPWM_SetDutyCycle(1,speed);
 269              		.loc 1 45 0
 270 000e 002C     		cmp	r4, #0
 271 0010 08D1     		bne	.L14
  46:TB9051.c      ****         QuadPWM_SetDutyCycle(2,0);
 272              		.loc 1 46 0
 273 0012 2900     		movs	r1, r5
 274 0014 0120     		movs	r0, #1
 275 0016 FFF7FEFF 		bl	QuadPWM_SetDutyCycle
 276              	.LVL27:
  47:TB9051.c      ****     }
 277              		.loc 1 47 0
 278 001a 0021     		movs	r1, #0
 279 001c 0220     		movs	r0, #2
 280 001e FFF7FEFF 		bl	QuadPWM_SetDutyCycle
 281              	.LVL28:
 282 0022 07E0     		b	.L12
 283              	.L14:
  50:TB9051.c      ****         QuadPWM_SetDutyCycle(4,0);       
 284              		.loc 1 50 0
 285 0024 2900     		movs	r1, r5
 286 0026 0320     		movs	r0, #3
 287 0028 FFF7FEFF 		bl	QuadPWM_SetDutyCycle
ARM GAS  C:\Users\JamesH\AppData\Local\Temp\cc0uF4JC.s 			page 8


 288              	.LVL29:
  51:TB9051.c      ****     }
 289              		.loc 1 51 0
 290 002c 0021     		movs	r1, #0
 291 002e 0420     		movs	r0, #4
 292 0030 FFF7FEFF 		bl	QuadPWM_SetDutyCycle
 293              	.LVL30:
 294              	.L12:
  54:TB9051.c      **** 
 295              		.loc 1 54 0
 296              		@ sp needed
 297              	.LVL31:
 298              	.LVL32:
 299 0034 70BD     		pop	{r4, r5, r6, pc}
 300              		.cfi_endproc
 301              	.LFE38:
 302              		.size	TB9051_Forward, .-TB9051_Forward
 303 0036 C046     		.section	.text.TB9051_VehForward,"ax",%progbits
 304              		.align	2
 305              		.global	TB9051_VehForward
 306              		.code	16
 307              		.thumb_func
 308              		.type	TB9051_VehForward, %function
 309              	TB9051_VehForward:
 310              	.LFB35:
  25:TB9051.c      ****     TB9051_Forward(0,speed);
 311              		.loc 1 25 0
 312              		.cfi_startproc
 313              		@ args = 0, pretend = 0, frame = 0
 314              		@ frame_needed = 0, uses_anonymous_args = 0
 315              	.LVL33:
 316 0000 10B5     		push	{r4, lr}
 317              		.cfi_def_cfa_offset 8
 318              		.cfi_offset 4, -8
 319              		.cfi_offset 14, -4
 320 0002 0400     		movs	r4, r0
  26:TB9051.c      ****     TB9051_Forward(1,speed);
 321              		.loc 1 26 0
 322 0004 0100     		movs	r1, r0
 323 0006 0020     		movs	r0, #0
 324              	.LVL34:
 325 0008 FFF7FEFF 		bl	TB9051_Forward
 326              	.LVL35:
  27:TB9051.c      **** }
 327              		.loc 1 27 0
 328 000c 2100     		movs	r1, r4
 329 000e 0120     		movs	r0, #1
 330 0010 FFF7FEFF 		bl	TB9051_Forward
 331              	.LVL36:
  28:TB9051.c      **** 
 332              		.loc 1 28 0
 333              		@ sp needed
 334              	.LVL37:
 335 0014 10BD     		pop	{r4, pc}
 336              		.cfi_endproc
 337              	.LFE35:
 338              		.size	TB9051_VehForward, .-TB9051_VehForward
ARM GAS  C:\Users\JamesH\AppData\Local\Temp\cc0uF4JC.s 			page 9


 339 0016 C046     		.section	.text.TB9051_Reverse,"ax",%progbits
 340              		.align	2
 341              		.global	TB9051_Reverse
 342              		.code	16
 343              		.thumb_func
 344              		.type	TB9051_Reverse, %function
 345              	TB9051_Reverse:
 346              	.LFB39:
  57:TB9051.c      ****     TB9051_Brake(motor);
 347              		.loc 1 57 0
 348              		.cfi_startproc
 349              		@ args = 0, pretend = 0, frame = 0
 350              		@ frame_needed = 0, uses_anonymous_args = 0
 351              	.LVL38:
 352 0000 70B5     		push	{r4, r5, r6, lr}
 353              		.cfi_def_cfa_offset 16
 354              		.cfi_offset 4, -16
 355              		.cfi_offset 5, -12
 356              		.cfi_offset 6, -8
 357              		.cfi_offset 14, -4
 358 0002 0400     		movs	r4, r0
 359 0004 0D00     		movs	r5, r1
  58:TB9051.c      ****     if (speed >= QuadPWM_MIN_DUTY_CYCLE & speed <= QuadPWM_MAX_DUTY_CYCLE) {
 360              		.loc 1 58 0
 361 0006 FFF7FEFF 		bl	TB9051_Brake
 362              	.LVL39:
  59:TB9051.c      ****         //PWM1 L, PWM2 H
 363              		.loc 1 59 0
 364 000a FF2D     		cmp	r5, #255
 365 000c 12D8     		bhi	.L16
  61:TB9051.c      ****             QuadPWM_SetDutyCycle(1,0);
 366              		.loc 1 61 0
 367 000e 002C     		cmp	r4, #0
 368 0010 08D1     		bne	.L18
  62:TB9051.c      ****             QuadPWM_SetDutyCycle(2,speed);
 369              		.loc 1 62 0
 370 0012 0021     		movs	r1, #0
 371 0014 0120     		movs	r0, #1
 372 0016 FFF7FEFF 		bl	QuadPWM_SetDutyCycle
 373              	.LVL40:
  63:TB9051.c      ****         }
 374              		.loc 1 63 0
 375 001a 2900     		movs	r1, r5
 376 001c 0220     		movs	r0, #2
 377 001e FFF7FEFF 		bl	QuadPWM_SetDutyCycle
 378              	.LVL41:
 379 0022 07E0     		b	.L16
 380              	.L18:
  66:TB9051.c      ****             QuadPWM_SetDutyCycle(4,speed);       
 381              		.loc 1 66 0
 382 0024 0021     		movs	r1, #0
 383 0026 0320     		movs	r0, #3
 384 0028 FFF7FEFF 		bl	QuadPWM_SetDutyCycle
 385              	.LVL42:
  67:TB9051.c      ****         }
 386              		.loc 1 67 0
 387 002c 2900     		movs	r1, r5
ARM GAS  C:\Users\JamesH\AppData\Local\Temp\cc0uF4JC.s 			page 10


 388 002e 0420     		movs	r0, #4
 389 0030 FFF7FEFF 		bl	QuadPWM_SetDutyCycle
 390              	.LVL43:
 391              	.L16:
  70:TB9051.c      **** 
 392              		.loc 1 70 0
 393              		@ sp needed
 394              	.LVL44:
 395              	.LVL45:
 396 0034 70BD     		pop	{r4, r5, r6, pc}
 397              		.cfi_endproc
 398              	.LFE39:
 399              		.size	TB9051_Reverse, .-TB9051_Reverse
 400 0036 C046     		.section	.text.TB9051_VehReverse,"ax",%progbits
 401              		.align	2
 402              		.global	TB9051_VehReverse
 403              		.code	16
 404              		.thumb_func
 405              		.type	TB9051_VehReverse, %function
 406              	TB9051_VehReverse:
 407              	.LFB36:
  30:TB9051.c      ****     TB9051_Reverse(0,speed);
 408              		.loc 1 30 0
 409              		.cfi_startproc
 410              		@ args = 0, pretend = 0, frame = 0
 411              		@ frame_needed = 0, uses_anonymous_args = 0
 412              	.LVL46:
 413 0000 10B5     		push	{r4, lr}
 414              		.cfi_def_cfa_offset 8
 415              		.cfi_offset 4, -8
 416              		.cfi_offset 14, -4
 417 0002 0400     		movs	r4, r0
  31:TB9051.c      ****     TB9051_Reverse(1,speed);
 418              		.loc 1 31 0
 419 0004 0100     		movs	r1, r0
 420 0006 0020     		movs	r0, #0
 421              	.LVL47:
 422 0008 FFF7FEFF 		bl	TB9051_Reverse
 423              	.LVL48:
  32:TB9051.c      **** }
 424              		.loc 1 32 0
 425 000c 2100     		movs	r1, r4
 426 000e 0120     		movs	r0, #1
 427 0010 FFF7FEFF 		bl	TB9051_Reverse
 428              	.LVL49:
  33:TB9051.c      **** 
 429              		.loc 1 33 0
 430              		@ sp needed
 431              	.LVL50:
 432 0014 10BD     		pop	{r4, pc}
 433              		.cfi_endproc
 434              	.LFE36:
 435              		.size	TB9051_VehReverse, .-TB9051_VehReverse
 436 0016 C046     		.section	.text.TB9051_VehMoveTo,"ax",%progbits
 437              		.align	2
 438              		.global	TB9051_VehMoveTo
 439              		.code	16
ARM GAS  C:\Users\JamesH\AppData\Local\Temp\cc0uF4JC.s 			page 11


 440              		.thumb_func
 441              		.type	TB9051_VehMoveTo, %function
 442              	TB9051_VehMoveTo:
 443              	.LFB41:
 100:TB9051.c      **** 
 101:TB9051.c      **** void TB9051_VehMoveTo(float x, float y){
 444              		.loc 1 101 0
 445              		.cfi_startproc
 446              		@ args = 0, pretend = 0, frame = 0
 447              		@ frame_needed = 0, uses_anonymous_args = 0
 448              		@ link register save eliminated.
 449              	.LVL51:
 102:TB9051.c      **** 
 103:TB9051.c      **** };
 450              		.loc 1 103 0
 451              		@ sp needed
 452 0000 7047     		bx	lr
 453              		.cfi_endproc
 454              	.LFE41:
 455              		.size	TB9051_VehMoveTo, .-TB9051_VehMoveTo
 456 0002 C046     		.text
 457              	.Letext0:
 458              		.file 2 "Generated_Source\\PSoC4/cytypes.h"
 459              		.file 3 "Generated_Source\\PSoC4/QuadPWM.h"
 460              		.file 4 "Generated_Source\\PSoC4/TB9051_EN.h"
 461              		.file 5 "Generated_Source\\PSoC4/CyLib.h"