ARM GAS  C:\Users\JamesH\AppData\Local\Temp\cczzGa08.s 			page 1


   1              		.syntax unified
   2              		.cpu cortex-m0
   3              		.fpu softvfp
   4              		.eabi_attribute 20, 1
   5              		.eabi_attribute 21, 1
   6              		.eabi_attribute 23, 3
   7              		.eabi_attribute 24, 1
   8              		.eabi_attribute 25, 1
   9              		.eabi_attribute 26, 1
  10              		.eabi_attribute 30, 1
  11              		.eabi_attribute 34, 0
  12              		.eabi_attribute 18, 4
  13              		.thumb
  14              		.syntax unified
  15              		.file	"UART_RPi_UART.c"
  16              		.text
  17              	.Ltext0:
  18              		.cfi_sections	.debug_frame
  19              		.section	.text.UART_RPi_UartInit,"ax",%progbits
  20              		.align	2
  21              		.global	UART_RPi_UartInit
  22              		.code	16
  23              		.thumb_func
  24              		.type	UART_RPi_UartInit, %function
  25              	UART_RPi_UartInit:
  26              	.LFB1:
  27              		.file 1 "Generated_Source\\PSoC4\\UART_RPi_UART.c"
   1:Generated_Source\PSoC4/UART_RPi_UART.c **** /***************************************************************************//**
   2:Generated_Source\PSoC4/UART_RPi_UART.c **** * \file UART_RPi_UART.c
   3:Generated_Source\PSoC4/UART_RPi_UART.c **** * \version 4.0
   4:Generated_Source\PSoC4/UART_RPi_UART.c **** *
   5:Generated_Source\PSoC4/UART_RPi_UART.c **** * \brief
   6:Generated_Source\PSoC4/UART_RPi_UART.c **** *  This file provides the source code to the API for the SCB Component in
   7:Generated_Source\PSoC4/UART_RPi_UART.c **** *  UART mode.
   8:Generated_Source\PSoC4/UART_RPi_UART.c **** *
   9:Generated_Source\PSoC4/UART_RPi_UART.c **** * Note:
  10:Generated_Source\PSoC4/UART_RPi_UART.c **** *
  11:Generated_Source\PSoC4/UART_RPi_UART.c **** *******************************************************************************
  12:Generated_Source\PSoC4/UART_RPi_UART.c **** * \copyright
  13:Generated_Source\PSoC4/UART_RPi_UART.c **** * Copyright 2013-2017, Cypress Semiconductor Corporation.  All rights reserved.
  14:Generated_Source\PSoC4/UART_RPi_UART.c **** * You may use this file only in accordance with the license, terms, conditions,
  15:Generated_Source\PSoC4/UART_RPi_UART.c **** * disclaimers, and limitations in the end user license agreement accompanying
  16:Generated_Source\PSoC4/UART_RPi_UART.c **** * the software package with which this file was provided.
  17:Generated_Source\PSoC4/UART_RPi_UART.c **** *******************************************************************************/
  18:Generated_Source\PSoC4/UART_RPi_UART.c **** 
  19:Generated_Source\PSoC4/UART_RPi_UART.c **** #include "UART_RPi_PVT.h"
  20:Generated_Source\PSoC4/UART_RPi_UART.c **** #include "UART_RPi_SPI_UART_PVT.h"
  21:Generated_Source\PSoC4/UART_RPi_UART.c **** #include "cyapicallbacks.h"
  22:Generated_Source\PSoC4/UART_RPi_UART.c **** 
  23:Generated_Source\PSoC4/UART_RPi_UART.c **** #if (UART_RPi_UART_WAKE_ENABLE_CONST && UART_RPi_UART_RX_WAKEUP_IRQ)
  24:Generated_Source\PSoC4/UART_RPi_UART.c ****     /**
  25:Generated_Source\PSoC4/UART_RPi_UART.c ****     * \addtogroup group_globals
  26:Generated_Source\PSoC4/UART_RPi_UART.c ****     * \{
  27:Generated_Source\PSoC4/UART_RPi_UART.c ****     */
  28:Generated_Source\PSoC4/UART_RPi_UART.c ****     /** This global variable determines whether to enable Skip Start
  29:Generated_Source\PSoC4/UART_RPi_UART.c ****     * functionality when UART_RPi_Sleep() function is called:
  30:Generated_Source\PSoC4/UART_RPi_UART.c ****     * 0 – disable, other values – enable. Default value is 1.
ARM GAS  C:\Users\JamesH\AppData\Local\Temp\cczzGa08.s 			page 2


  31:Generated_Source\PSoC4/UART_RPi_UART.c ****     * It is only available when Enable wakeup from Deep Sleep Mode is enabled.
  32:Generated_Source\PSoC4/UART_RPi_UART.c ****     */
  33:Generated_Source\PSoC4/UART_RPi_UART.c ****     uint8 UART_RPi_skipStart = 1u;
  34:Generated_Source\PSoC4/UART_RPi_UART.c ****     /** \} globals */
  35:Generated_Source\PSoC4/UART_RPi_UART.c **** #endif /* (UART_RPi_UART_WAKE_ENABLE_CONST && UART_RPi_UART_RX_WAKEUP_IRQ) */
  36:Generated_Source\PSoC4/UART_RPi_UART.c **** 
  37:Generated_Source\PSoC4/UART_RPi_UART.c **** #if(UART_RPi_SCB_MODE_UNCONFIG_CONST_CFG)
  38:Generated_Source\PSoC4/UART_RPi_UART.c **** 
  39:Generated_Source\PSoC4/UART_RPi_UART.c ****     /***************************************
  40:Generated_Source\PSoC4/UART_RPi_UART.c ****     *  Configuration Structure Initialization
  41:Generated_Source\PSoC4/UART_RPi_UART.c ****     ***************************************/
  42:Generated_Source\PSoC4/UART_RPi_UART.c **** 
  43:Generated_Source\PSoC4/UART_RPi_UART.c ****     const UART_RPi_UART_INIT_STRUCT UART_RPi_configUart =
  44:Generated_Source\PSoC4/UART_RPi_UART.c ****     {
  45:Generated_Source\PSoC4/UART_RPi_UART.c ****         UART_RPi_UART_SUB_MODE,
  46:Generated_Source\PSoC4/UART_RPi_UART.c ****         UART_RPi_UART_DIRECTION,
  47:Generated_Source\PSoC4/UART_RPi_UART.c ****         UART_RPi_UART_DATA_BITS_NUM,
  48:Generated_Source\PSoC4/UART_RPi_UART.c ****         UART_RPi_UART_PARITY_TYPE,
  49:Generated_Source\PSoC4/UART_RPi_UART.c ****         UART_RPi_UART_STOP_BITS_NUM,
  50:Generated_Source\PSoC4/UART_RPi_UART.c ****         UART_RPi_UART_OVS_FACTOR,
  51:Generated_Source\PSoC4/UART_RPi_UART.c ****         UART_RPi_UART_IRDA_LOW_POWER,
  52:Generated_Source\PSoC4/UART_RPi_UART.c ****         UART_RPi_UART_MEDIAN_FILTER_ENABLE,
  53:Generated_Source\PSoC4/UART_RPi_UART.c ****         UART_RPi_UART_RETRY_ON_NACK,
  54:Generated_Source\PSoC4/UART_RPi_UART.c ****         UART_RPi_UART_IRDA_POLARITY,
  55:Generated_Source\PSoC4/UART_RPi_UART.c ****         UART_RPi_UART_DROP_ON_PARITY_ERR,
  56:Generated_Source\PSoC4/UART_RPi_UART.c ****         UART_RPi_UART_DROP_ON_FRAME_ERR,
  57:Generated_Source\PSoC4/UART_RPi_UART.c ****         UART_RPi_UART_WAKE_ENABLE,
  58:Generated_Source\PSoC4/UART_RPi_UART.c ****         0u,
  59:Generated_Source\PSoC4/UART_RPi_UART.c ****         NULL,
  60:Generated_Source\PSoC4/UART_RPi_UART.c ****         0u,
  61:Generated_Source\PSoC4/UART_RPi_UART.c ****         NULL,
  62:Generated_Source\PSoC4/UART_RPi_UART.c ****         UART_RPi_UART_MP_MODE_ENABLE,
  63:Generated_Source\PSoC4/UART_RPi_UART.c ****         UART_RPi_UART_MP_ACCEPT_ADDRESS,
  64:Generated_Source\PSoC4/UART_RPi_UART.c ****         UART_RPi_UART_MP_RX_ADDRESS,
  65:Generated_Source\PSoC4/UART_RPi_UART.c ****         UART_RPi_UART_MP_RX_ADDRESS_MASK,
  66:Generated_Source\PSoC4/UART_RPi_UART.c ****         (uint32) UART_RPi_SCB_IRQ_INTERNAL,
  67:Generated_Source\PSoC4/UART_RPi_UART.c ****         UART_RPi_UART_INTR_RX_MASK,
  68:Generated_Source\PSoC4/UART_RPi_UART.c ****         UART_RPi_UART_RX_TRIGGER_LEVEL,
  69:Generated_Source\PSoC4/UART_RPi_UART.c ****         UART_RPi_UART_INTR_TX_MASK,
  70:Generated_Source\PSoC4/UART_RPi_UART.c ****         UART_RPi_UART_TX_TRIGGER_LEVEL,
  71:Generated_Source\PSoC4/UART_RPi_UART.c ****         (uint8) UART_RPi_UART_BYTE_MODE_ENABLE,
  72:Generated_Source\PSoC4/UART_RPi_UART.c ****         (uint8) UART_RPi_UART_CTS_ENABLE,
  73:Generated_Source\PSoC4/UART_RPi_UART.c ****         (uint8) UART_RPi_UART_CTS_POLARITY,
  74:Generated_Source\PSoC4/UART_RPi_UART.c ****         (uint8) UART_RPi_UART_RTS_POLARITY,
  75:Generated_Source\PSoC4/UART_RPi_UART.c ****         (uint8) UART_RPi_UART_RTS_FIFO_LEVEL,
  76:Generated_Source\PSoC4/UART_RPi_UART.c ****         (uint8) UART_RPi_UART_RX_BREAK_WIDTH
  77:Generated_Source\PSoC4/UART_RPi_UART.c ****     };
  78:Generated_Source\PSoC4/UART_RPi_UART.c **** 
  79:Generated_Source\PSoC4/UART_RPi_UART.c **** 
  80:Generated_Source\PSoC4/UART_RPi_UART.c ****     /*******************************************************************************
  81:Generated_Source\PSoC4/UART_RPi_UART.c ****     * Function Name: UART_RPi_UartInit
  82:Generated_Source\PSoC4/UART_RPi_UART.c ****     ****************************************************************************//**
  83:Generated_Source\PSoC4/UART_RPi_UART.c ****     *
  84:Generated_Source\PSoC4/UART_RPi_UART.c ****     *  Configures the UART_RPi for UART operation.
  85:Generated_Source\PSoC4/UART_RPi_UART.c ****     *
  86:Generated_Source\PSoC4/UART_RPi_UART.c ****     *  This function is intended specifically to be used when the UART_RPi
  87:Generated_Source\PSoC4/UART_RPi_UART.c ****     *  configuration is set to “Unconfigured UART_RPi” in the customizer.
ARM GAS  C:\Users\JamesH\AppData\Local\Temp\cczzGa08.s 			page 3


  88:Generated_Source\PSoC4/UART_RPi_UART.c ****     *  After initializing the UART_RPi in UART mode using this function,
  89:Generated_Source\PSoC4/UART_RPi_UART.c ****     *  the component can be enabled using the UART_RPi_Start() or
  90:Generated_Source\PSoC4/UART_RPi_UART.c ****     * UART_RPi_Enable() function.
  91:Generated_Source\PSoC4/UART_RPi_UART.c ****     *  This function uses a pointer to a structure that provides the configuration
  92:Generated_Source\PSoC4/UART_RPi_UART.c ****     *  settings. This structure contains the same information that would otherwise
  93:Generated_Source\PSoC4/UART_RPi_UART.c ****     *  be provided by the customizer settings.
  94:Generated_Source\PSoC4/UART_RPi_UART.c ****     *
  95:Generated_Source\PSoC4/UART_RPi_UART.c ****     *  \param config: pointer to a structure that contains the following list of
  96:Generated_Source\PSoC4/UART_RPi_UART.c ****     *   fields. These fields match the selections available in the customizer.
  97:Generated_Source\PSoC4/UART_RPi_UART.c ****     *   Refer to the customizer for further description of the settings.
  98:Generated_Source\PSoC4/UART_RPi_UART.c ****     *
  99:Generated_Source\PSoC4/UART_RPi_UART.c ****     *******************************************************************************/
 100:Generated_Source\PSoC4/UART_RPi_UART.c ****     void UART_RPi_UartInit(const UART_RPi_UART_INIT_STRUCT *config)
 101:Generated_Source\PSoC4/UART_RPi_UART.c ****     {
 102:Generated_Source\PSoC4/UART_RPi_UART.c ****         uint32 pinsConfig;
 103:Generated_Source\PSoC4/UART_RPi_UART.c **** 
 104:Generated_Source\PSoC4/UART_RPi_UART.c ****         if (NULL == config)
 105:Generated_Source\PSoC4/UART_RPi_UART.c ****         {
 106:Generated_Source\PSoC4/UART_RPi_UART.c ****             CYASSERT(0u != 0u); /* Halt execution due to bad function parameter */
 107:Generated_Source\PSoC4/UART_RPi_UART.c ****         }
 108:Generated_Source\PSoC4/UART_RPi_UART.c ****         else
 109:Generated_Source\PSoC4/UART_RPi_UART.c ****         {
 110:Generated_Source\PSoC4/UART_RPi_UART.c ****             /* Get direction to configure UART pins: TX, RX or TX+RX */
 111:Generated_Source\PSoC4/UART_RPi_UART.c ****             pinsConfig  = config->direction;
 112:Generated_Source\PSoC4/UART_RPi_UART.c **** 
 113:Generated_Source\PSoC4/UART_RPi_UART.c ****         #if !(UART_RPi_CY_SCBIP_V0 || UART_RPi_CY_SCBIP_V1)
 114:Generated_Source\PSoC4/UART_RPi_UART.c ****             /* Add RTS and CTS pins to configure */
 115:Generated_Source\PSoC4/UART_RPi_UART.c ****             pinsConfig |= (0u != config->rtsRxFifoLevel) ? (UART_RPi_UART_RTS_PIN_ENABLE) : (0u);
 116:Generated_Source\PSoC4/UART_RPi_UART.c ****             pinsConfig |= (0u != config->enableCts)      ? (UART_RPi_UART_CTS_PIN_ENABLE) : (0u);
 117:Generated_Source\PSoC4/UART_RPi_UART.c ****         #endif /* !(UART_RPi_CY_SCBIP_V0 || UART_RPi_CY_SCBIP_V1) */
 118:Generated_Source\PSoC4/UART_RPi_UART.c **** 
 119:Generated_Source\PSoC4/UART_RPi_UART.c ****             /* Configure pins */
 120:Generated_Source\PSoC4/UART_RPi_UART.c ****             UART_RPi_SetPins(UART_RPi_SCB_MODE_UART, config->mode, pinsConfig);
 121:Generated_Source\PSoC4/UART_RPi_UART.c **** 
 122:Generated_Source\PSoC4/UART_RPi_UART.c ****             /* Store internal configuration */
 123:Generated_Source\PSoC4/UART_RPi_UART.c ****             UART_RPi_scbMode       = (uint8) UART_RPi_SCB_MODE_UART;
 124:Generated_Source\PSoC4/UART_RPi_UART.c ****             UART_RPi_scbEnableWake = (uint8) config->enableWake;
 125:Generated_Source\PSoC4/UART_RPi_UART.c ****             UART_RPi_scbEnableIntr = (uint8) config->enableInterrupt;
 126:Generated_Source\PSoC4/UART_RPi_UART.c **** 
 127:Generated_Source\PSoC4/UART_RPi_UART.c ****             /* Set RX direction internal variables */
 128:Generated_Source\PSoC4/UART_RPi_UART.c ****             UART_RPi_rxBuffer      =         config->rxBuffer;
 129:Generated_Source\PSoC4/UART_RPi_UART.c ****             UART_RPi_rxDataBits    = (uint8) config->dataBits;
 130:Generated_Source\PSoC4/UART_RPi_UART.c ****             UART_RPi_rxBufferSize  =         config->rxBufferSize;
 131:Generated_Source\PSoC4/UART_RPi_UART.c **** 
 132:Generated_Source\PSoC4/UART_RPi_UART.c ****             /* Set TX direction internal variables */
 133:Generated_Source\PSoC4/UART_RPi_UART.c ****             UART_RPi_txBuffer      =         config->txBuffer;
 134:Generated_Source\PSoC4/UART_RPi_UART.c ****             UART_RPi_txDataBits    = (uint8) config->dataBits;
 135:Generated_Source\PSoC4/UART_RPi_UART.c ****             UART_RPi_txBufferSize  =         config->txBufferSize;
 136:Generated_Source\PSoC4/UART_RPi_UART.c **** 
 137:Generated_Source\PSoC4/UART_RPi_UART.c ****             /* Configure UART interface */
 138:Generated_Source\PSoC4/UART_RPi_UART.c ****             if(UART_RPi_UART_MODE_IRDA == config->mode)
 139:Generated_Source\PSoC4/UART_RPi_UART.c ****             {
 140:Generated_Source\PSoC4/UART_RPi_UART.c ****                 /* OVS settings: IrDA */
 141:Generated_Source\PSoC4/UART_RPi_UART.c ****                 UART_RPi_CTRL_REG  = ((0u != config->enableIrdaLowPower) ?
 142:Generated_Source\PSoC4/UART_RPi_UART.c ****                                                 (UART_RPi_UART_GET_CTRL_OVS_IRDA_LP(config->oversam
 143:Generated_Source\PSoC4/UART_RPi_UART.c ****                                                 (UART_RPi_CTRL_OVS_IRDA_OVS16));
 144:Generated_Source\PSoC4/UART_RPi_UART.c ****             }
ARM GAS  C:\Users\JamesH\AppData\Local\Temp\cczzGa08.s 			page 4


 145:Generated_Source\PSoC4/UART_RPi_UART.c ****             else
 146:Generated_Source\PSoC4/UART_RPi_UART.c ****             {
 147:Generated_Source\PSoC4/UART_RPi_UART.c ****                 /* OVS settings: UART and SmartCard */
 148:Generated_Source\PSoC4/UART_RPi_UART.c ****                 UART_RPi_CTRL_REG  = UART_RPi_GET_CTRL_OVS(config->oversample);
 149:Generated_Source\PSoC4/UART_RPi_UART.c ****             }
 150:Generated_Source\PSoC4/UART_RPi_UART.c **** 
 151:Generated_Source\PSoC4/UART_RPi_UART.c ****             UART_RPi_CTRL_REG     |= UART_RPi_GET_CTRL_BYTE_MODE  (config->enableByteMode)      |
 152:Generated_Source\PSoC4/UART_RPi_UART.c ****                                              UART_RPi_GET_CTRL_ADDR_ACCEPT(config->multiprocAcceptA
 153:Generated_Source\PSoC4/UART_RPi_UART.c ****                                              UART_RPi_CTRL_UART;
 154:Generated_Source\PSoC4/UART_RPi_UART.c **** 
 155:Generated_Source\PSoC4/UART_RPi_UART.c ****             /* Configure sub-mode: UART, SmartCard or IrDA */
 156:Generated_Source\PSoC4/UART_RPi_UART.c ****             UART_RPi_UART_CTRL_REG = UART_RPi_GET_UART_CTRL_MODE(config->mode);
 157:Generated_Source\PSoC4/UART_RPi_UART.c **** 
 158:Generated_Source\PSoC4/UART_RPi_UART.c ****             /* Configure RX direction */
 159:Generated_Source\PSoC4/UART_RPi_UART.c ****             UART_RPi_UART_RX_CTRL_REG = UART_RPi_GET_UART_RX_CTRL_MODE(config->stopBits)           
 160:Generated_Source\PSoC4/UART_RPi_UART.c ****                                         UART_RPi_GET_UART_RX_CTRL_POLARITY(config->enableInvertedRx
 161:Generated_Source\PSoC4/UART_RPi_UART.c ****                                         UART_RPi_GET_UART_RX_CTRL_MP_MODE(config->enableMultiproc) 
 162:Generated_Source\PSoC4/UART_RPi_UART.c ****                                         UART_RPi_GET_UART_RX_CTRL_DROP_ON_PARITY_ERR(config->dropOn
 163:Generated_Source\PSoC4/UART_RPi_UART.c ****                                         UART_RPi_GET_UART_RX_CTRL_DROP_ON_FRAME_ERR(config->dropOnF
 164:Generated_Source\PSoC4/UART_RPi_UART.c ****                                         UART_RPi_GET_UART_RX_CTRL_BREAK_WIDTH(config->breakWidth);
 165:Generated_Source\PSoC4/UART_RPi_UART.c **** 
 166:Generated_Source\PSoC4/UART_RPi_UART.c ****             if(UART_RPi_UART_PARITY_NONE != config->parity)
 167:Generated_Source\PSoC4/UART_RPi_UART.c ****             {
 168:Generated_Source\PSoC4/UART_RPi_UART.c ****                UART_RPi_UART_RX_CTRL_REG |= UART_RPi_GET_UART_RX_CTRL_PARITY(config->parity) |
 169:Generated_Source\PSoC4/UART_RPi_UART.c ****                                                     UART_RPi_UART_RX_CTRL_PARITY_ENABLED;
 170:Generated_Source\PSoC4/UART_RPi_UART.c ****             }
 171:Generated_Source\PSoC4/UART_RPi_UART.c **** 
 172:Generated_Source\PSoC4/UART_RPi_UART.c ****             UART_RPi_RX_CTRL_REG      = UART_RPi_GET_RX_CTRL_DATA_WIDTH(config->dataBits)       |
 173:Generated_Source\PSoC4/UART_RPi_UART.c ****                                                 UART_RPi_GET_RX_CTRL_MEDIAN(config->enableMedianFil
 174:Generated_Source\PSoC4/UART_RPi_UART.c ****                                                 UART_RPi_GET_UART_RX_CTRL_ENABLED(config->direction
 175:Generated_Source\PSoC4/UART_RPi_UART.c **** 
 176:Generated_Source\PSoC4/UART_RPi_UART.c ****             UART_RPi_RX_FIFO_CTRL_REG = UART_RPi_GET_RX_FIFO_CTRL_TRIGGER_LEVEL(config->rxTriggerLe
 177:Generated_Source\PSoC4/UART_RPi_UART.c **** 
 178:Generated_Source\PSoC4/UART_RPi_UART.c ****             /* Configure MP address */
 179:Generated_Source\PSoC4/UART_RPi_UART.c ****             UART_RPi_RX_MATCH_REG     = UART_RPi_GET_RX_MATCH_ADDR(config->multiprocAddr) |
 180:Generated_Source\PSoC4/UART_RPi_UART.c ****                                                 UART_RPi_GET_RX_MATCH_MASK(config->multiprocAddrMas
 181:Generated_Source\PSoC4/UART_RPi_UART.c **** 
 182:Generated_Source\PSoC4/UART_RPi_UART.c ****             /* Configure RX direction */
 183:Generated_Source\PSoC4/UART_RPi_UART.c ****             UART_RPi_UART_TX_CTRL_REG = UART_RPi_GET_UART_TX_CTRL_MODE(config->stopBits) |
 184:Generated_Source\PSoC4/UART_RPi_UART.c ****                                                 UART_RPi_GET_UART_TX_CTRL_RETRY_NACK(config->enable
 185:Generated_Source\PSoC4/UART_RPi_UART.c **** 
 186:Generated_Source\PSoC4/UART_RPi_UART.c ****             if(UART_RPi_UART_PARITY_NONE != config->parity)
 187:Generated_Source\PSoC4/UART_RPi_UART.c ****             {
 188:Generated_Source\PSoC4/UART_RPi_UART.c ****                UART_RPi_UART_TX_CTRL_REG |= UART_RPi_GET_UART_TX_CTRL_PARITY(config->parity) |
 189:Generated_Source\PSoC4/UART_RPi_UART.c ****                                                     UART_RPi_UART_TX_CTRL_PARITY_ENABLED;
 190:Generated_Source\PSoC4/UART_RPi_UART.c ****             }
 191:Generated_Source\PSoC4/UART_RPi_UART.c **** 
 192:Generated_Source\PSoC4/UART_RPi_UART.c ****             UART_RPi_TX_CTRL_REG      = UART_RPi_GET_TX_CTRL_DATA_WIDTH(config->dataBits)    |
 193:Generated_Source\PSoC4/UART_RPi_UART.c ****                                                 UART_RPi_GET_UART_TX_CTRL_ENABLED(config->direction
 194:Generated_Source\PSoC4/UART_RPi_UART.c **** 
 195:Generated_Source\PSoC4/UART_RPi_UART.c ****             UART_RPi_TX_FIFO_CTRL_REG = UART_RPi_GET_TX_FIFO_CTRL_TRIGGER_LEVEL(config->txTriggerLe
 196:Generated_Source\PSoC4/UART_RPi_UART.c **** 
 197:Generated_Source\PSoC4/UART_RPi_UART.c ****         #if !(UART_RPi_CY_SCBIP_V0 || UART_RPi_CY_SCBIP_V1)
 198:Generated_Source\PSoC4/UART_RPi_UART.c ****             UART_RPi_UART_FLOW_CTRL_REG = UART_RPi_GET_UART_FLOW_CTRL_CTS_ENABLE(config->enableCts)
 199:Generated_Source\PSoC4/UART_RPi_UART.c ****                                             UART_RPi_GET_UART_FLOW_CTRL_CTS_POLARITY (config->ctsPo
 200:Generated_Source\PSoC4/UART_RPi_UART.c ****                                             UART_RPi_GET_UART_FLOW_CTRL_RTS_POLARITY (config->rtsPo
 201:Generated_Source\PSoC4/UART_RPi_UART.c ****                                             UART_RPi_GET_UART_FLOW_CTRL_TRIGGER_LEVEL(config->rtsRx
ARM GAS  C:\Users\JamesH\AppData\Local\Temp\cczzGa08.s 			page 5


 202:Generated_Source\PSoC4/UART_RPi_UART.c ****         #endif /* !(UART_RPi_CY_SCBIP_V0 || UART_RPi_CY_SCBIP_V1) */
 203:Generated_Source\PSoC4/UART_RPi_UART.c **** 
 204:Generated_Source\PSoC4/UART_RPi_UART.c ****             /* Configure interrupt with UART handler but do not enable it */
 205:Generated_Source\PSoC4/UART_RPi_UART.c ****             CyIntDisable    (UART_RPi_ISR_NUMBER);
 206:Generated_Source\PSoC4/UART_RPi_UART.c ****             CyIntSetPriority(UART_RPi_ISR_NUMBER, UART_RPi_ISR_PRIORITY);
 207:Generated_Source\PSoC4/UART_RPi_UART.c ****             (void) CyIntSetVector(UART_RPi_ISR_NUMBER, &UART_RPi_SPI_UART_ISR);
 208:Generated_Source\PSoC4/UART_RPi_UART.c **** 
 209:Generated_Source\PSoC4/UART_RPi_UART.c ****             /* Configure WAKE interrupt */
 210:Generated_Source\PSoC4/UART_RPi_UART.c ****         #if(UART_RPi_UART_RX_WAKEUP_IRQ)
 211:Generated_Source\PSoC4/UART_RPi_UART.c ****             CyIntDisable    (UART_RPi_RX_WAKE_ISR_NUMBER);
 212:Generated_Source\PSoC4/UART_RPi_UART.c ****             CyIntSetPriority(UART_RPi_RX_WAKE_ISR_NUMBER, UART_RPi_RX_WAKE_ISR_PRIORITY);
 213:Generated_Source\PSoC4/UART_RPi_UART.c ****             (void) CyIntSetVector(UART_RPi_RX_WAKE_ISR_NUMBER, &UART_RPi_UART_WAKEUP_ISR);
 214:Generated_Source\PSoC4/UART_RPi_UART.c ****         #endif /* (UART_RPi_UART_RX_WAKEUP_IRQ) */
 215:Generated_Source\PSoC4/UART_RPi_UART.c **** 
 216:Generated_Source\PSoC4/UART_RPi_UART.c ****             /* Configure interrupt sources */
 217:Generated_Source\PSoC4/UART_RPi_UART.c ****             UART_RPi_INTR_I2C_EC_MASK_REG = UART_RPi_NO_INTR_SOURCES;
 218:Generated_Source\PSoC4/UART_RPi_UART.c ****             UART_RPi_INTR_SPI_EC_MASK_REG = UART_RPi_NO_INTR_SOURCES;
 219:Generated_Source\PSoC4/UART_RPi_UART.c ****             UART_RPi_INTR_SLAVE_MASK_REG  = UART_RPi_NO_INTR_SOURCES;
 220:Generated_Source\PSoC4/UART_RPi_UART.c ****             UART_RPi_INTR_MASTER_MASK_REG = UART_RPi_NO_INTR_SOURCES;
 221:Generated_Source\PSoC4/UART_RPi_UART.c ****             UART_RPi_INTR_RX_MASK_REG     = config->rxInterruptMask;
 222:Generated_Source\PSoC4/UART_RPi_UART.c ****             UART_RPi_INTR_TX_MASK_REG     = config->txInterruptMask;
 223:Generated_Source\PSoC4/UART_RPi_UART.c **** 
 224:Generated_Source\PSoC4/UART_RPi_UART.c ****             /* Configure TX interrupt sources to restore. */
 225:Generated_Source\PSoC4/UART_RPi_UART.c ****             UART_RPi_IntrTxMask = LO16(UART_RPi_INTR_TX_MASK_REG);
 226:Generated_Source\PSoC4/UART_RPi_UART.c **** 
 227:Generated_Source\PSoC4/UART_RPi_UART.c ****             /* Clear RX buffer indexes */
 228:Generated_Source\PSoC4/UART_RPi_UART.c ****             UART_RPi_rxBufferHead     = 0u;
 229:Generated_Source\PSoC4/UART_RPi_UART.c ****             UART_RPi_rxBufferTail     = 0u;
 230:Generated_Source\PSoC4/UART_RPi_UART.c ****             UART_RPi_rxBufferOverflow = 0u;
 231:Generated_Source\PSoC4/UART_RPi_UART.c **** 
 232:Generated_Source\PSoC4/UART_RPi_UART.c ****             /* Clear TX buffer indexes */
 233:Generated_Source\PSoC4/UART_RPi_UART.c ****             UART_RPi_txBufferHead = 0u;
 234:Generated_Source\PSoC4/UART_RPi_UART.c ****             UART_RPi_txBufferTail = 0u;
 235:Generated_Source\PSoC4/UART_RPi_UART.c ****         }
 236:Generated_Source\PSoC4/UART_RPi_UART.c ****     }
 237:Generated_Source\PSoC4/UART_RPi_UART.c **** 
 238:Generated_Source\PSoC4/UART_RPi_UART.c **** #else
 239:Generated_Source\PSoC4/UART_RPi_UART.c **** 
 240:Generated_Source\PSoC4/UART_RPi_UART.c ****     /*******************************************************************************
 241:Generated_Source\PSoC4/UART_RPi_UART.c ****     * Function Name: UART_RPi_UartInit
 242:Generated_Source\PSoC4/UART_RPi_UART.c ****     ****************************************************************************//**
 243:Generated_Source\PSoC4/UART_RPi_UART.c ****     *
 244:Generated_Source\PSoC4/UART_RPi_UART.c ****     *  Configures the SCB for the UART operation.
 245:Generated_Source\PSoC4/UART_RPi_UART.c ****     *
 246:Generated_Source\PSoC4/UART_RPi_UART.c ****     *******************************************************************************/
 247:Generated_Source\PSoC4/UART_RPi_UART.c ****     void UART_RPi_UartInit(void)
 248:Generated_Source\PSoC4/UART_RPi_UART.c ****     {
  28              		.loc 1 248 0
  29              		.cfi_startproc
  30              		@ args = 0, pretend = 0, frame = 0
  31              		@ frame_needed = 0, uses_anonymous_args = 0
  32 0000 10B5     		push	{r4, lr}
  33              		.cfi_def_cfa_offset 8
  34              		.cfi_offset 4, -8
  35              		.cfi_offset 14, -4
 249:Generated_Source\PSoC4/UART_RPi_UART.c ****         /* Configure UART interface */
 250:Generated_Source\PSoC4/UART_RPi_UART.c ****         UART_RPi_CTRL_REG = UART_RPi_UART_DEFAULT_CTRL;
ARM GAS  C:\Users\JamesH\AppData\Local\Temp\cczzGa08.s 			page 6


  36              		.loc 1 250 0
  37 0002 204A     		ldr	r2, .L2
  38 0004 204B     		ldr	r3, .L2+4
  39 0006 1A60     		str	r2, [r3]
 251:Generated_Source\PSoC4/UART_RPi_UART.c **** 
 252:Generated_Source\PSoC4/UART_RPi_UART.c ****         /* Configure sub-mode: UART, SmartCard or IrDA */
 253:Generated_Source\PSoC4/UART_RPi_UART.c ****         UART_RPi_UART_CTRL_REG = UART_RPi_UART_DEFAULT_UART_CTRL;
  40              		.loc 1 253 0
  41 0008 0024     		movs	r4, #0
  42 000a 204B     		ldr	r3, .L2+8
  43 000c 1C60     		str	r4, [r3]
 254:Generated_Source\PSoC4/UART_RPi_UART.c **** 
 255:Generated_Source\PSoC4/UART_RPi_UART.c ****         /* Configure RX direction */
 256:Generated_Source\PSoC4/UART_RPi_UART.c ****         UART_RPi_UART_RX_CTRL_REG = UART_RPi_UART_DEFAULT_UART_RX_CTRL;
  44              		.loc 1 256 0
  45 000e 204A     		ldr	r2, .L2+12
  46 0010 204B     		ldr	r3, .L2+16
  47 0012 1A60     		str	r2, [r3]
 257:Generated_Source\PSoC4/UART_RPi_UART.c ****         UART_RPi_RX_CTRL_REG      = UART_RPi_UART_DEFAULT_RX_CTRL;
  48              		.loc 1 257 0
  49 0014 204B     		ldr	r3, .L2+20
  50 0016 214A     		ldr	r2, .L2+24
  51 0018 1360     		str	r3, [r2]
 258:Generated_Source\PSoC4/UART_RPi_UART.c ****         UART_RPi_RX_FIFO_CTRL_REG = UART_RPi_UART_DEFAULT_RX_FIFO_CTRL;
  52              		.loc 1 258 0
  53 001a 0721     		movs	r1, #7
  54 001c 204A     		ldr	r2, .L2+28
  55 001e 1160     		str	r1, [r2]
 259:Generated_Source\PSoC4/UART_RPi_UART.c ****         UART_RPi_RX_MATCH_REG     = UART_RPi_UART_DEFAULT_RX_MATCH_REG;
  56              		.loc 1 259 0
  57 0020 204A     		ldr	r2, .L2+32
  58 0022 1460     		str	r4, [r2]
 260:Generated_Source\PSoC4/UART_RPi_UART.c **** 
 261:Generated_Source\PSoC4/UART_RPi_UART.c ****         /* Configure TX direction */
 262:Generated_Source\PSoC4/UART_RPi_UART.c ****         UART_RPi_UART_TX_CTRL_REG = UART_RPi_UART_DEFAULT_UART_TX_CTRL;
  59              		.loc 1 262 0
  60 0024 0639     		subs	r1, r1, #6
  61 0026 204A     		ldr	r2, .L2+36
  62 0028 1160     		str	r1, [r2]
 263:Generated_Source\PSoC4/UART_RPi_UART.c ****         UART_RPi_TX_CTRL_REG      = UART_RPi_UART_DEFAULT_TX_CTRL;
  63              		.loc 1 263 0
  64 002a 204A     		ldr	r2, .L2+40
  65 002c 1360     		str	r3, [r2]
 264:Generated_Source\PSoC4/UART_RPi_UART.c ****         UART_RPi_TX_FIFO_CTRL_REG = UART_RPi_UART_DEFAULT_TX_FIFO_CTRL;
  66              		.loc 1 264 0
  67 002e 204B     		ldr	r3, .L2+44
  68 0030 1C60     		str	r4, [r3]
 265:Generated_Source\PSoC4/UART_RPi_UART.c **** 
 266:Generated_Source\PSoC4/UART_RPi_UART.c ****     #if !(UART_RPi_CY_SCBIP_V0 || UART_RPi_CY_SCBIP_V1)
 267:Generated_Source\PSoC4/UART_RPi_UART.c ****         UART_RPi_UART_FLOW_CTRL_REG = UART_RPi_UART_DEFAULT_FLOW_CTRL;
  69              		.loc 1 267 0
  70 0032 0422     		movs	r2, #4
  71 0034 1F4B     		ldr	r3, .L2+48
  72 0036 1A60     		str	r2, [r3]
 268:Generated_Source\PSoC4/UART_RPi_UART.c ****     #endif /* !(UART_RPi_CY_SCBIP_V0 || UART_RPi_CY_SCBIP_V1) */
 269:Generated_Source\PSoC4/UART_RPi_UART.c **** 
 270:Generated_Source\PSoC4/UART_RPi_UART.c ****         /* Configure interrupt with UART handler but do not enable it */
ARM GAS  C:\Users\JamesH\AppData\Local\Temp\cczzGa08.s 			page 7


 271:Generated_Source\PSoC4/UART_RPi_UART.c ****     #if(UART_RPi_SCB_IRQ_INTERNAL)
 272:Generated_Source\PSoC4/UART_RPi_UART.c ****         CyIntDisable    (UART_RPi_ISR_NUMBER);
  73              		.loc 1 272 0
  74 0038 0A20     		movs	r0, #10
  75 003a FFF7FEFF 		bl	CyIntDisable
  76              	.LVL0:
 273:Generated_Source\PSoC4/UART_RPi_UART.c ****         CyIntSetPriority(UART_RPi_ISR_NUMBER, UART_RPi_ISR_PRIORITY);
  77              		.loc 1 273 0
  78 003e 0321     		movs	r1, #3
  79 0040 0A20     		movs	r0, #10
  80 0042 FFF7FEFF 		bl	CyIntSetPriority
  81              	.LVL1:
 274:Generated_Source\PSoC4/UART_RPi_UART.c ****         (void) CyIntSetVector(UART_RPi_ISR_NUMBER, &UART_RPi_SPI_UART_ISR);
  82              		.loc 1 274 0
  83 0046 1C49     		ldr	r1, .L2+52
  84 0048 0A20     		movs	r0, #10
  85 004a FFF7FEFF 		bl	CyIntSetVector
  86              	.LVL2:
 275:Generated_Source\PSoC4/UART_RPi_UART.c ****     #endif /* (UART_RPi_SCB_IRQ_INTERNAL) */
 276:Generated_Source\PSoC4/UART_RPi_UART.c **** 
 277:Generated_Source\PSoC4/UART_RPi_UART.c ****         /* Configure WAKE interrupt */
 278:Generated_Source\PSoC4/UART_RPi_UART.c ****     #if(UART_RPi_UART_RX_WAKEUP_IRQ)
 279:Generated_Source\PSoC4/UART_RPi_UART.c ****         CyIntDisable    (UART_RPi_RX_WAKE_ISR_NUMBER);
 280:Generated_Source\PSoC4/UART_RPi_UART.c ****         CyIntSetPriority(UART_RPi_RX_WAKE_ISR_NUMBER, UART_RPi_RX_WAKE_ISR_PRIORITY);
 281:Generated_Source\PSoC4/UART_RPi_UART.c ****         (void) CyIntSetVector(UART_RPi_RX_WAKE_ISR_NUMBER, &UART_RPi_UART_WAKEUP_ISR);
 282:Generated_Source\PSoC4/UART_RPi_UART.c ****     #endif /* (UART_RPi_UART_RX_WAKEUP_IRQ) */
 283:Generated_Source\PSoC4/UART_RPi_UART.c **** 
 284:Generated_Source\PSoC4/UART_RPi_UART.c ****         /* Configure interrupt sources */
 285:Generated_Source\PSoC4/UART_RPi_UART.c ****         UART_RPi_INTR_I2C_EC_MASK_REG = UART_RPi_UART_DEFAULT_INTR_I2C_EC_MASK;
  87              		.loc 1 285 0
  88 004e 1B4B     		ldr	r3, .L2+56
  89 0050 1C60     		str	r4, [r3]
 286:Generated_Source\PSoC4/UART_RPi_UART.c ****         UART_RPi_INTR_SPI_EC_MASK_REG = UART_RPi_UART_DEFAULT_INTR_SPI_EC_MASK;
  90              		.loc 1 286 0
  91 0052 1B4B     		ldr	r3, .L2+60
  92 0054 1C60     		str	r4, [r3]
 287:Generated_Source\PSoC4/UART_RPi_UART.c ****         UART_RPi_INTR_SLAVE_MASK_REG  = UART_RPi_UART_DEFAULT_INTR_SLAVE_MASK;
  93              		.loc 1 287 0
  94 0056 1B4B     		ldr	r3, .L2+64
  95 0058 1C60     		str	r4, [r3]
 288:Generated_Source\PSoC4/UART_RPi_UART.c ****         UART_RPi_INTR_MASTER_MASK_REG = UART_RPi_UART_DEFAULT_INTR_MASTER_MASK;
  96              		.loc 1 288 0
  97 005a 1B4B     		ldr	r3, .L2+68
  98 005c 1C60     		str	r4, [r3]
 289:Generated_Source\PSoC4/UART_RPi_UART.c ****         UART_RPi_INTR_RX_MASK_REG     = UART_RPi_UART_DEFAULT_INTR_RX_MASK;
  99              		.loc 1 289 0
 100 005e 0C22     		movs	r2, #12
 101 0060 1A4B     		ldr	r3, .L2+72
 102 0062 1A60     		str	r2, [r3]
 290:Generated_Source\PSoC4/UART_RPi_UART.c ****         UART_RPi_INTR_TX_MASK_REG     = UART_RPi_UART_DEFAULT_INTR_TX_MASK;
 103              		.loc 1 290 0
 104 0064 1A4B     		ldr	r3, .L2+76
 105 0066 1C60     		str	r4, [r3]
 291:Generated_Source\PSoC4/UART_RPi_UART.c **** 
 292:Generated_Source\PSoC4/UART_RPi_UART.c ****         /* Configure TX interrupt sources to restore. */
 293:Generated_Source\PSoC4/UART_RPi_UART.c ****         UART_RPi_IntrTxMask = LO16(UART_RPi_INTR_TX_MASK_REG);
 106              		.loc 1 293 0
ARM GAS  C:\Users\JamesH\AppData\Local\Temp\cczzGa08.s 			page 8


 107 0068 1A68     		ldr	r2, [r3]
 108 006a 1A4B     		ldr	r3, .L2+80
 109 006c 1A80     		strh	r2, [r3]
 294:Generated_Source\PSoC4/UART_RPi_UART.c **** 
 295:Generated_Source\PSoC4/UART_RPi_UART.c ****     #if(UART_RPi_INTERNAL_RX_SW_BUFFER_CONST)
 296:Generated_Source\PSoC4/UART_RPi_UART.c ****         UART_RPi_rxBufferHead     = 0u;
 110              		.loc 1 296 0
 111 006e 1A4B     		ldr	r3, .L2+84
 112 0070 1C60     		str	r4, [r3]
 297:Generated_Source\PSoC4/UART_RPi_UART.c ****         UART_RPi_rxBufferTail     = 0u;
 113              		.loc 1 297 0
 114 0072 1A4B     		ldr	r3, .L2+88
 115 0074 1C60     		str	r4, [r3]
 298:Generated_Source\PSoC4/UART_RPi_UART.c ****         UART_RPi_rxBufferOverflow = 0u;
 116              		.loc 1 298 0
 117 0076 1A4B     		ldr	r3, .L2+92
 118 0078 1C70     		strb	r4, [r3]
 299:Generated_Source\PSoC4/UART_RPi_UART.c ****     #endif /* (UART_RPi_INTERNAL_RX_SW_BUFFER_CONST) */
 300:Generated_Source\PSoC4/UART_RPi_UART.c **** 
 301:Generated_Source\PSoC4/UART_RPi_UART.c ****     #if(UART_RPi_INTERNAL_TX_SW_BUFFER_CONST)
 302:Generated_Source\PSoC4/UART_RPi_UART.c ****         UART_RPi_txBufferHead = 0u;
 119              		.loc 1 302 0
 120 007a 1A4B     		ldr	r3, .L2+96
 121 007c 1C60     		str	r4, [r3]
 303:Generated_Source\PSoC4/UART_RPi_UART.c ****         UART_RPi_txBufferTail = 0u;
 122              		.loc 1 303 0
 123 007e 1A4B     		ldr	r3, .L2+100
 124 0080 1C60     		str	r4, [r3]
 304:Generated_Source\PSoC4/UART_RPi_UART.c ****     #endif /* (UART_RPi_INTERNAL_TX_SW_BUFFER_CONST) */
 305:Generated_Source\PSoC4/UART_RPi_UART.c ****     }
 125              		.loc 1 305 0
 126              		@ sp needed
 127 0082 10BD     		pop	{r4, pc}
 128              	.L3:
 129              		.align	2
 130              	.L2:
 131 0084 0B080002 		.word	33556491
 132 0088 00002640 		.word	1076232192
 133 008c 40002640 		.word	1076232256
 134 0090 01000A00 		.word	655361
 135 0094 48002640 		.word	1076232264
 136 0098 07000080 		.word	-2147483641
 137 009c 00032640 		.word	1076232960
 138 00a0 04032640 		.word	1076232964
 139 00a4 10032640 		.word	1076232976
 140 00a8 44002640 		.word	1076232260
 141 00ac 00022640 		.word	1076232704
 142 00b0 04022640 		.word	1076232708
 143 00b4 50002640 		.word	1076232272
 144 00b8 00000000 		.word	UART_RPi_SPI_UART_ISR
 145 00bc 880E2640 		.word	1076235912
 146 00c0 C80E2640 		.word	1076235976
 147 00c4 480F2640 		.word	1076236104
 148 00c8 080F2640 		.word	1076236040
 149 00cc C80F2640 		.word	1076236232
 150 00d0 880F2640 		.word	1076236168
 151 00d4 00000000 		.word	UART_RPi_IntrTxMask
ARM GAS  C:\Users\JamesH\AppData\Local\Temp\cczzGa08.s 			page 9


 152 00d8 00000000 		.word	UART_RPi_rxBufferHead
 153 00dc 00000000 		.word	UART_RPi_rxBufferTail
 154 00e0 00000000 		.word	UART_RPi_rxBufferOverflow
 155 00e4 00000000 		.word	UART_RPi_txBufferHead
 156 00e8 00000000 		.word	UART_RPi_txBufferTail
 157              		.cfi_endproc
 158              	.LFE1:
 159              		.size	UART_RPi_UartInit, .-UART_RPi_UartInit
 160              		.section	.text.UART_RPi_UartPostEnable,"ax",%progbits
 161              		.align	2
 162              		.global	UART_RPi_UartPostEnable
 163              		.code	16
 164              		.thumb_func
 165              		.type	UART_RPi_UartPostEnable, %function
 166              	UART_RPi_UartPostEnable:
 167              	.LFB2:
 306:Generated_Source\PSoC4/UART_RPi_UART.c **** #endif /* (UART_RPi_SCB_MODE_UNCONFIG_CONST_CFG) */
 307:Generated_Source\PSoC4/UART_RPi_UART.c **** 
 308:Generated_Source\PSoC4/UART_RPi_UART.c **** 
 309:Generated_Source\PSoC4/UART_RPi_UART.c **** /*******************************************************************************
 310:Generated_Source\PSoC4/UART_RPi_UART.c **** * Function Name: UART_RPi_UartPostEnable
 311:Generated_Source\PSoC4/UART_RPi_UART.c **** ****************************************************************************//**
 312:Generated_Source\PSoC4/UART_RPi_UART.c **** *
 313:Generated_Source\PSoC4/UART_RPi_UART.c **** *  Restores HSIOM settings for the UART output pins (TX and/or RTS) to be
 314:Generated_Source\PSoC4/UART_RPi_UART.c **** *  controlled by the SCB UART.
 315:Generated_Source\PSoC4/UART_RPi_UART.c **** *
 316:Generated_Source\PSoC4/UART_RPi_UART.c **** *******************************************************************************/
 317:Generated_Source\PSoC4/UART_RPi_UART.c **** void UART_RPi_UartPostEnable(void)
 318:Generated_Source\PSoC4/UART_RPi_UART.c **** {
 168              		.loc 1 318 0
 169              		.cfi_startproc
 170              		@ args = 0, pretend = 0, frame = 0
 171              		@ frame_needed = 0, uses_anonymous_args = 0
 172              		@ link register save eliminated.
 319:Generated_Source\PSoC4/UART_RPi_UART.c **** #if (UART_RPi_SCB_MODE_UNCONFIG_CONST_CFG)
 320:Generated_Source\PSoC4/UART_RPi_UART.c ****     #if (UART_RPi_TX_SDA_MISO_PIN)
 321:Generated_Source\PSoC4/UART_RPi_UART.c ****         if (UART_RPi_CHECK_TX_SDA_MISO_PIN_USED)
 322:Generated_Source\PSoC4/UART_RPi_UART.c ****         {
 323:Generated_Source\PSoC4/UART_RPi_UART.c ****             /* Set SCB UART to drive the output pin */
 324:Generated_Source\PSoC4/UART_RPi_UART.c ****             UART_RPi_SET_HSIOM_SEL(UART_RPi_TX_SDA_MISO_HSIOM_REG, UART_RPi_TX_SDA_MISO_HSIOM_MASK,
 325:Generated_Source\PSoC4/UART_RPi_UART.c ****                                            UART_RPi_TX_SDA_MISO_HSIOM_POS, UART_RPi_TX_SDA_MISO_HSI
 326:Generated_Source\PSoC4/UART_RPi_UART.c ****         }
 327:Generated_Source\PSoC4/UART_RPi_UART.c ****     #endif /* (UART_RPi_TX_SDA_MISO_PIN_PIN) */
 328:Generated_Source\PSoC4/UART_RPi_UART.c **** 
 329:Generated_Source\PSoC4/UART_RPi_UART.c ****     #if !(UART_RPi_CY_SCBIP_V0 || UART_RPi_CY_SCBIP_V1)
 330:Generated_Source\PSoC4/UART_RPi_UART.c ****         #if (UART_RPi_RTS_SS0_PIN)
 331:Generated_Source\PSoC4/UART_RPi_UART.c ****             if (UART_RPi_CHECK_RTS_SS0_PIN_USED)
 332:Generated_Source\PSoC4/UART_RPi_UART.c ****             {
 333:Generated_Source\PSoC4/UART_RPi_UART.c ****                 /* Set SCB UART to drive the output pin */
 334:Generated_Source\PSoC4/UART_RPi_UART.c ****                 UART_RPi_SET_HSIOM_SEL(UART_RPi_RTS_SS0_HSIOM_REG, UART_RPi_RTS_SS0_HSIOM_MASK,
 335:Generated_Source\PSoC4/UART_RPi_UART.c ****                                                UART_RPi_RTS_SS0_HSIOM_POS, UART_RPi_RTS_SS0_HSIOM_S
 336:Generated_Source\PSoC4/UART_RPi_UART.c ****             }
 337:Generated_Source\PSoC4/UART_RPi_UART.c ****         #endif /* (UART_RPi_RTS_SS0_PIN) */
 338:Generated_Source\PSoC4/UART_RPi_UART.c ****     #endif /* !(UART_RPi_CY_SCBIP_V0 || UART_RPi_CY_SCBIP_V1) */
 339:Generated_Source\PSoC4/UART_RPi_UART.c **** 
 340:Generated_Source\PSoC4/UART_RPi_UART.c **** #else
 341:Generated_Source\PSoC4/UART_RPi_UART.c ****     #if (UART_RPi_UART_TX_PIN)
ARM GAS  C:\Users\JamesH\AppData\Local\Temp\cczzGa08.s 			page 10


 342:Generated_Source\PSoC4/UART_RPi_UART.c ****          /* Set SCB UART to drive the output pin */
 343:Generated_Source\PSoC4/UART_RPi_UART.c ****         UART_RPi_SET_HSIOM_SEL(UART_RPi_TX_HSIOM_REG, UART_RPi_TX_HSIOM_MASK,
 173              		.loc 1 343 0
 174 0000 0549     		ldr	r1, .L5
 175 0002 0B68     		ldr	r3, [r1]
 176 0004 F022     		movs	r2, #240
 177 0006 9343     		bics	r3, r2
 178 0008 603A     		subs	r2, r2, #96
 179 000a 1343     		orrs	r3, r2
 180 000c 0B60     		str	r3, [r1]
 344:Generated_Source\PSoC4/UART_RPi_UART.c ****                                        UART_RPi_TX_HSIOM_POS, UART_RPi_TX_HSIOM_SEL_UART);
 345:Generated_Source\PSoC4/UART_RPi_UART.c ****     #endif /* (UART_RPi_UART_TX_PIN) */
 346:Generated_Source\PSoC4/UART_RPi_UART.c **** 
 347:Generated_Source\PSoC4/UART_RPi_UART.c ****     #if (UART_RPi_UART_RTS_PIN)
 348:Generated_Source\PSoC4/UART_RPi_UART.c ****         /* Set SCB UART to drive the output pin */
 349:Generated_Source\PSoC4/UART_RPi_UART.c ****         UART_RPi_SET_HSIOM_SEL(UART_RPi_RTS_HSIOM_REG, UART_RPi_RTS_HSIOM_MASK,
 350:Generated_Source\PSoC4/UART_RPi_UART.c ****                                        UART_RPi_RTS_HSIOM_POS, UART_RPi_RTS_HSIOM_SEL_UART);
 351:Generated_Source\PSoC4/UART_RPi_UART.c ****     #endif /* (UART_RPi_UART_RTS_PIN) */
 352:Generated_Source\PSoC4/UART_RPi_UART.c **** #endif /* (UART_RPi_SCB_MODE_UNCONFIG_CONST_CFG) */
 353:Generated_Source\PSoC4/UART_RPi_UART.c **** 
 354:Generated_Source\PSoC4/UART_RPi_UART.c ****     /* Restore TX interrupt sources. */
 355:Generated_Source\PSoC4/UART_RPi_UART.c ****     UART_RPi_SetTxInterruptMode(UART_RPi_IntrTxMask);
 181              		.loc 1 355 0
 182 000e 034B     		ldr	r3, .L5+4
 183 0010 1A88     		ldrh	r2, [r3]
 184 0012 034B     		ldr	r3, .L5+8
 185 0014 1A60     		str	r2, [r3]
 356:Generated_Source\PSoC4/UART_RPi_UART.c **** }
 186              		.loc 1 356 0
 187              		@ sp needed
 188 0016 7047     		bx	lr
 189              	.L6:
 190              		.align	2
 191              	.L5:
 192 0018 00050240 		.word	1073874176
 193 001c 00000000 		.word	UART_RPi_IntrTxMask
 194 0020 880F2640 		.word	1076236168
 195              		.cfi_endproc
 196              	.LFE2:
 197              		.size	UART_RPi_UartPostEnable, .-UART_RPi_UartPostEnable
 198              		.section	.text.UART_RPi_UartStop,"ax",%progbits
 199              		.align	2
 200              		.global	UART_RPi_UartStop
 201              		.code	16
 202              		.thumb_func
 203              		.type	UART_RPi_UartStop, %function
 204              	UART_RPi_UartStop:
 205              	.LFB3:
 357:Generated_Source\PSoC4/UART_RPi_UART.c **** 
 358:Generated_Source\PSoC4/UART_RPi_UART.c **** 
 359:Generated_Source\PSoC4/UART_RPi_UART.c **** /*******************************************************************************
 360:Generated_Source\PSoC4/UART_RPi_UART.c **** * Function Name: UART_RPi_UartStop
 361:Generated_Source\PSoC4/UART_RPi_UART.c **** ****************************************************************************//**
 362:Generated_Source\PSoC4/UART_RPi_UART.c **** *
 363:Generated_Source\PSoC4/UART_RPi_UART.c **** *  Changes the HSIOM settings for the UART output pins (TX and/or RTS) to keep
 364:Generated_Source\PSoC4/UART_RPi_UART.c **** *  them inactive after the block is disabled. The output pins are controlled by
 365:Generated_Source\PSoC4/UART_RPi_UART.c **** *  the GPIO data register. Also, the function disables the skip start feature
ARM GAS  C:\Users\JamesH\AppData\Local\Temp\cczzGa08.s 			page 11


 366:Generated_Source\PSoC4/UART_RPi_UART.c **** *  to not cause it to trigger after the component is enabled.
 367:Generated_Source\PSoC4/UART_RPi_UART.c **** *
 368:Generated_Source\PSoC4/UART_RPi_UART.c **** *******************************************************************************/
 369:Generated_Source\PSoC4/UART_RPi_UART.c **** void UART_RPi_UartStop(void)
 370:Generated_Source\PSoC4/UART_RPi_UART.c **** {
 206              		.loc 1 370 0
 207              		.cfi_startproc
 208              		@ args = 0, pretend = 0, frame = 0
 209              		@ frame_needed = 0, uses_anonymous_args = 0
 210              		@ link register save eliminated.
 371:Generated_Source\PSoC4/UART_RPi_UART.c **** #if(UART_RPi_SCB_MODE_UNCONFIG_CONST_CFG)
 372:Generated_Source\PSoC4/UART_RPi_UART.c ****     #if (UART_RPi_TX_SDA_MISO_PIN)
 373:Generated_Source\PSoC4/UART_RPi_UART.c ****         if (UART_RPi_CHECK_TX_SDA_MISO_PIN_USED)
 374:Generated_Source\PSoC4/UART_RPi_UART.c ****         {
 375:Generated_Source\PSoC4/UART_RPi_UART.c ****             /* Set GPIO to drive output pin */
 376:Generated_Source\PSoC4/UART_RPi_UART.c ****             UART_RPi_SET_HSIOM_SEL(UART_RPi_TX_SDA_MISO_HSIOM_REG, UART_RPi_TX_SDA_MISO_HSIOM_MASK,
 377:Generated_Source\PSoC4/UART_RPi_UART.c ****                                            UART_RPi_TX_SDA_MISO_HSIOM_POS, UART_RPi_TX_SDA_MISO_HSI
 378:Generated_Source\PSoC4/UART_RPi_UART.c ****         }
 379:Generated_Source\PSoC4/UART_RPi_UART.c ****     #endif /* (UART_RPi_TX_SDA_MISO_PIN_PIN) */
 380:Generated_Source\PSoC4/UART_RPi_UART.c **** 
 381:Generated_Source\PSoC4/UART_RPi_UART.c ****     #if !(UART_RPi_CY_SCBIP_V0 || UART_RPi_CY_SCBIP_V1)
 382:Generated_Source\PSoC4/UART_RPi_UART.c ****         #if (UART_RPi_RTS_SS0_PIN)
 383:Generated_Source\PSoC4/UART_RPi_UART.c ****             if (UART_RPi_CHECK_RTS_SS0_PIN_USED)
 384:Generated_Source\PSoC4/UART_RPi_UART.c ****             {
 385:Generated_Source\PSoC4/UART_RPi_UART.c ****                 /* Set output pin state after block is disabled */
 386:Generated_Source\PSoC4/UART_RPi_UART.c ****                 UART_RPi_uart_rts_spi_ss0_Write(UART_RPi_GET_UART_RTS_INACTIVE);
 387:Generated_Source\PSoC4/UART_RPi_UART.c **** 
 388:Generated_Source\PSoC4/UART_RPi_UART.c ****                 /* Set GPIO to drive output pin */
 389:Generated_Source\PSoC4/UART_RPi_UART.c ****                 UART_RPi_SET_HSIOM_SEL(UART_RPi_RTS_SS0_HSIOM_REG, UART_RPi_RTS_SS0_HSIOM_MASK,
 390:Generated_Source\PSoC4/UART_RPi_UART.c ****                                                UART_RPi_RTS_SS0_HSIOM_POS, UART_RPi_RTS_SS0_HSIOM_S
 391:Generated_Source\PSoC4/UART_RPi_UART.c ****             }
 392:Generated_Source\PSoC4/UART_RPi_UART.c ****         #endif /* (UART_RPi_RTS_SS0_PIN) */
 393:Generated_Source\PSoC4/UART_RPi_UART.c ****     #endif /* !(UART_RPi_CY_SCBIP_V0 || UART_RPi_CY_SCBIP_V1) */
 394:Generated_Source\PSoC4/UART_RPi_UART.c **** 
 395:Generated_Source\PSoC4/UART_RPi_UART.c **** #else
 396:Generated_Source\PSoC4/UART_RPi_UART.c ****     #if (UART_RPi_UART_TX_PIN)
 397:Generated_Source\PSoC4/UART_RPi_UART.c ****         /* Set GPIO to drive output pin */
 398:Generated_Source\PSoC4/UART_RPi_UART.c ****         UART_RPi_SET_HSIOM_SEL(UART_RPi_TX_HSIOM_REG, UART_RPi_TX_HSIOM_MASK,
 211              		.loc 1 398 0
 212 0000 064A     		ldr	r2, .L8
 213 0002 1368     		ldr	r3, [r2]
 214 0004 F021     		movs	r1, #240
 215 0006 8B43     		bics	r3, r1
 216 0008 1360     		str	r3, [r2]
 399:Generated_Source\PSoC4/UART_RPi_UART.c ****                                        UART_RPi_TX_HSIOM_POS, UART_RPi_TX_HSIOM_SEL_GPIO);
 400:Generated_Source\PSoC4/UART_RPi_UART.c ****     #endif /* (UART_RPi_UART_TX_PIN) */
 401:Generated_Source\PSoC4/UART_RPi_UART.c **** 
 402:Generated_Source\PSoC4/UART_RPi_UART.c ****     #if (UART_RPi_UART_RTS_PIN)
 403:Generated_Source\PSoC4/UART_RPi_UART.c ****         /* Set output pin state after block is disabled */
 404:Generated_Source\PSoC4/UART_RPi_UART.c ****         UART_RPi_rts_Write(UART_RPi_GET_UART_RTS_INACTIVE);
 405:Generated_Source\PSoC4/UART_RPi_UART.c **** 
 406:Generated_Source\PSoC4/UART_RPi_UART.c ****         /* Set GPIO to drive output pin */
 407:Generated_Source\PSoC4/UART_RPi_UART.c ****         UART_RPi_SET_HSIOM_SEL(UART_RPi_RTS_HSIOM_REG, UART_RPi_RTS_HSIOM_MASK,
 408:Generated_Source\PSoC4/UART_RPi_UART.c ****                                        UART_RPi_RTS_HSIOM_POS, UART_RPi_RTS_HSIOM_SEL_GPIO);
 409:Generated_Source\PSoC4/UART_RPi_UART.c ****     #endif /* (UART_RPi_UART_RTS_PIN) */
 410:Generated_Source\PSoC4/UART_RPi_UART.c **** 
 411:Generated_Source\PSoC4/UART_RPi_UART.c **** #endif /* (UART_RPi_SCB_MODE_UNCONFIG_CONST_CFG) */
ARM GAS  C:\Users\JamesH\AppData\Local\Temp\cczzGa08.s 			page 12


 412:Generated_Source\PSoC4/UART_RPi_UART.c **** 
 413:Generated_Source\PSoC4/UART_RPi_UART.c **** #if (UART_RPi_UART_WAKE_ENABLE_CONST)
 414:Generated_Source\PSoC4/UART_RPi_UART.c ****     /* Disable skip start feature used for wakeup */
 415:Generated_Source\PSoC4/UART_RPi_UART.c ****     UART_RPi_UART_RX_CTRL_REG &= (uint32) ~UART_RPi_UART_RX_CTRL_SKIP_START;
 416:Generated_Source\PSoC4/UART_RPi_UART.c **** #endif /* (UART_RPi_UART_WAKE_ENABLE_CONST) */
 417:Generated_Source\PSoC4/UART_RPi_UART.c **** 
 418:Generated_Source\PSoC4/UART_RPi_UART.c ****     /* Store TX interrupt sources (exclude level triggered). */
 419:Generated_Source\PSoC4/UART_RPi_UART.c ****     UART_RPi_IntrTxMask = LO16(UART_RPi_GetTxInterruptMode() & UART_RPi_INTR_UART_TX_RESTORE);
 217              		.loc 1 419 0
 218 000a 054B     		ldr	r3, .L8+4
 219 000c 1A68     		ldr	r2, [r3]
 220 000e E423     		movs	r3, #228
 221 0010 DB00     		lsls	r3, r3, #3
 222 0012 1340     		ands	r3, r2
 223 0014 034A     		ldr	r2, .L8+8
 224 0016 1380     		strh	r3, [r2]
 420:Generated_Source\PSoC4/UART_RPi_UART.c **** }
 225              		.loc 1 420 0
 226              		@ sp needed
 227 0018 7047     		bx	lr
 228              	.L9:
 229 001a C046     		.align	2
 230              	.L8:
 231 001c 00050240 		.word	1073874176
 232 0020 880F2640 		.word	1076236168
 233 0024 00000000 		.word	UART_RPi_IntrTxMask
 234              		.cfi_endproc
 235              	.LFE3:
 236              		.size	UART_RPi_UartStop, .-UART_RPi_UartStop
 237              		.section	.text.UART_RPi_UartSetRxAddress,"ax",%progbits
 238              		.align	2
 239              		.global	UART_RPi_UartSetRxAddress
 240              		.code	16
 241              		.thumb_func
 242              		.type	UART_RPi_UartSetRxAddress, %function
 243              	UART_RPi_UartSetRxAddress:
 244              	.LFB4:
 421:Generated_Source\PSoC4/UART_RPi_UART.c **** 
 422:Generated_Source\PSoC4/UART_RPi_UART.c **** 
 423:Generated_Source\PSoC4/UART_RPi_UART.c **** /*******************************************************************************
 424:Generated_Source\PSoC4/UART_RPi_UART.c **** * Function Name: UART_RPi_UartSetRxAddress
 425:Generated_Source\PSoC4/UART_RPi_UART.c **** ****************************************************************************//**
 426:Generated_Source\PSoC4/UART_RPi_UART.c **** *
 427:Generated_Source\PSoC4/UART_RPi_UART.c **** *  Sets the hardware detectable receiver address for the UART in the
 428:Generated_Source\PSoC4/UART_RPi_UART.c **** *  Multiprocessor mode.
 429:Generated_Source\PSoC4/UART_RPi_UART.c **** *
 430:Generated_Source\PSoC4/UART_RPi_UART.c **** *  \param address: Address for hardware address detection.
 431:Generated_Source\PSoC4/UART_RPi_UART.c **** *
 432:Generated_Source\PSoC4/UART_RPi_UART.c **** *******************************************************************************/
 433:Generated_Source\PSoC4/UART_RPi_UART.c **** void UART_RPi_UartSetRxAddress(uint32 address)
 434:Generated_Source\PSoC4/UART_RPi_UART.c **** {
 245              		.loc 1 434 0
 246              		.cfi_startproc
 247              		@ args = 0, pretend = 0, frame = 0
 248              		@ frame_needed = 0, uses_anonymous_args = 0
 249              		@ link register save eliminated.
 250              	.LVL3:
ARM GAS  C:\Users\JamesH\AppData\Local\Temp\cczzGa08.s 			page 13


 435:Generated_Source\PSoC4/UART_RPi_UART.c ****      uint32 matchReg;
 436:Generated_Source\PSoC4/UART_RPi_UART.c **** 
 437:Generated_Source\PSoC4/UART_RPi_UART.c ****     matchReg = UART_RPi_RX_MATCH_REG;
 251              		.loc 1 437 0
 252 0000 034A     		ldr	r2, .L11
 253 0002 1368     		ldr	r3, [r2]
 254              	.LVL4:
 438:Generated_Source\PSoC4/UART_RPi_UART.c **** 
 439:Generated_Source\PSoC4/UART_RPi_UART.c ****     matchReg &= ((uint32) ~UART_RPi_RX_MATCH_ADDR_MASK); /* Clear address bits */
 255              		.loc 1 439 0
 256 0004 FF21     		movs	r1, #255
 257 0006 8B43     		bics	r3, r1
 258              	.LVL5:
 440:Generated_Source\PSoC4/UART_RPi_UART.c ****     matchReg |= ((uint32)  (address & UART_RPi_RX_MATCH_ADDR_MASK)); /* Set address  */
 259              		.loc 1 440 0
 260 0008 0840     		ands	r0, r1
 261              	.LVL6:
 262 000a 1843     		orrs	r0, r3
 263              	.LVL7:
 441:Generated_Source\PSoC4/UART_RPi_UART.c **** 
 442:Generated_Source\PSoC4/UART_RPi_UART.c ****     UART_RPi_RX_MATCH_REG = matchReg;
 264              		.loc 1 442 0
 265 000c 1060     		str	r0, [r2]
 443:Generated_Source\PSoC4/UART_RPi_UART.c **** }
 266              		.loc 1 443 0
 267              		@ sp needed
 268 000e 7047     		bx	lr
 269              	.L12:
 270              		.align	2
 271              	.L11:
 272 0010 10032640 		.word	1076232976
 273              		.cfi_endproc
 274              	.LFE4:
 275              		.size	UART_RPi_UartSetRxAddress, .-UART_RPi_UartSetRxAddress
 276              		.section	.text.UART_RPi_UartSetRxAddressMask,"ax",%progbits
 277              		.align	2
 278              		.global	UART_RPi_UartSetRxAddressMask
 279              		.code	16
 280              		.thumb_func
 281              		.type	UART_RPi_UartSetRxAddressMask, %function
 282              	UART_RPi_UartSetRxAddressMask:
 283              	.LFB5:
 444:Generated_Source\PSoC4/UART_RPi_UART.c **** 
 445:Generated_Source\PSoC4/UART_RPi_UART.c **** 
 446:Generated_Source\PSoC4/UART_RPi_UART.c **** /*******************************************************************************
 447:Generated_Source\PSoC4/UART_RPi_UART.c **** * Function Name: UART_RPi_UartSetRxAddressMask
 448:Generated_Source\PSoC4/UART_RPi_UART.c **** ****************************************************************************//**
 449:Generated_Source\PSoC4/UART_RPi_UART.c **** *
 450:Generated_Source\PSoC4/UART_RPi_UART.c **** *  Sets the hardware address mask for the UART in the Multiprocessor mode.
 451:Generated_Source\PSoC4/UART_RPi_UART.c **** *
 452:Generated_Source\PSoC4/UART_RPi_UART.c **** *  \param addressMask: Address mask.
 453:Generated_Source\PSoC4/UART_RPi_UART.c **** *   - Bit value 0 – excludes bit from address comparison.
 454:Generated_Source\PSoC4/UART_RPi_UART.c **** *   - Bit value 1 – the bit needs to match with the corresponding bit
 455:Generated_Source\PSoC4/UART_RPi_UART.c **** *     of the address.
 456:Generated_Source\PSoC4/UART_RPi_UART.c **** *
 457:Generated_Source\PSoC4/UART_RPi_UART.c **** *******************************************************************************/
 458:Generated_Source\PSoC4/UART_RPi_UART.c **** void UART_RPi_UartSetRxAddressMask(uint32 addressMask)
ARM GAS  C:\Users\JamesH\AppData\Local\Temp\cczzGa08.s 			page 14


 459:Generated_Source\PSoC4/UART_RPi_UART.c **** {
 284              		.loc 1 459 0
 285              		.cfi_startproc
 286              		@ args = 0, pretend = 0, frame = 0
 287              		@ frame_needed = 0, uses_anonymous_args = 0
 288              		@ link register save eliminated.
 289              	.LVL8:
 460:Generated_Source\PSoC4/UART_RPi_UART.c ****     uint32 matchReg;
 461:Generated_Source\PSoC4/UART_RPi_UART.c **** 
 462:Generated_Source\PSoC4/UART_RPi_UART.c ****     matchReg = UART_RPi_RX_MATCH_REG;
 290              		.loc 1 462 0
 291 0000 034A     		ldr	r2, .L14
 292 0002 1168     		ldr	r1, [r2]
 293              	.LVL9:
 463:Generated_Source\PSoC4/UART_RPi_UART.c **** 
 464:Generated_Source\PSoC4/UART_RPi_UART.c ****     matchReg &= ((uint32) ~UART_RPi_RX_MATCH_MASK_MASK); /* Clear address mask bits */
 294              		.loc 1 464 0
 295 0004 034B     		ldr	r3, .L14+4
 296 0006 0B40     		ands	r3, r1
 297              	.LVL10:
 465:Generated_Source\PSoC4/UART_RPi_UART.c ****     matchReg |= ((uint32) (addressMask << UART_RPi_RX_MATCH_MASK_POS));
 298              		.loc 1 465 0
 299 0008 0004     		lsls	r0, r0, #16
 300              	.LVL11:
 301 000a 1843     		orrs	r0, r3
 302              	.LVL12:
 466:Generated_Source\PSoC4/UART_RPi_UART.c **** 
 467:Generated_Source\PSoC4/UART_RPi_UART.c ****     UART_RPi_RX_MATCH_REG = matchReg;
 303              		.loc 1 467 0
 304 000c 1060     		str	r0, [r2]
 468:Generated_Source\PSoC4/UART_RPi_UART.c **** }
 305              		.loc 1 468 0
 306              		@ sp needed
 307 000e 7047     		bx	lr
 308              	.L15:
 309              		.align	2
 310              	.L14:
 311 0010 10032640 		.word	1076232976
 312 0014 FFFF00FF 		.word	-16711681
 313              		.cfi_endproc
 314              	.LFE5:
 315              		.size	UART_RPi_UartSetRxAddressMask, .-UART_RPi_UartSetRxAddressMask
 316              		.section	.text.UART_RPi_UartGetChar,"ax",%progbits
 317              		.align	2
 318              		.global	UART_RPi_UartGetChar
 319              		.code	16
 320              		.thumb_func
 321              		.type	UART_RPi_UartGetChar, %function
 322              	UART_RPi_UartGetChar:
 323              	.LFB6:
 469:Generated_Source\PSoC4/UART_RPi_UART.c **** 
 470:Generated_Source\PSoC4/UART_RPi_UART.c **** 
 471:Generated_Source\PSoC4/UART_RPi_UART.c **** #if(UART_RPi_UART_RX_DIRECTION)
 472:Generated_Source\PSoC4/UART_RPi_UART.c ****     /*******************************************************************************
 473:Generated_Source\PSoC4/UART_RPi_UART.c ****     * Function Name: UART_RPi_UartGetChar
 474:Generated_Source\PSoC4/UART_RPi_UART.c ****     ****************************************************************************//**
 475:Generated_Source\PSoC4/UART_RPi_UART.c ****     *
ARM GAS  C:\Users\JamesH\AppData\Local\Temp\cczzGa08.s 			page 15


 476:Generated_Source\PSoC4/UART_RPi_UART.c ****     *  Retrieves next data element from receive buffer.
 477:Generated_Source\PSoC4/UART_RPi_UART.c ****     *  This function is designed for ASCII characters and returns a char where
 478:Generated_Source\PSoC4/UART_RPi_UART.c ****     *  1 to 255 are valid characters and 0 indicates an error occurred or no data
 479:Generated_Source\PSoC4/UART_RPi_UART.c ****     *  is present.
 480:Generated_Source\PSoC4/UART_RPi_UART.c ****     *  - RX software buffer is disabled: Returns data element retrieved from RX
 481:Generated_Source\PSoC4/UART_RPi_UART.c ****     *    FIFO.
 482:Generated_Source\PSoC4/UART_RPi_UART.c ****     *  - RX software buffer is enabled: Returns data element from the software
 483:Generated_Source\PSoC4/UART_RPi_UART.c ****     *    receive buffer.
 484:Generated_Source\PSoC4/UART_RPi_UART.c ****     *
 485:Generated_Source\PSoC4/UART_RPi_UART.c ****     *  \return
 486:Generated_Source\PSoC4/UART_RPi_UART.c ****     *   Next data element from the receive buffer. ASCII character values from
 487:Generated_Source\PSoC4/UART_RPi_UART.c ****     *   1 to 255 are valid. A returned zero signifies an error condition or no
 488:Generated_Source\PSoC4/UART_RPi_UART.c ****     *   data available.
 489:Generated_Source\PSoC4/UART_RPi_UART.c ****     *
 490:Generated_Source\PSoC4/UART_RPi_UART.c ****     *  \sideeffect
 491:Generated_Source\PSoC4/UART_RPi_UART.c ****     *   The errors bits may not correspond with reading characters due to
 492:Generated_Source\PSoC4/UART_RPi_UART.c ****     *   RX FIFO and software buffer usage.
 493:Generated_Source\PSoC4/UART_RPi_UART.c ****     *   RX software buffer is enabled: The internal software buffer overflow
 494:Generated_Source\PSoC4/UART_RPi_UART.c ****     *   is not treated as an error condition.
 495:Generated_Source\PSoC4/UART_RPi_UART.c ****     *   Check UART_RPi_rxBufferOverflow to capture that error condition.
 496:Generated_Source\PSoC4/UART_RPi_UART.c ****     *
 497:Generated_Source\PSoC4/UART_RPi_UART.c ****     *******************************************************************************/
 498:Generated_Source\PSoC4/UART_RPi_UART.c ****     uint32 UART_RPi_UartGetChar(void)
 499:Generated_Source\PSoC4/UART_RPi_UART.c ****     {
 324              		.loc 1 499 0
 325              		.cfi_startproc
 326              		@ args = 0, pretend = 0, frame = 0
 327              		@ frame_needed = 0, uses_anonymous_args = 0
 328 0000 10B5     		push	{r4, lr}
 329              		.cfi_def_cfa_offset 8
 330              		.cfi_offset 4, -8
 331              		.cfi_offset 14, -4
 332              	.LVL13:
 500:Generated_Source\PSoC4/UART_RPi_UART.c ****         uint32 rxData = 0u;
 501:Generated_Source\PSoC4/UART_RPi_UART.c **** 
 502:Generated_Source\PSoC4/UART_RPi_UART.c ****         /* Reads data only if there is data to read */
 503:Generated_Source\PSoC4/UART_RPi_UART.c ****         if (0u != UART_RPi_SpiUartGetRxBufferSize())
 333              		.loc 1 503 0
 334 0002 FFF7FEFF 		bl	UART_RPi_SpiUartGetRxBufferSize
 335              	.LVL14:
 336 0006 0028     		cmp	r0, #0
 337 0008 02D0     		beq	.L19
 504:Generated_Source\PSoC4/UART_RPi_UART.c ****         {
 505:Generated_Source\PSoC4/UART_RPi_UART.c ****             rxData = UART_RPi_SpiUartReadRxData();
 338              		.loc 1 505 0
 339 000a FFF7FEFF 		bl	UART_RPi_SpiUartReadRxData
 340              	.LVL15:
 341 000e 00E0     		b	.L17
 342              	.LVL16:
 343              	.L19:
 500:Generated_Source\PSoC4/UART_RPi_UART.c ****         uint32 rxData = 0u;
 344              		.loc 1 500 0
 345 0010 0020     		movs	r0, #0
 346              	.LVL17:
 347              	.L17:
 506:Generated_Source\PSoC4/UART_RPi_UART.c ****         }
 507:Generated_Source\PSoC4/UART_RPi_UART.c **** 
ARM GAS  C:\Users\JamesH\AppData\Local\Temp\cczzGa08.s 			page 16


 508:Generated_Source\PSoC4/UART_RPi_UART.c ****         if (UART_RPi_CHECK_INTR_RX(UART_RPi_INTR_RX_ERR))
 348              		.loc 1 508 0
 349 0012 054B     		ldr	r3, .L20
 350 0014 1A68     		ldr	r2, [r3]
 351 0016 D823     		movs	r3, #216
 352 0018 9B00     		lsls	r3, r3, #2
 353 001a 1A42     		tst	r2, r3
 354 001c 03D0     		beq	.L18
 355              	.LVL18:
 509:Generated_Source\PSoC4/UART_RPi_UART.c ****         {
 510:Generated_Source\PSoC4/UART_RPi_UART.c ****             rxData = 0u; /* Error occurred: returns zero */
 511:Generated_Source\PSoC4/UART_RPi_UART.c ****             UART_RPi_ClearRxInterruptSource(UART_RPi_INTR_RX_ERR);
 356              		.loc 1 511 0
 357 001e 1A00     		movs	r2, r3
 358 0020 014B     		ldr	r3, .L20
 359 0022 1A60     		str	r2, [r3]
 510:Generated_Source\PSoC4/UART_RPi_UART.c ****             UART_RPi_ClearRxInterruptSource(UART_RPi_INTR_RX_ERR);
 360              		.loc 1 510 0
 361 0024 0020     		movs	r0, #0
 362              	.LVL19:
 363              	.L18:
 512:Generated_Source\PSoC4/UART_RPi_UART.c ****         }
 513:Generated_Source\PSoC4/UART_RPi_UART.c **** 
 514:Generated_Source\PSoC4/UART_RPi_UART.c ****         return (rxData);
 515:Generated_Source\PSoC4/UART_RPi_UART.c ****     }
 364              		.loc 1 515 0
 365              		@ sp needed
 366 0026 10BD     		pop	{r4, pc}
 367              	.L21:
 368              		.align	2
 369              	.L20:
 370 0028 C00F2640 		.word	1076236224
 371              		.cfi_endproc
 372              	.LFE6:
 373              		.size	UART_RPi_UartGetChar, .-UART_RPi_UartGetChar
 374              		.section	.text.UART_RPi_UartGetByte,"ax",%progbits
 375              		.align	2
 376              		.global	UART_RPi_UartGetByte
 377              		.code	16
 378              		.thumb_func
 379              		.type	UART_RPi_UartGetByte, %function
 380              	UART_RPi_UartGetByte:
 381              	.LFB7:
 516:Generated_Source\PSoC4/UART_RPi_UART.c **** 
 517:Generated_Source\PSoC4/UART_RPi_UART.c **** 
 518:Generated_Source\PSoC4/UART_RPi_UART.c ****     /*******************************************************************************
 519:Generated_Source\PSoC4/UART_RPi_UART.c ****     * Function Name: UART_RPi_UartGetByte
 520:Generated_Source\PSoC4/UART_RPi_UART.c ****     ****************************************************************************//**
 521:Generated_Source\PSoC4/UART_RPi_UART.c ****     *
 522:Generated_Source\PSoC4/UART_RPi_UART.c ****     *  Retrieves the next data element from the receive buffer, returns the
 523:Generated_Source\PSoC4/UART_RPi_UART.c ****     *  received byte and error condition.
 524:Generated_Source\PSoC4/UART_RPi_UART.c ****     *   - The RX software buffer is disabled: returns the data element retrieved
 525:Generated_Source\PSoC4/UART_RPi_UART.c ****     *     from the RX FIFO. Undefined data will be returned if the RX FIFO is
 526:Generated_Source\PSoC4/UART_RPi_UART.c ****     *     empty.
 527:Generated_Source\PSoC4/UART_RPi_UART.c ****     *   - The RX software buffer is enabled: returns data element from the
 528:Generated_Source\PSoC4/UART_RPi_UART.c ****     *     software receive buffer.
 529:Generated_Source\PSoC4/UART_RPi_UART.c ****     *
ARM GAS  C:\Users\JamesH\AppData\Local\Temp\cczzGa08.s 			page 17


 530:Generated_Source\PSoC4/UART_RPi_UART.c ****     *  \return
 531:Generated_Source\PSoC4/UART_RPi_UART.c ****     *   Bits 7-0 contain the next data element from the receive buffer and
 532:Generated_Source\PSoC4/UART_RPi_UART.c ****     *   other bits contain the error condition.
 533:Generated_Source\PSoC4/UART_RPi_UART.c ****     *   - UART_RPi_UART_RX_OVERFLOW - Attempt to write to a full
 534:Generated_Source\PSoC4/UART_RPi_UART.c ****     *     receiver FIFO.
 535:Generated_Source\PSoC4/UART_RPi_UART.c ****     *   - UART_RPi_UART_RX_UNDERFLOW    Attempt to read from an empty
 536:Generated_Source\PSoC4/UART_RPi_UART.c ****     *     receiver FIFO.
 537:Generated_Source\PSoC4/UART_RPi_UART.c ****     *   - UART_RPi_UART_RX_FRAME_ERROR - UART framing error detected.
 538:Generated_Source\PSoC4/UART_RPi_UART.c ****     *   - UART_RPi_UART_RX_PARITY_ERROR - UART parity error detected.
 539:Generated_Source\PSoC4/UART_RPi_UART.c ****     *
 540:Generated_Source\PSoC4/UART_RPi_UART.c ****     *  \sideeffect
 541:Generated_Source\PSoC4/UART_RPi_UART.c ****     *   The errors bits may not correspond with reading characters due to
 542:Generated_Source\PSoC4/UART_RPi_UART.c ****     *   RX FIFO and software buffer usage.
 543:Generated_Source\PSoC4/UART_RPi_UART.c ****     *   RX software buffer is enabled: The internal software buffer overflow
 544:Generated_Source\PSoC4/UART_RPi_UART.c ****     *   is not treated as an error condition.
 545:Generated_Source\PSoC4/UART_RPi_UART.c ****     *   Check UART_RPi_rxBufferOverflow to capture that error condition.
 546:Generated_Source\PSoC4/UART_RPi_UART.c ****     *
 547:Generated_Source\PSoC4/UART_RPi_UART.c ****     *******************************************************************************/
 548:Generated_Source\PSoC4/UART_RPi_UART.c ****     uint32 UART_RPi_UartGetByte(void)
 549:Generated_Source\PSoC4/UART_RPi_UART.c ****     {
 382              		.loc 1 549 0
 383              		.cfi_startproc
 384              		@ args = 0, pretend = 0, frame = 0
 385              		@ frame_needed = 0, uses_anonymous_args = 0
 386 0000 10B5     		push	{r4, lr}
 387              		.cfi_def_cfa_offset 8
 388              		.cfi_offset 4, -8
 389              		.cfi_offset 14, -4
 550:Generated_Source\PSoC4/UART_RPi_UART.c ****         uint32 rxData;
 551:Generated_Source\PSoC4/UART_RPi_UART.c ****         uint32 tmpStatus;
 552:Generated_Source\PSoC4/UART_RPi_UART.c **** 
 553:Generated_Source\PSoC4/UART_RPi_UART.c ****         #if (UART_RPi_CHECK_RX_SW_BUFFER)
 554:Generated_Source\PSoC4/UART_RPi_UART.c ****         {
 555:Generated_Source\PSoC4/UART_RPi_UART.c ****             UART_RPi_DisableInt();
 390              		.loc 1 555 0
 391 0002 0A20     		movs	r0, #10
 392 0004 FFF7FEFF 		bl	CyIntDisable
 393              	.LVL20:
 556:Generated_Source\PSoC4/UART_RPi_UART.c ****         }
 557:Generated_Source\PSoC4/UART_RPi_UART.c ****         #endif
 558:Generated_Source\PSoC4/UART_RPi_UART.c **** 
 559:Generated_Source\PSoC4/UART_RPi_UART.c ****         if (0u != UART_RPi_SpiUartGetRxBufferSize())
 394              		.loc 1 559 0
 395 0008 FFF7FEFF 		bl	UART_RPi_SpiUartGetRxBufferSize
 396              	.LVL21:
 397 000c 0028     		cmp	r0, #0
 398 000e 06D0     		beq	.L23
 560:Generated_Source\PSoC4/UART_RPi_UART.c ****         {
 561:Generated_Source\PSoC4/UART_RPi_UART.c ****             /* Enables interrupt to receive more bytes: at least one byte is in
 562:Generated_Source\PSoC4/UART_RPi_UART.c ****             * buffer.
 563:Generated_Source\PSoC4/UART_RPi_UART.c ****             */
 564:Generated_Source\PSoC4/UART_RPi_UART.c ****             #if (UART_RPi_CHECK_RX_SW_BUFFER)
 565:Generated_Source\PSoC4/UART_RPi_UART.c ****             {
 566:Generated_Source\PSoC4/UART_RPi_UART.c ****                 UART_RPi_EnableInt();
 399              		.loc 1 566 0
 400 0010 0A20     		movs	r0, #10
 401 0012 FFF7FEFF 		bl	CyIntEnable
ARM GAS  C:\Users\JamesH\AppData\Local\Temp\cczzGa08.s 			page 18


 402              	.LVL22:
 567:Generated_Source\PSoC4/UART_RPi_UART.c ****             }
 568:Generated_Source\PSoC4/UART_RPi_UART.c ****             #endif
 569:Generated_Source\PSoC4/UART_RPi_UART.c **** 
 570:Generated_Source\PSoC4/UART_RPi_UART.c ****             /* Get received byte */
 571:Generated_Source\PSoC4/UART_RPi_UART.c ****             rxData = UART_RPi_SpiUartReadRxData();
 403              		.loc 1 571 0
 404 0016 FFF7FEFF 		bl	UART_RPi_SpiUartReadRxData
 405              	.LVL23:
 406 001a 0400     		movs	r4, r0
 407              	.LVL24:
 408 001c 07E0     		b	.L24
 409              	.LVL25:
 410              	.L23:
 572:Generated_Source\PSoC4/UART_RPi_UART.c ****         }
 573:Generated_Source\PSoC4/UART_RPi_UART.c ****         else
 574:Generated_Source\PSoC4/UART_RPi_UART.c ****         {
 575:Generated_Source\PSoC4/UART_RPi_UART.c ****             /* Reads a byte directly from RX FIFO: underflow is raised in the
 576:Generated_Source\PSoC4/UART_RPi_UART.c ****             * case of empty. Otherwise the first received byte will be read.
 577:Generated_Source\PSoC4/UART_RPi_UART.c ****             */
 578:Generated_Source\PSoC4/UART_RPi_UART.c ****             rxData = UART_RPi_RX_FIFO_RD_REG;
 411              		.loc 1 578 0
 412 001e 094B     		ldr	r3, .L25
 413 0020 1C68     		ldr	r4, [r3]
 414              	.LVL26:
 579:Generated_Source\PSoC4/UART_RPi_UART.c **** 
 580:Generated_Source\PSoC4/UART_RPi_UART.c **** 
 581:Generated_Source\PSoC4/UART_RPi_UART.c ****             /* Enables interrupt to receive more bytes. */
 582:Generated_Source\PSoC4/UART_RPi_UART.c ****             #if (UART_RPi_CHECK_RX_SW_BUFFER)
 583:Generated_Source\PSoC4/UART_RPi_UART.c ****             {
 584:Generated_Source\PSoC4/UART_RPi_UART.c **** 
 585:Generated_Source\PSoC4/UART_RPi_UART.c ****                 /* The byte has been read from RX FIFO. Clear RX interrupt to
 586:Generated_Source\PSoC4/UART_RPi_UART.c ****                 * not involve interrupt handler when RX FIFO is empty.
 587:Generated_Source\PSoC4/UART_RPi_UART.c ****                 */
 588:Generated_Source\PSoC4/UART_RPi_UART.c ****                 UART_RPi_ClearRxInterruptSource(UART_RPi_INTR_RX_NOT_EMPTY);
 415              		.loc 1 588 0
 416 0022 0422     		movs	r2, #4
 417 0024 084B     		ldr	r3, .L25+4
 418 0026 1A60     		str	r2, [r3]
 589:Generated_Source\PSoC4/UART_RPi_UART.c **** 
 590:Generated_Source\PSoC4/UART_RPi_UART.c ****                 UART_RPi_EnableInt();
 419              		.loc 1 590 0
 420 0028 0A20     		movs	r0, #10
 421 002a FFF7FEFF 		bl	CyIntEnable
 422              	.LVL27:
 423              	.L24:
 591:Generated_Source\PSoC4/UART_RPi_UART.c ****             }
 592:Generated_Source\PSoC4/UART_RPi_UART.c ****             #endif
 593:Generated_Source\PSoC4/UART_RPi_UART.c ****         }
 594:Generated_Source\PSoC4/UART_RPi_UART.c **** 
 595:Generated_Source\PSoC4/UART_RPi_UART.c ****         /* Get and clear RX error mask */
 596:Generated_Source\PSoC4/UART_RPi_UART.c ****         tmpStatus = (UART_RPi_GetRxInterruptSource() & UART_RPi_INTR_RX_ERR);
 424              		.loc 1 596 0
 425 002e 064B     		ldr	r3, .L25+4
 426 0030 1868     		ldr	r0, [r3]
 427              	.LVL28:
 597:Generated_Source\PSoC4/UART_RPi_UART.c ****         UART_RPi_ClearRxInterruptSource(UART_RPi_INTR_RX_ERR);
ARM GAS  C:\Users\JamesH\AppData\Local\Temp\cczzGa08.s 			page 19


 428              		.loc 1 597 0
 429 0032 D822     		movs	r2, #216
 430 0034 9200     		lsls	r2, r2, #2
 431 0036 1A60     		str	r2, [r3]
 598:Generated_Source\PSoC4/UART_RPi_UART.c **** 
 599:Generated_Source\PSoC4/UART_RPi_UART.c ****         /* Puts together data and error status:
 600:Generated_Source\PSoC4/UART_RPi_UART.c ****         * MP mode and accept address: 9th bit is set to notify mark.
 601:Generated_Source\PSoC4/UART_RPi_UART.c ****         */
 602:Generated_Source\PSoC4/UART_RPi_UART.c ****         rxData |= ((uint32) (tmpStatus << 8u));
 432              		.loc 1 602 0
 433 0038 0002     		lsls	r0, r0, #8
 434              	.LVL29:
 435 003a D823     		movs	r3, #216
 436 003c 9B02     		lsls	r3, r3, #10
 437 003e 1840     		ands	r0, r3
 438 0040 2043     		orrs	r0, r4
 439              	.LVL30:
 603:Generated_Source\PSoC4/UART_RPi_UART.c **** 
 604:Generated_Source\PSoC4/UART_RPi_UART.c ****         return (rxData);
 605:Generated_Source\PSoC4/UART_RPi_UART.c ****     }
 440              		.loc 1 605 0
 441              		@ sp needed
 442 0042 10BD     		pop	{r4, pc}
 443              	.L26:
 444              		.align	2
 445              	.L25:
 446 0044 40032640 		.word	1076233024
 447 0048 C00F2640 		.word	1076236224
 448              		.cfi_endproc
 449              	.LFE7:
 450              		.size	UART_RPi_UartGetByte, .-UART_RPi_UartGetByte
 451              		.section	.text.UART_RPi_UartSetRtsPolarity,"ax",%progbits
 452              		.align	2
 453              		.global	UART_RPi_UartSetRtsPolarity
 454              		.code	16
 455              		.thumb_func
 456              		.type	UART_RPi_UartSetRtsPolarity, %function
 457              	UART_RPi_UartSetRtsPolarity:
 458              	.LFB8:
 606:Generated_Source\PSoC4/UART_RPi_UART.c **** 
 607:Generated_Source\PSoC4/UART_RPi_UART.c **** 
 608:Generated_Source\PSoC4/UART_RPi_UART.c ****     #if !(UART_RPi_CY_SCBIP_V0 || UART_RPi_CY_SCBIP_V1)
 609:Generated_Source\PSoC4/UART_RPi_UART.c ****         /*******************************************************************************
 610:Generated_Source\PSoC4/UART_RPi_UART.c ****         * Function Name: UART_RPi_UartSetRtsPolarity
 611:Generated_Source\PSoC4/UART_RPi_UART.c ****         ****************************************************************************//**
 612:Generated_Source\PSoC4/UART_RPi_UART.c ****         *
 613:Generated_Source\PSoC4/UART_RPi_UART.c ****         *  Sets active polarity of RTS output signal.
 614:Generated_Source\PSoC4/UART_RPi_UART.c ****         *  Only available for PSoC 4100 BLE / PSoC 4200 BLE / PSoC 4100M / PSoC 4200M /
 615:Generated_Source\PSoC4/UART_RPi_UART.c ****         *  PSoC 4200L / PSoC 4000S / PSoC 4100S / PSoC Analog Coprocessor devices.
 616:Generated_Source\PSoC4/UART_RPi_UART.c ****         *
 617:Generated_Source\PSoC4/UART_RPi_UART.c ****         *  \param polarity: Active polarity of RTS output signal.
 618:Generated_Source\PSoC4/UART_RPi_UART.c ****         *   - UART_RPi_UART_RTS_ACTIVE_LOW  - RTS signal is active low.
 619:Generated_Source\PSoC4/UART_RPi_UART.c ****         *   - UART_RPi_UART_RTS_ACTIVE_HIGH - RTS signal is active high.
 620:Generated_Source\PSoC4/UART_RPi_UART.c ****         *
 621:Generated_Source\PSoC4/UART_RPi_UART.c ****         *******************************************************************************/
 622:Generated_Source\PSoC4/UART_RPi_UART.c ****         void UART_RPi_UartSetRtsPolarity(uint32 polarity)
 623:Generated_Source\PSoC4/UART_RPi_UART.c ****         {
ARM GAS  C:\Users\JamesH\AppData\Local\Temp\cczzGa08.s 			page 20


 459              		.loc 1 623 0
 460              		.cfi_startproc
 461              		@ args = 0, pretend = 0, frame = 0
 462              		@ frame_needed = 0, uses_anonymous_args = 0
 463              		@ link register save eliminated.
 464              	.LVL31:
 624:Generated_Source\PSoC4/UART_RPi_UART.c ****             if(0u != polarity)
 465              		.loc 1 624 0
 466 0000 0028     		cmp	r0, #0
 467 0002 06D0     		beq	.L28
 625:Generated_Source\PSoC4/UART_RPi_UART.c ****             {
 626:Generated_Source\PSoC4/UART_RPi_UART.c ****                 UART_RPi_UART_FLOW_CTRL_REG |= (uint32)  UART_RPi_UART_FLOW_CTRL_RTS_POLARITY;
 468              		.loc 1 626 0
 469 0004 064A     		ldr	r2, .L30
 470 0006 1368     		ldr	r3, [r2]
 471 0008 8021     		movs	r1, #128
 472 000a 4902     		lsls	r1, r1, #9
 473 000c 0B43     		orrs	r3, r1
 474 000e 1360     		str	r3, [r2]
 475 0010 04E0     		b	.L27
 476              	.L28:
 627:Generated_Source\PSoC4/UART_RPi_UART.c ****             }
 628:Generated_Source\PSoC4/UART_RPi_UART.c ****             else
 629:Generated_Source\PSoC4/UART_RPi_UART.c ****             {
 630:Generated_Source\PSoC4/UART_RPi_UART.c ****                 UART_RPi_UART_FLOW_CTRL_REG &= (uint32) ~UART_RPi_UART_FLOW_CTRL_RTS_POLARITY;
 477              		.loc 1 630 0
 478 0012 034A     		ldr	r2, .L30
 479 0014 1168     		ldr	r1, [r2]
 480 0016 034B     		ldr	r3, .L30+4
 481 0018 0B40     		ands	r3, r1
 482 001a 1360     		str	r3, [r2]
 483              	.L27:
 631:Generated_Source\PSoC4/UART_RPi_UART.c ****             }
 632:Generated_Source\PSoC4/UART_RPi_UART.c ****         }
 484              		.loc 1 632 0
 485              		@ sp needed
 486 001c 7047     		bx	lr
 487              	.L31:
 488 001e C046     		.align	2
 489              	.L30:
 490 0020 50002640 		.word	1076232272
 491 0024 FFFFFEFF 		.word	-65537
 492              		.cfi_endproc
 493              	.LFE8:
 494              		.size	UART_RPi_UartSetRtsPolarity, .-UART_RPi_UartSetRtsPolarity
 495              		.section	.text.UART_RPi_UartSetRtsFifoLevel,"ax",%progbits
 496              		.align	2
 497              		.global	UART_RPi_UartSetRtsFifoLevel
 498              		.code	16
 499              		.thumb_func
 500              		.type	UART_RPi_UartSetRtsFifoLevel, %function
 501              	UART_RPi_UartSetRtsFifoLevel:
 502              	.LFB9:
 633:Generated_Source\PSoC4/UART_RPi_UART.c **** 
 634:Generated_Source\PSoC4/UART_RPi_UART.c **** 
 635:Generated_Source\PSoC4/UART_RPi_UART.c ****         /*******************************************************************************
 636:Generated_Source\PSoC4/UART_RPi_UART.c ****         * Function Name: UART_RPi_UartSetRtsFifoLevel
ARM GAS  C:\Users\JamesH\AppData\Local\Temp\cczzGa08.s 			page 21


 637:Generated_Source\PSoC4/UART_RPi_UART.c ****         ****************************************************************************//**
 638:Generated_Source\PSoC4/UART_RPi_UART.c ****         *
 639:Generated_Source\PSoC4/UART_RPi_UART.c ****         *  Sets level in the RX FIFO for RTS signal activation.
 640:Generated_Source\PSoC4/UART_RPi_UART.c ****         *  While the RX FIFO has fewer entries than the RX FIFO level the RTS signal
 641:Generated_Source\PSoC4/UART_RPi_UART.c ****         *  remains active, otherwise the RTS signal becomes inactive.
 642:Generated_Source\PSoC4/UART_RPi_UART.c ****         *  Only available for PSoC 4100 BLE / PSoC 4200 BLE / PSoC 4100M / PSoC 4200M /
 643:Generated_Source\PSoC4/UART_RPi_UART.c ****         *  PSoC 4200L / PSoC 4000S / PSoC 4100S / PSoC Analog Coprocessor devices.
 644:Generated_Source\PSoC4/UART_RPi_UART.c ****         *
 645:Generated_Source\PSoC4/UART_RPi_UART.c ****         *  \param level: Level in the RX FIFO for RTS signal activation.
 646:Generated_Source\PSoC4/UART_RPi_UART.c ****         *   The range of valid level values is between 0 and RX FIFO depth - 1.
 647:Generated_Source\PSoC4/UART_RPi_UART.c ****         *   Setting level value to 0 disables RTS signal activation.
 648:Generated_Source\PSoC4/UART_RPi_UART.c ****         *
 649:Generated_Source\PSoC4/UART_RPi_UART.c ****         *******************************************************************************/
 650:Generated_Source\PSoC4/UART_RPi_UART.c ****         void UART_RPi_UartSetRtsFifoLevel(uint32 level)
 651:Generated_Source\PSoC4/UART_RPi_UART.c ****         {
 503              		.loc 1 651 0
 504              		.cfi_startproc
 505              		@ args = 0, pretend = 0, frame = 0
 506              		@ frame_needed = 0, uses_anonymous_args = 0
 507              		@ link register save eliminated.
 508              	.LVL32:
 652:Generated_Source\PSoC4/UART_RPi_UART.c ****             uint32 uartFlowCtrl;
 653:Generated_Source\PSoC4/UART_RPi_UART.c **** 
 654:Generated_Source\PSoC4/UART_RPi_UART.c ****             uartFlowCtrl = UART_RPi_UART_FLOW_CTRL_REG;
 509              		.loc 1 654 0
 510 0000 034A     		ldr	r2, .L33
 511 0002 1368     		ldr	r3, [r2]
 512              	.LVL33:
 655:Generated_Source\PSoC4/UART_RPi_UART.c **** 
 656:Generated_Source\PSoC4/UART_RPi_UART.c ****             uartFlowCtrl &= ((uint32) ~UART_RPi_UART_FLOW_CTRL_TRIGGER_LEVEL_MASK); /* Clear level 
 513              		.loc 1 656 0
 514 0004 0F21     		movs	r1, #15
 515 0006 8B43     		bics	r3, r1
 516              	.LVL34:
 657:Generated_Source\PSoC4/UART_RPi_UART.c ****             uartFlowCtrl |= ((uint32) (UART_RPi_UART_FLOW_CTRL_TRIGGER_LEVEL_MASK & level));
 517              		.loc 1 657 0
 518 0008 0840     		ands	r0, r1
 519              	.LVL35:
 520 000a 1843     		orrs	r0, r3
 521              	.LVL36:
 658:Generated_Source\PSoC4/UART_RPi_UART.c **** 
 659:Generated_Source\PSoC4/UART_RPi_UART.c ****             UART_RPi_UART_FLOW_CTRL_REG = uartFlowCtrl;
 522              		.loc 1 659 0
 523 000c 1060     		str	r0, [r2]
 660:Generated_Source\PSoC4/UART_RPi_UART.c ****         }
 524              		.loc 1 660 0
 525              		@ sp needed
 526 000e 7047     		bx	lr
 527              	.L34:
 528              		.align	2
 529              	.L33:
 530 0010 50002640 		.word	1076232272
 531              		.cfi_endproc
 532              	.LFE9:
 533              		.size	UART_RPi_UartSetRtsFifoLevel, .-UART_RPi_UartSetRtsFifoLevel
 534              		.section	.text.UART_RPi_UartPutString,"ax",%progbits
 535              		.align	2
ARM GAS  C:\Users\JamesH\AppData\Local\Temp\cczzGa08.s 			page 22


 536              		.global	UART_RPi_UartPutString
 537              		.code	16
 538              		.thumb_func
 539              		.type	UART_RPi_UartPutString, %function
 540              	UART_RPi_UartPutString:
 541              	.LFB10:
 661:Generated_Source\PSoC4/UART_RPi_UART.c ****     #endif /* !(UART_RPi_CY_SCBIP_V0 || UART_RPi_CY_SCBIP_V1) */
 662:Generated_Source\PSoC4/UART_RPi_UART.c **** 
 663:Generated_Source\PSoC4/UART_RPi_UART.c **** #endif /* (UART_RPi_UART_RX_DIRECTION) */
 664:Generated_Source\PSoC4/UART_RPi_UART.c **** 
 665:Generated_Source\PSoC4/UART_RPi_UART.c **** 
 666:Generated_Source\PSoC4/UART_RPi_UART.c **** #if(UART_RPi_UART_TX_DIRECTION)
 667:Generated_Source\PSoC4/UART_RPi_UART.c ****     /*******************************************************************************
 668:Generated_Source\PSoC4/UART_RPi_UART.c ****     * Function Name: UART_RPi_UartPutString
 669:Generated_Source\PSoC4/UART_RPi_UART.c ****     ****************************************************************************//**
 670:Generated_Source\PSoC4/UART_RPi_UART.c ****     *
 671:Generated_Source\PSoC4/UART_RPi_UART.c ****     *  Places a NULL terminated string in the transmit buffer to be sent at the
 672:Generated_Source\PSoC4/UART_RPi_UART.c ****     *  next available bus time.
 673:Generated_Source\PSoC4/UART_RPi_UART.c ****     *  This function is blocking and waits until there is a space available to put
 674:Generated_Source\PSoC4/UART_RPi_UART.c ****     *  requested data in transmit buffer.
 675:Generated_Source\PSoC4/UART_RPi_UART.c ****     *
 676:Generated_Source\PSoC4/UART_RPi_UART.c ****     *  \param string: pointer to the null terminated string array to be placed in the
 677:Generated_Source\PSoC4/UART_RPi_UART.c ****     *   transmit buffer.
 678:Generated_Source\PSoC4/UART_RPi_UART.c ****     *
 679:Generated_Source\PSoC4/UART_RPi_UART.c ****     *******************************************************************************/
 680:Generated_Source\PSoC4/UART_RPi_UART.c ****     void UART_RPi_UartPutString(const char8 string[])
 681:Generated_Source\PSoC4/UART_RPi_UART.c ****     {
 542              		.loc 1 681 0
 543              		.cfi_startproc
 544              		@ args = 0, pretend = 0, frame = 0
 545              		@ frame_needed = 0, uses_anonymous_args = 0
 546              	.LVL37:
 547 0000 70B5     		push	{r4, r5, r6, lr}
 548              		.cfi_def_cfa_offset 16
 549              		.cfi_offset 4, -16
 550              		.cfi_offset 5, -12
 551              		.cfi_offset 6, -8
 552              		.cfi_offset 14, -4
 553 0002 0500     		movs	r5, r0
 554              	.LVL38:
 682:Generated_Source\PSoC4/UART_RPi_UART.c ****         uint32 bufIndex;
 683:Generated_Source\PSoC4/UART_RPi_UART.c **** 
 684:Generated_Source\PSoC4/UART_RPi_UART.c ****         bufIndex = 0u;
 555              		.loc 1 684 0
 556 0004 0024     		movs	r4, #0
 685:Generated_Source\PSoC4/UART_RPi_UART.c **** 
 686:Generated_Source\PSoC4/UART_RPi_UART.c ****         /* Blocks the control flow until all data has been sent */
 687:Generated_Source\PSoC4/UART_RPi_UART.c ****         while(string[bufIndex] != ((char8) 0))
 557              		.loc 1 687 0
 558 0006 02E0     		b	.L36
 559              	.LVL39:
 560              	.L37:
 688:Generated_Source\PSoC4/UART_RPi_UART.c ****         {
 689:Generated_Source\PSoC4/UART_RPi_UART.c ****             UART_RPi_UartPutChar((uint32) string[bufIndex]);
 561              		.loc 1 689 0
 562 0008 FFF7FEFF 		bl	UART_RPi_SpiUartWriteTxData
 563              	.LVL40:
ARM GAS  C:\Users\JamesH\AppData\Local\Temp\cczzGa08.s 			page 23


 690:Generated_Source\PSoC4/UART_RPi_UART.c ****             bufIndex++;
 564              		.loc 1 690 0
 565 000c 0134     		adds	r4, r4, #1
 566              	.LVL41:
 567              	.L36:
 687:Generated_Source\PSoC4/UART_RPi_UART.c ****         {
 568              		.loc 1 687 0
 569 000e 285D     		ldrb	r0, [r5, r4]
 570 0010 0028     		cmp	r0, #0
 571 0012 F9D1     		bne	.L37
 691:Generated_Source\PSoC4/UART_RPi_UART.c ****         }
 692:Generated_Source\PSoC4/UART_RPi_UART.c ****     }
 572              		.loc 1 692 0
 573              		@ sp needed
 574              	.LVL42:
 575              	.LVL43:
 576 0014 70BD     		pop	{r4, r5, r6, pc}
 577              		.cfi_endproc
 578              	.LFE10:
 579              		.size	UART_RPi_UartPutString, .-UART_RPi_UartPutString
 580 0016 C046     		.section	.text.UART_RPi_UartPutCRLF,"ax",%progbits
 581              		.align	2
 582              		.global	UART_RPi_UartPutCRLF
 583              		.code	16
 584              		.thumb_func
 585              		.type	UART_RPi_UartPutCRLF, %function
 586              	UART_RPi_UartPutCRLF:
 587              	.LFB11:
 693:Generated_Source\PSoC4/UART_RPi_UART.c **** 
 694:Generated_Source\PSoC4/UART_RPi_UART.c **** 
 695:Generated_Source\PSoC4/UART_RPi_UART.c ****     /*******************************************************************************
 696:Generated_Source\PSoC4/UART_RPi_UART.c ****     * Function Name: UART_RPi_UartPutCRLF
 697:Generated_Source\PSoC4/UART_RPi_UART.c ****     ****************************************************************************//**
 698:Generated_Source\PSoC4/UART_RPi_UART.c ****     *
 699:Generated_Source\PSoC4/UART_RPi_UART.c ****     *  Places byte of data followed by a carriage return (0x0D) and line feed
 700:Generated_Source\PSoC4/UART_RPi_UART.c ****     *  (0x0A) in the transmit buffer.
 701:Generated_Source\PSoC4/UART_RPi_UART.c ****     *  This function is blocking and waits until there is a space available to put
 702:Generated_Source\PSoC4/UART_RPi_UART.c ****     *  all requested data in transmit buffer.
 703:Generated_Source\PSoC4/UART_RPi_UART.c ****     *
 704:Generated_Source\PSoC4/UART_RPi_UART.c ****     *  \param txDataByte: the data to be transmitted.
 705:Generated_Source\PSoC4/UART_RPi_UART.c ****     *
 706:Generated_Source\PSoC4/UART_RPi_UART.c ****     *******************************************************************************/
 707:Generated_Source\PSoC4/UART_RPi_UART.c ****     void UART_RPi_UartPutCRLF(uint32 txDataByte)
 708:Generated_Source\PSoC4/UART_RPi_UART.c ****     {
 588              		.loc 1 708 0
 589              		.cfi_startproc
 590              		@ args = 0, pretend = 0, frame = 0
 591              		@ frame_needed = 0, uses_anonymous_args = 0
 592              	.LVL44:
 593 0000 10B5     		push	{r4, lr}
 594              		.cfi_def_cfa_offset 8
 595              		.cfi_offset 4, -8
 596              		.cfi_offset 14, -4
 709:Generated_Source\PSoC4/UART_RPi_UART.c ****         UART_RPi_UartPutChar(txDataByte);  /* Blocks control flow until all data has been sent */
 597              		.loc 1 709 0
 598 0002 FFF7FEFF 		bl	UART_RPi_SpiUartWriteTxData
 599              	.LVL45:
ARM GAS  C:\Users\JamesH\AppData\Local\Temp\cczzGa08.s 			page 24


 710:Generated_Source\PSoC4/UART_RPi_UART.c ****         UART_RPi_UartPutChar(0x0Du);       /* Blocks control flow until all data has been sent */
 600              		.loc 1 710 0
 601 0006 0D20     		movs	r0, #13
 602 0008 FFF7FEFF 		bl	UART_RPi_SpiUartWriteTxData
 603              	.LVL46:
 711:Generated_Source\PSoC4/UART_RPi_UART.c ****         UART_RPi_UartPutChar(0x0Au);       /* Blocks control flow until all data has been sent */
 604              		.loc 1 711 0
 605 000c 0A20     		movs	r0, #10
 606 000e FFF7FEFF 		bl	UART_RPi_SpiUartWriteTxData
 607              	.LVL47:
 712:Generated_Source\PSoC4/UART_RPi_UART.c ****     }
 608              		.loc 1 712 0
 609              		@ sp needed
 610 0012 10BD     		pop	{r4, pc}
 611              		.cfi_endproc
 612              	.LFE11:
 613              		.size	UART_RPi_UartPutCRLF, .-UART_RPi_UartPutCRLF
 614              		.section	.text.UART_RPi_UartEnableCts,"ax",%progbits
 615              		.align	2
 616              		.global	UART_RPi_UartEnableCts
 617              		.code	16
 618              		.thumb_func
 619              		.type	UART_RPi_UartEnableCts, %function
 620              	UART_RPi_UartEnableCts:
 621              	.LFB12:
 713:Generated_Source\PSoC4/UART_RPi_UART.c **** 
 714:Generated_Source\PSoC4/UART_RPi_UART.c **** 
 715:Generated_Source\PSoC4/UART_RPi_UART.c ****     #if !(UART_RPi_CY_SCBIP_V0 || UART_RPi_CY_SCBIP_V1)
 716:Generated_Source\PSoC4/UART_RPi_UART.c ****         /*******************************************************************************
 717:Generated_Source\PSoC4/UART_RPi_UART.c ****         * Function Name: UART_RPiSCB_UartEnableCts
 718:Generated_Source\PSoC4/UART_RPi_UART.c ****         ****************************************************************************//**
 719:Generated_Source\PSoC4/UART_RPi_UART.c ****         *
 720:Generated_Source\PSoC4/UART_RPi_UART.c ****         *  Enables usage of CTS input signal by the UART transmitter.
 721:Generated_Source\PSoC4/UART_RPi_UART.c ****         *  Only available for PSoC 4100 BLE / PSoC 4200 BLE / PSoC 4100M / PSoC 4200M /
 722:Generated_Source\PSoC4/UART_RPi_UART.c ****         *  PSoC 4200L / PSoC 4000S / PSoC 4100S / PSoC Analog Coprocessor devices.
 723:Generated_Source\PSoC4/UART_RPi_UART.c ****         *
 724:Generated_Source\PSoC4/UART_RPi_UART.c ****         *******************************************************************************/
 725:Generated_Source\PSoC4/UART_RPi_UART.c ****         void UART_RPi_UartEnableCts(void)
 726:Generated_Source\PSoC4/UART_RPi_UART.c ****         {
 622              		.loc 1 726 0
 623              		.cfi_startproc
 624              		@ args = 0, pretend = 0, frame = 0
 625              		@ frame_needed = 0, uses_anonymous_args = 0
 626              		@ link register save eliminated.
 727:Generated_Source\PSoC4/UART_RPi_UART.c ****             UART_RPi_UART_FLOW_CTRL_REG |= (uint32)  UART_RPi_UART_FLOW_CTRL_CTS_ENABLE;
 627              		.loc 1 727 0
 628 0000 034A     		ldr	r2, .L40
 629 0002 1368     		ldr	r3, [r2]
 630 0004 8021     		movs	r1, #128
 631 0006 8904     		lsls	r1, r1, #18
 632 0008 0B43     		orrs	r3, r1
 633 000a 1360     		str	r3, [r2]
 728:Generated_Source\PSoC4/UART_RPi_UART.c ****         }
 634              		.loc 1 728 0
 635              		@ sp needed
 636 000c 7047     		bx	lr
 637              	.L41:
ARM GAS  C:\Users\JamesH\AppData\Local\Temp\cczzGa08.s 			page 25


 638 000e C046     		.align	2
 639              	.L40:
 640 0010 50002640 		.word	1076232272
 641              		.cfi_endproc
 642              	.LFE12:
 643              		.size	UART_RPi_UartEnableCts, .-UART_RPi_UartEnableCts
 644              		.section	.text.UART_RPi_UartDisableCts,"ax",%progbits
 645              		.align	2
 646              		.global	UART_RPi_UartDisableCts
 647              		.code	16
 648              		.thumb_func
 649              		.type	UART_RPi_UartDisableCts, %function
 650              	UART_RPi_UartDisableCts:
 651              	.LFB13:
 729:Generated_Source\PSoC4/UART_RPi_UART.c **** 
 730:Generated_Source\PSoC4/UART_RPi_UART.c **** 
 731:Generated_Source\PSoC4/UART_RPi_UART.c ****         /*******************************************************************************
 732:Generated_Source\PSoC4/UART_RPi_UART.c ****         * Function Name: UART_RPi_UartDisableCts
 733:Generated_Source\PSoC4/UART_RPi_UART.c ****         ****************************************************************************//**
 734:Generated_Source\PSoC4/UART_RPi_UART.c ****         *
 735:Generated_Source\PSoC4/UART_RPi_UART.c ****         *  Disables usage of CTS input signal by the UART transmitter.
 736:Generated_Source\PSoC4/UART_RPi_UART.c ****         *  Only available for PSoC 4100 BLE / PSoC 4200 BLE / PSoC 4100M / PSoC 4200M /
 737:Generated_Source\PSoC4/UART_RPi_UART.c ****         *  PSoC 4200L / PSoC 4000S / PSoC 4100S / PSoC Analog Coprocessor devices.
 738:Generated_Source\PSoC4/UART_RPi_UART.c ****         *
 739:Generated_Source\PSoC4/UART_RPi_UART.c ****         *******************************************************************************/
 740:Generated_Source\PSoC4/UART_RPi_UART.c ****         void UART_RPi_UartDisableCts(void)
 741:Generated_Source\PSoC4/UART_RPi_UART.c ****         {
 652              		.loc 1 741 0
 653              		.cfi_startproc
 654              		@ args = 0, pretend = 0, frame = 0
 655              		@ frame_needed = 0, uses_anonymous_args = 0
 656              		@ link register save eliminated.
 742:Generated_Source\PSoC4/UART_RPi_UART.c ****             UART_RPi_UART_FLOW_CTRL_REG &= (uint32) ~UART_RPi_UART_FLOW_CTRL_CTS_ENABLE;
 657              		.loc 1 742 0
 658 0000 024A     		ldr	r2, .L43
 659 0002 1168     		ldr	r1, [r2]
 660 0004 024B     		ldr	r3, .L43+4
 661 0006 0B40     		ands	r3, r1
 662 0008 1360     		str	r3, [r2]
 743:Generated_Source\PSoC4/UART_RPi_UART.c ****         }
 663              		.loc 1 743 0
 664              		@ sp needed
 665 000a 7047     		bx	lr
 666              	.L44:
 667              		.align	2
 668              	.L43:
 669 000c 50002640 		.word	1076232272
 670 0010 FFFFFFFD 		.word	-33554433
 671              		.cfi_endproc
 672              	.LFE13:
 673              		.size	UART_RPi_UartDisableCts, .-UART_RPi_UartDisableCts
 674              		.section	.text.UART_RPi_UartSetCtsPolarity,"ax",%progbits
 675              		.align	2
 676              		.global	UART_RPi_UartSetCtsPolarity
 677              		.code	16
 678              		.thumb_func
 679              		.type	UART_RPi_UartSetCtsPolarity, %function
ARM GAS  C:\Users\JamesH\AppData\Local\Temp\cczzGa08.s 			page 26


 680              	UART_RPi_UartSetCtsPolarity:
 681              	.LFB14:
 744:Generated_Source\PSoC4/UART_RPi_UART.c **** 
 745:Generated_Source\PSoC4/UART_RPi_UART.c **** 
 746:Generated_Source\PSoC4/UART_RPi_UART.c ****         /*******************************************************************************
 747:Generated_Source\PSoC4/UART_RPi_UART.c ****         * Function Name: UART_RPi_UartSetCtsPolarity
 748:Generated_Source\PSoC4/UART_RPi_UART.c ****         ****************************************************************************//**
 749:Generated_Source\PSoC4/UART_RPi_UART.c ****         *
 750:Generated_Source\PSoC4/UART_RPi_UART.c ****         *  Sets active polarity of CTS input signal.
 751:Generated_Source\PSoC4/UART_RPi_UART.c ****         *  Only available for PSoC 4100 BLE / PSoC 4200 BLE / PSoC 4100M / PSoC 4200M /
 752:Generated_Source\PSoC4/UART_RPi_UART.c ****         *  PSoC 4200L / PSoC 4000S / PSoC 4100S / PSoC Analog Coprocessor devices.
 753:Generated_Source\PSoC4/UART_RPi_UART.c ****         *
 754:Generated_Source\PSoC4/UART_RPi_UART.c ****         * \param
 755:Generated_Source\PSoC4/UART_RPi_UART.c ****         * polarity: Active polarity of CTS output signal.
 756:Generated_Source\PSoC4/UART_RPi_UART.c ****         *   - UART_RPi_UART_CTS_ACTIVE_LOW  - CTS signal is active low.
 757:Generated_Source\PSoC4/UART_RPi_UART.c ****         *   - UART_RPi_UART_CTS_ACTIVE_HIGH - CTS signal is active high.
 758:Generated_Source\PSoC4/UART_RPi_UART.c ****         *
 759:Generated_Source\PSoC4/UART_RPi_UART.c ****         *******************************************************************************/
 760:Generated_Source\PSoC4/UART_RPi_UART.c ****         void UART_RPi_UartSetCtsPolarity(uint32 polarity)
 761:Generated_Source\PSoC4/UART_RPi_UART.c ****         {
 682              		.loc 1 761 0
 683              		.cfi_startproc
 684              		@ args = 0, pretend = 0, frame = 0
 685              		@ frame_needed = 0, uses_anonymous_args = 0
 686              		@ link register save eliminated.
 687              	.LVL48:
 762:Generated_Source\PSoC4/UART_RPi_UART.c ****             if (0u != polarity)
 688              		.loc 1 762 0
 689 0000 0028     		cmp	r0, #0
 690 0002 06D0     		beq	.L46
 763:Generated_Source\PSoC4/UART_RPi_UART.c ****             {
 764:Generated_Source\PSoC4/UART_RPi_UART.c ****                 UART_RPi_UART_FLOW_CTRL_REG |= (uint32)  UART_RPi_UART_FLOW_CTRL_CTS_POLARITY;
 691              		.loc 1 764 0
 692 0004 064A     		ldr	r2, .L48
 693 0006 1368     		ldr	r3, [r2]
 694 0008 8021     		movs	r1, #128
 695 000a 4904     		lsls	r1, r1, #17
 696 000c 0B43     		orrs	r3, r1
 697 000e 1360     		str	r3, [r2]
 698 0010 04E0     		b	.L45
 699              	.L46:
 765:Generated_Source\PSoC4/UART_RPi_UART.c ****             }
 766:Generated_Source\PSoC4/UART_RPi_UART.c ****             else
 767:Generated_Source\PSoC4/UART_RPi_UART.c ****             {
 768:Generated_Source\PSoC4/UART_RPi_UART.c ****                 UART_RPi_UART_FLOW_CTRL_REG &= (uint32) ~UART_RPi_UART_FLOW_CTRL_CTS_POLARITY;
 700              		.loc 1 768 0
 701 0012 034A     		ldr	r2, .L48
 702 0014 1168     		ldr	r1, [r2]
 703 0016 034B     		ldr	r3, .L48+4
 704 0018 0B40     		ands	r3, r1
 705 001a 1360     		str	r3, [r2]
 706              	.L45:
 769:Generated_Source\PSoC4/UART_RPi_UART.c ****             }
 770:Generated_Source\PSoC4/UART_RPi_UART.c ****         }
 707              		.loc 1 770 0
 708              		@ sp needed
 709 001c 7047     		bx	lr
ARM GAS  C:\Users\JamesH\AppData\Local\Temp\cczzGa08.s 			page 27


 710              	.L49:
 711 001e C046     		.align	2
 712              	.L48:
 713 0020 50002640 		.word	1076232272
 714 0024 FFFFFFFE 		.word	-16777217
 715              		.cfi_endproc
 716              	.LFE14:
 717              		.size	UART_RPi_UartSetCtsPolarity, .-UART_RPi_UartSetCtsPolarity
 718              		.section	.text.UART_RPi_UartSendBreakBlocking,"ax",%progbits
 719              		.align	2
 720              		.global	UART_RPi_UartSendBreakBlocking
 721              		.code	16
 722              		.thumb_func
 723              		.type	UART_RPi_UartSendBreakBlocking, %function
 724              	UART_RPi_UartSendBreakBlocking:
 725              	.LFB15:
 771:Generated_Source\PSoC4/UART_RPi_UART.c ****     #endif /* !(UART_RPi_CY_SCBIP_V0 || UART_RPi_CY_SCBIP_V1) */
 772:Generated_Source\PSoC4/UART_RPi_UART.c **** 
 773:Generated_Source\PSoC4/UART_RPi_UART.c **** 
 774:Generated_Source\PSoC4/UART_RPi_UART.c ****     /*******************************************************************************
 775:Generated_Source\PSoC4/UART_RPi_UART.c ****     * Function Name: UART_RPi_UartSendBreakBlocking
 776:Generated_Source\PSoC4/UART_RPi_UART.c ****     ****************************************************************************//**
 777:Generated_Source\PSoC4/UART_RPi_UART.c ****     *
 778:Generated_Source\PSoC4/UART_RPi_UART.c ****     * Sends a break condition (logic low) of specified width on UART TX line.
 779:Generated_Source\PSoC4/UART_RPi_UART.c ****     * Blocks until break is completed. Only call this function when UART TX FIFO
 780:Generated_Source\PSoC4/UART_RPi_UART.c ****     * and shifter are empty.
 781:Generated_Source\PSoC4/UART_RPi_UART.c ****     *
 782:Generated_Source\PSoC4/UART_RPi_UART.c ****     * \param breakWidth
 783:Generated_Source\PSoC4/UART_RPi_UART.c ****     * Width of break condition. Valid range is 4 to 16 bits.
 784:Generated_Source\PSoC4/UART_RPi_UART.c ****     *
 785:Generated_Source\PSoC4/UART_RPi_UART.c ****     * \note
 786:Generated_Source\PSoC4/UART_RPi_UART.c ****     * Before sending break all UART TX interrupt sources are disabled. The state
 787:Generated_Source\PSoC4/UART_RPi_UART.c ****     * of UART TX interrupt sources is restored before function returns.
 788:Generated_Source\PSoC4/UART_RPi_UART.c ****     *
 789:Generated_Source\PSoC4/UART_RPi_UART.c ****     * \sideeffect
 790:Generated_Source\PSoC4/UART_RPi_UART.c ****     * If this function is called while there is data in the TX FIFO or shifter that
 791:Generated_Source\PSoC4/UART_RPi_UART.c ****     * data will be shifted out in packets the size of breakWidth.
 792:Generated_Source\PSoC4/UART_RPi_UART.c ****     *
 793:Generated_Source\PSoC4/UART_RPi_UART.c ****     *******************************************************************************/
 794:Generated_Source\PSoC4/UART_RPi_UART.c ****     void UART_RPi_UartSendBreakBlocking(uint32 breakWidth)
 795:Generated_Source\PSoC4/UART_RPi_UART.c ****     {
 726              		.loc 1 795 0
 727              		.cfi_startproc
 728              		@ args = 0, pretend = 0, frame = 0
 729              		@ frame_needed = 0, uses_anonymous_args = 0
 730              	.LVL49:
 731 0000 70B5     		push	{r4, r5, r6, lr}
 732              		.cfi_def_cfa_offset 16
 733              		.cfi_offset 4, -16
 734              		.cfi_offset 5, -12
 735              		.cfi_offset 6, -8
 736              		.cfi_offset 14, -4
 737 0002 0300     		movs	r3, r0
 796:Generated_Source\PSoC4/UART_RPi_UART.c ****         uint32 txCtrlReg;
 797:Generated_Source\PSoC4/UART_RPi_UART.c ****         uint32 txIntrReg;
 798:Generated_Source\PSoC4/UART_RPi_UART.c **** 
 799:Generated_Source\PSoC4/UART_RPi_UART.c ****         /* Disable all UART TX interrupt source and clear UART TX Done history */
ARM GAS  C:\Users\JamesH\AppData\Local\Temp\cczzGa08.s 			page 28


 800:Generated_Source\PSoC4/UART_RPi_UART.c ****         txIntrReg = UART_RPi_GetTxInterruptMode();
 738              		.loc 1 800 0
 739 0004 0F4A     		ldr	r2, .L52
 740 0006 1568     		ldr	r5, [r2]
 741              	.LVL50:
 801:Generated_Source\PSoC4/UART_RPi_UART.c ****         UART_RPi_SetTxInterruptMode(0u);
 742              		.loc 1 801 0
 743 0008 0024     		movs	r4, #0
 744 000a 1460     		str	r4, [r2]
 802:Generated_Source\PSoC4/UART_RPi_UART.c ****         UART_RPi_ClearTxInterruptSource(UART_RPi_INTR_TX_UART_DONE);
 745              		.loc 1 802 0
 746 000c 8021     		movs	r1, #128
 747 000e 8900     		lsls	r1, r1, #2
 748 0010 0D4A     		ldr	r2, .L52+4
 749 0012 1160     		str	r1, [r2]
 803:Generated_Source\PSoC4/UART_RPi_UART.c **** 
 804:Generated_Source\PSoC4/UART_RPi_UART.c ****         /* Store TX CTRL configuration */
 805:Generated_Source\PSoC4/UART_RPi_UART.c ****         txCtrlReg = UART_RPi_TX_CTRL_REG;
 750              		.loc 1 805 0
 751 0014 0D4A     		ldr	r2, .L52+8
 752 0016 1668     		ldr	r6, [r2]
 753              	.LVL51:
 806:Generated_Source\PSoC4/UART_RPi_UART.c **** 
 807:Generated_Source\PSoC4/UART_RPi_UART.c ****         /* Set break width */
 808:Generated_Source\PSoC4/UART_RPi_UART.c ****         UART_RPi_TX_CTRL_REG = (UART_RPi_TX_CTRL_REG & (uint32) ~UART_RPi_TX_CTRL_DATA_WIDTH_MASK) 
 754              		.loc 1 808 0
 755 0018 1168     		ldr	r1, [r2]
 756 001a 0F20     		movs	r0, #15
 757              	.LVL52:
 758 001c 8143     		bics	r1, r0
 809:Generated_Source\PSoC4/UART_RPi_UART.c ****                                         UART_RPi_GET_TX_CTRL_DATA_WIDTH(breakWidth);
 759              		.loc 1 809 0
 760 001e 013B     		subs	r3, r3, #1
 761              	.LVL53:
 762 0020 1840     		ands	r0, r3
 808:Generated_Source\PSoC4/UART_RPi_UART.c ****                                         UART_RPi_GET_TX_CTRL_DATA_WIDTH(breakWidth);
 763              		.loc 1 808 0
 764 0022 0843     		orrs	r0, r1
 765 0024 1060     		str	r0, [r2]
 810:Generated_Source\PSoC4/UART_RPi_UART.c **** 
 811:Generated_Source\PSoC4/UART_RPi_UART.c ****         /* Generate break */
 812:Generated_Source\PSoC4/UART_RPi_UART.c ****         UART_RPi_TX_FIFO_WR_REG = 0u;
 766              		.loc 1 812 0
 767 0026 0A4B     		ldr	r3, .L52+12
 768              	.LVL54:
 769 0028 1C60     		str	r4, [r3]
 770              	.L51:
 813:Generated_Source\PSoC4/UART_RPi_UART.c **** 
 814:Generated_Source\PSoC4/UART_RPi_UART.c ****         /* Wait for break completion */
 815:Generated_Source\PSoC4/UART_RPi_UART.c ****         while (0u == (UART_RPi_GetTxInterruptSource() & UART_RPi_INTR_TX_UART_DONE))
 771              		.loc 1 815 0 discriminator 1
 772 002a 074B     		ldr	r3, .L52+4
 773 002c 1B68     		ldr	r3, [r3]
 774 002e 9B05     		lsls	r3, r3, #22
 775 0030 FBD5     		bpl	.L51
 816:Generated_Source\PSoC4/UART_RPi_UART.c ****         {
 817:Generated_Source\PSoC4/UART_RPi_UART.c ****         }
ARM GAS  C:\Users\JamesH\AppData\Local\Temp\cczzGa08.s 			page 29


 818:Generated_Source\PSoC4/UART_RPi_UART.c **** 
 819:Generated_Source\PSoC4/UART_RPi_UART.c ****         /* Clear all UART TX interrupt sources to  */
 820:Generated_Source\PSoC4/UART_RPi_UART.c ****         UART_RPi_ClearTxInterruptSource(UART_RPi_INTR_TX_ALL);
 776              		.loc 1 820 0
 777 0032 084A     		ldr	r2, .L52+16
 778 0034 044B     		ldr	r3, .L52+4
 779 0036 1A60     		str	r2, [r3]
 821:Generated_Source\PSoC4/UART_RPi_UART.c **** 
 822:Generated_Source\PSoC4/UART_RPi_UART.c ****         /* Restore TX interrupt sources and data width */
 823:Generated_Source\PSoC4/UART_RPi_UART.c ****         UART_RPi_TX_CTRL_REG = txCtrlReg;
 780              		.loc 1 823 0
 781 0038 044B     		ldr	r3, .L52+8
 782 003a 1E60     		str	r6, [r3]
 824:Generated_Source\PSoC4/UART_RPi_UART.c ****         UART_RPi_SetTxInterruptMode(txIntrReg);
 783              		.loc 1 824 0
 784 003c 014B     		ldr	r3, .L52
 785 003e 1D60     		str	r5, [r3]
 825:Generated_Source\PSoC4/UART_RPi_UART.c ****     }
 786              		.loc 1 825 0
 787              		@ sp needed
 788              	.LVL55:
 789              	.LVL56:
 790 0040 70BD     		pop	{r4, r5, r6, pc}
 791              	.L53:
 792 0042 C046     		.align	2
 793              	.L52:
 794 0044 880F2640 		.word	1076236168
 795 0048 800F2640 		.word	1076236160
 796 004c 00022640 		.word	1076232704
 797 0050 40022640 		.word	1076232768
 798 0054 F3070000 		.word	2035
 799              		.cfi_endproc
 800              	.LFE15:
 801              		.size	UART_RPi_UartSendBreakBlocking, .-UART_RPi_UartSendBreakBlocking
 802              		.text
 803              	.Letext0:
 804              		.file 2 "Generated_Source\\PSoC4/cytypes.h"
 805              		.file 3 "Generated_Source\\PSoC4\\UART_RPi_PVT.h"
 806              		.file 4 "Generated_Source\\PSoC4\\UART_RPi_SPI_UART_PVT.h"
 807              		.file 5 "Generated_Source\\PSoC4/CyLib.h"
 808              		.file 6 "Generated_Source\\PSoC4\\UART_RPi_SPI_UART.h"