ARM GAS  C:\Users\JamesH\AppData\Local\Temp\ccI77WEe.s 			page 1


   1              		.syntax unified
   2              		.cpu cortex-m3
   3              		.fpu softvfp
   4              		.eabi_attribute 20, 1
   5              		.eabi_attribute 21, 1
   6              		.eabi_attribute 23, 3
   7              		.eabi_attribute 24, 1
   8              		.eabi_attribute 25, 1
   9              		.eabi_attribute 26, 1
  10              		.eabi_attribute 30, 1
  11              		.eabi_attribute 34, 1
  12              		.eabi_attribute 18, 4
  13              		.thumb
  14              		.syntax unified
  15              		.file	"fnReceive.c"
  16              		.text
  17              	.Ltext0:
  18              		.cfi_sections	.debug_frame
  19              		.global	__aeabi_f2d
  20              		.section	.text.fnSend,"ax",%progbits
  21              		.align	2
  22              		.global	fnSend
  23              		.thumb
  24              		.thumb_func
  25              		.type	fnSend, %function
  26              	fnSend:
  27              	.LFB65:
  28              		.file 1 "fnReceive.c"
   1:fnReceive.c   **** /* ========================================
   2:fnReceive.c   ****  *
   3:fnReceive.c   ****  * Copyright YOUR COMPANY, THE YEAR
   4:fnReceive.c   ****  * All Rights Reserved
   5:fnReceive.c   ****  * UNPUBLISHED, LICENSED SOFTWARE.
   6:fnReceive.c   ****  *
   7:fnReceive.c   ****  * CONFIDENTIAL AND PROPRIETARY INFORMATION
   8:fnReceive.c   ****  * WHICH IS THE PROPERTY OF your company.
   9:fnReceive.c   ****  *
  10:fnReceive.c   ****  * ========================================
  11:fnReceive.c   **** */
  12:fnReceive.c   **** // This file will interpret function calls that come over serial
  13:fnReceive.c   **** 
  14:fnReceive.c   **** #include "project.h"
  15:fnReceive.c   **** #include "string.h"
  16:fnReceive.c   **** #include <stdio.h>
  17:fnReceive.c   **** #include <stdlib.h>
  18:fnReceive.c   **** #include "SBT0811.h"
  19:fnReceive.c   **** #include "IMU.h"
  20:fnReceive.c   **** #include "SG90.h"
  21:fnReceive.c   **** #include "TB9051.h"
  22:fnReceive.c   **** #include "HCSR04.h"
  23:fnReceive.c   **** 
  24:fnReceive.c   **** void fnCall(int fn, float * para2, float * para3);
  25:fnReceive.c   **** void fnSend(int fn, float * para2, float * para3);
  26:fnReceive.c   **** void Uart_Resync(int n);
  27:fnReceive.c   **** 
  28:fnReceive.c   **** void fnCall(int fn, float * pPrm1, float * pPrm2) {             // run the function called by the R
  29:fnReceive.c   ****     float para2 = *pPrm1;
ARM GAS  C:\Users\JamesH\AppData\Local\Temp\ccI77WEe.s 			page 2


  30:fnReceive.c   ****     float para3 = *pPrm2;
  31:fnReceive.c   ****     switch (fn) { 
  32:fnReceive.c   ****         case 0: TB9051_VehMoveTo(pPrm1,pPrm2);          break;  // Motor Commands
  33:fnReceive.c   ****         case 1: TB9051_Begin();                         break;
  34:fnReceive.c   ****         //case 2: TB9051_Forward((int)para2,0,(int)para3);break;
  35:fnReceive.c   ****         case 3: TB9051_Reverse((int)para2,(int)para3);  break;
  36:fnReceive.c   ****         case 4: TB9051_Brake((int)para2);               break;
  37:fnReceive.c   ****         case 5: TB9051_VehForward(0,pPrm1);             break;
  38:fnReceive.c   ****         case 6: TB9051_VehReverse((int)para2);          break;
  39:fnReceive.c   ****         case 7: TB9051_VehBrake();                      break;
  40:fnReceive.c   ****         case 8: linAngtoVel(&para2, &para3);            break;
  41:fnReceive.c   ****         case 50: oneStepCCW((int)para2);                break;  // Stepper Commands
  42:fnReceive.c   ****         case 51: oneStepCW((int)para2);                 break;
  43:fnReceive.c   ****         case 52: moveAngle(para2);                      break;
  44:fnReceive.c   ****         //case 60: SG90_Begin();                        break;  // Servo Commands
  45:fnReceive.c   ****         //case 61: SG90_ToAngle(para2);                 break;
  46:fnReceive.c   ****         case 90: Uart_Resync((int)para2);               break;  // UART Commands
  47:fnReceive.c   ****         case 100: HCSR04_Begin();                       break;  // US Commands
  48:fnReceive.c   ****         case 101: distMeasure();                        break; 
  49:fnReceive.c   ****         case 102: distMeasureL();                       break;
  50:fnReceive.c   ****         case 103: distMeasureR();                       break;
  51:fnReceive.c   ****         case 200: LIS3MDL_Begin();                      break; // Accelerometer Commands
  52:fnReceive.c   ****         case 201: LIS3MDL_MasterStatus();               break;
  53:fnReceive.c   ****         case 202: LIS3MDL_TransferByte();               break;
  54:fnReceive.c   ****         case 203: LIS3MDL_TransferMultipleBytes();      break;
  55:fnReceive.c   ****         //case 204: LIS3MDL_ReadAxisRaw(uint8 * (&para2))); TO-DO; break;
  56:fnReceive.c   ****         //case 205: LIS3MDL_ReadAxisDeg(uint16_t * (&para2))); TO-DO; break;
  57:fnReceive.c   ****         //case 206: LIS3MDL_ReadMultipleBytes();          break;
  58:fnReceive.c   ****         //case 207: LIS3MDL_ReadWhoAmIReg(uint8 * rdPtr) TO-DO; break; 
  59:fnReceive.c   ****         case 208: LSM6DS3_Begin();                        break;
  60:fnReceive.c   ****         //case 211: LSM6DS3_ReadAxisRaw TO-DO
  61:fnReceive.c   ****         //case 212 LSM6DS3_ReadAxisDeg TO-DO
  62:fnReceive.c   ****         //case 213: LSM6DS3_ReadMultipleBytes();          break;
  63:fnReceive.c   ****         //case 214: LSM6DS3_ReadWhoAmIReg() TO-DO;      break;
  64:fnReceive.c   ****         //case 215: LSM6DS3_ReadCtrlReg(); TO-DO:       break; 
  65:fnReceive.c   ****     }
  66:fnReceive.c   **** }
  67:fnReceive.c   **** 
  68:fnReceive.c   **** void fnSend(int fn, float * para2, float * para3){      // Send data PSoC -> RPi 
  29              		.loc 1 68 0
  30              		.cfi_startproc
  31              		@ args = 0, pretend = 0, frame = 48
  32              		@ frame_needed = 0, uses_anonymous_args = 0
  33              	.LVL0:
  34 0000 70B5     		push	{r4, r5, r6, lr}
  35              		.cfi_def_cfa_offset 16
  36              		.cfi_offset 4, -16
  37              		.cfi_offset 5, -12
  38              		.cfi_offset 6, -8
  39              		.cfi_offset 14, -4
  40 0002 90B0     		sub	sp, sp, #64
  41              		.cfi_def_cfa_offset 80
  42 0004 0546     		mov	r5, r0
  69:fnReceive.c   ****     uint8 txBuffer[15];
  70:fnReceive.c   ****     
  71:fnReceive.c   ****     union {                                             // Save the float and 4 bytes in the same m
  72:fnReceive.c   ****         float a;
ARM GAS  C:\Users\JamesH\AppData\Local\Temp\ccI77WEe.s 			page 3


  73:fnReceive.c   ****         unsigned char Ba[4];
  74:fnReceive.c   ****     } BtoFa;
  75:fnReceive.c   ****     
  76:fnReceive.c   ****     union {
  77:fnReceive.c   ****         float b;
  78:fnReceive.c   ****         unsigned char Bb[4];
  79:fnReceive.c   ****     } BtoFb;
  80:fnReceive.c   ****     
  81:fnReceive.c   ****     BtoFa.a = *para2;
  43              		.loc 1 81 0
  44 0006 0B68     		ldr	r3, [r1]	@ float
  45 0008 0B93     		str	r3, [sp, #44]	@ float
  82:fnReceive.c   ****     BtoFb.b = *para3;
  46              		.loc 1 82 0
  47 000a 1368     		ldr	r3, [r2]	@ float
  48 000c 0A93     		str	r3, [sp, #40]	@ float
  49              	.LVL1:
  50              	.LBB2:
  83:fnReceive.c   ****     
  84:fnReceive.c   ****     for (int i = 0; i < 3; i++){                        // Assign the 4 bytes of the union to an ar
  51              		.loc 1 84 0
  52 000e 0023     		movs	r3, #0
  53 0010 14E0     		b	.L2
  54              	.LVL2:
  55              	.L3:
  85:fnReceive.c   ****         txBuffer[i+4] = BtoFa.Ba[3-i];
  56              		.loc 1 85 0 discriminator 3
  57 0012 1C1D     		adds	r4, r3, #4
  58 0014 C3F10300 		rsb	r0, r3, #3
  59 0018 10AE     		add	r6, sp, #64
  60 001a 3044     		add	r0, r0, r6
  61 001c 10F8146C 		ldrb	r6, [r0, #-20]	@ zero_extendqisi2
  62 0020 0DF1400E 		add	lr, sp, #64
  63 0024 7444     		add	r4, r4, lr
  64 0026 04F8106C 		strb	r6, [r4, #-16]
  86:fnReceive.c   ****         txBuffer[i+8] = BtoFb.Bb[3-i];
  65              		.loc 1 86 0 discriminator 3
  66 002a 03F10804 		add	r4, r3, #8
  67 002e 10F8186C 		ldrb	r6, [r0, #-24]	@ zero_extendqisi2
  68 0032 7046     		mov	r0, lr
  69 0034 2044     		add	r0, r0, r4
  70 0036 00F8106C 		strb	r6, [r0, #-16]
  84:fnReceive.c   ****         txBuffer[i+4] = BtoFa.Ba[3-i];
  71              		.loc 1 84 0 discriminator 3
  72 003a 0133     		adds	r3, r3, #1
  73              	.LVL3:
  74              	.L2:
  84:fnReceive.c   ****         txBuffer[i+4] = BtoFa.Ba[3-i];
  75              		.loc 1 84 0 is_stmt 0 discriminator 1
  76 003c 022B     		cmp	r3, #2
  77 003e E8DD     		ble	.L3
  78              	.LBE2:
  87:fnReceive.c   ****     }
  88:fnReceive.c   ****     
  89:fnReceive.c   ****     txBuffer[0] = 0xff;                                 // Pad with start bytes
  79              		.loc 1 89 0 is_stmt 1
  80 0040 FF23     		movs	r3, #255
ARM GAS  C:\Users\JamesH\AppData\Local\Temp\ccI77WEe.s 			page 4


  81              	.LVL4:
  82 0042 8DF83030 		strb	r3, [sp, #48]
  90:fnReceive.c   ****     txBuffer[1] = 0xff;
  83              		.loc 1 90 0
  84 0046 8DF83130 		strb	r3, [sp, #49]
  91:fnReceive.c   ****     txBuffer[2] = 0xff;
  85              		.loc 1 91 0
  86 004a 8DF83230 		strb	r3, [sp, #50]
  92:fnReceive.c   ****     txBuffer[3] = (unsigned char)fn;                    // 1st byte is the function
  87              		.loc 1 92 0
  88 004e 8DF83350 		strb	r5, [sp, #51]
  93:fnReceive.c   ****     txBuffer[12] = 0x55;                                // Pad with finish bytes
  89              		.loc 1 93 0
  90 0052 5523     		movs	r3, #85
  91 0054 8DF83C30 		strb	r3, [sp, #60]
  94:fnReceive.c   ****     txBuffer[13] = 0x55;
  92              		.loc 1 94 0
  93 0058 8DF83D30 		strb	r3, [sp, #61]
  95:fnReceive.c   ****     txBuffer[14] = 0x55;
  94              		.loc 1 95 0
  95 005c 8DF83E30 		strb	r3, [sp, #62]
  96:fnReceive.c   ****     
  97:fnReceive.c   ****     /* //// DEBUG /////
  98:fnReceive.c   ****     UART_PutString("Send: ");
  99:fnReceive.c   ****     for (int i = 0; i < 15; i++) {
 100:fnReceive.c   ****         char string[10]; sprintf(string, "%x ", txBuffer[i]); UART_PutString(string);
 101:fnReceive.c   ****     } */
 102:fnReceive.c   ****     if (fn != 101) {
  96              		.loc 1 102 0
  97 0060 652D     		cmp	r5, #101
  98 0062 12D0     		beq	.L4
  99              	.LBB3:
 103:fnReceive.c   ****     char string[20]; sprintf(string, "T:%i,%0.4f,%0.4f\n", fn, *para2, *para3); UART_PutString(stri
 100              		.loc 1 103 0
 101 0064 0C68     		ldr	r4, [r1]	@ float
 102 0066 1068     		ldr	r0, [r2]	@ float
 103 0068 FFF7FEFF 		bl	__aeabi_f2d
 104              	.LVL5:
 105 006c CDE90201 		strd	r0, [sp, #8]
 106 0070 2046     		mov	r0, r4
 107 0072 FFF7FEFF 		bl	__aeabi_f2d
 108              	.LVL6:
 109 0076 CDE90001 		strd	r0, [sp]
 110 007a 2A46     		mov	r2, r5
 111 007c 0649     		ldr	r1, .L6
 112 007e 05A8     		add	r0, sp, #20
 113 0080 FFF7FEFF 		bl	sprintf
 114              	.LVL7:
 115 0084 05A8     		add	r0, sp, #20
 116 0086 FFF7FEFF 		bl	UART_PutString
 117              	.LVL8:
 118              	.L4:
 119              	.LBE3:
 104:fnReceive.c   ****     }
 105:fnReceive.c   ****     UART_RPi_PutArray(txBuffer,15);                     // Send the array to the software buffer
 120              		.loc 1 105 0
 121 008a 0F21     		movs	r1, #15
ARM GAS  C:\Users\JamesH\AppData\Local\Temp\ccI77WEe.s 			page 5


 122 008c 0CA8     		add	r0, sp, #48
 123 008e FFF7FEFF 		bl	UART_RPi_PutArray
 124              	.LVL9:
 106:fnReceive.c   **** }
 125              		.loc 1 106 0
 126 0092 10B0     		add	sp, sp, #64
 127              		.cfi_def_cfa_offset 16
 128              		@ sp needed
 129 0094 70BD     		pop	{r4, r5, r6, pc}
 130              	.LVL10:
 131              	.L7:
 132 0096 00BF     		.align	2
 133              	.L6:
 134 0098 00000000 		.word	.LC0
 135              		.cfi_endproc
 136              	.LFE65:
 137              		.size	fnSend, .-fnSend
 138              		.section	.text.Uart_Resync,"ax",%progbits
 139              		.align	2
 140              		.global	Uart_Resync
 141              		.thumb
 142              		.thumb_func
 143              		.type	Uart_Resync, %function
 144              	Uart_Resync:
 145              	.LFB66:
 107:fnReceive.c   **** 
 108:fnReceive.c   **** void Uart_Resync(int n){                        // If out of sync, send dummy characters to resync.
 146              		.loc 1 108 0
 147              		.cfi_startproc
 148              		@ args = 0, pretend = 0, frame = 16
 149              		@ frame_needed = 0, uses_anonymous_args = 0
 150              	.LVL11:
 151 0000 10B5     		push	{r4, lr}
 152              		.cfi_def_cfa_offset 8
 153              		.cfi_offset 4, -8
 154              		.cfi_offset 14, -4
 155 0002 84B0     		sub	sp, sp, #16
 156              		.cfi_def_cfa_offset 24
 157 0004 0446     		mov	r4, r0
 109:fnReceive.c   ****     UART_PutString("resync");
 158              		.loc 1 109 0
 159 0006 0948     		ldr	r0, .L11
 160              	.LVL12:
 161 0008 FFF7FEFF 		bl	UART_PutString
 162              	.LVL13:
 110:fnReceive.c   ****     uint8 resyncBuff[15] = {0};
 163              		.loc 1 110 0
 164 000c 0023     		movs	r3, #0
 165 000e 0093     		str	r3, [sp]
 166 0010 0193     		str	r3, [sp, #4]
 167 0012 0293     		str	r3, [sp, #8]
 168 0014 CDF80B30 		str	r3, [sp, #11]	@ unaligned
 111:fnReceive.c   ****     if (UART_RPi_GetTxBufferSize() == 0) {
 169              		.loc 1 111 0
 170 0018 FFF7FEFF 		bl	UART_RPi_GetTxBufferSize
 171              	.LVL14:
 172 001c 18B9     		cbnz	r0, .L8
ARM GAS  C:\Users\JamesH\AppData\Local\Temp\ccI77WEe.s 			page 6


 112:fnReceive.c   ****         UART_RPi_PutArray(resyncBuff,n);
 173              		.loc 1 112 0
 174 001e E1B2     		uxtb	r1, r4
 175 0020 6846     		mov	r0, sp
 176 0022 FFF7FEFF 		bl	UART_RPi_PutArray
 177              	.LVL15:
 178              	.L8:
 113:fnReceive.c   ****     }
 114:fnReceive.c   **** }
 179              		.loc 1 114 0
 180 0026 04B0     		add	sp, sp, #16
 181              		.cfi_def_cfa_offset 8
 182              		@ sp needed
 183 0028 10BD     		pop	{r4, pc}
 184              	.LVL16:
 185              	.L12:
 186 002a 00BF     		.align	2
 187              	.L11:
 188 002c 14000000 		.word	.LC1
 189              		.cfi_endproc
 190              	.LFE66:
 191              		.size	Uart_Resync, .-Uart_Resync
 192              		.global	__aeabi_f2iz
 193              		.section	.text.fnCall,"ax",%progbits
 194              		.align	2
 195              		.global	fnCall
 196              		.thumb
 197              		.thumb_func
 198              		.type	fnCall, %function
 199              	fnCall:
 200              	.LFB64:
  28:fnReceive.c   ****     float para2 = *pPrm1;
 201              		.loc 1 28 0
 202              		.cfi_startproc
 203              		@ args = 0, pretend = 0, frame = 8
 204              		@ frame_needed = 0, uses_anonymous_args = 0
 205              	.LVL17:
 206 0000 30B5     		push	{r4, r5, lr}
 207              		.cfi_def_cfa_offset 12
 208              		.cfi_offset 4, -12
 209              		.cfi_offset 5, -8
 210              		.cfi_offset 14, -4
 211 0002 83B0     		sub	sp, sp, #12
 212              		.cfi_def_cfa_offset 24
 213 0004 0B46     		mov	r3, r1
  29:fnReceive.c   ****     float para3 = *pPrm2;
 214              		.loc 1 29 0
 215 0006 0C68     		ldr	r4, [r1]	@ float
 216 0008 0194     		str	r4, [sp, #4]	@ float
  30:fnReceive.c   ****     switch (fn) { 
 217              		.loc 1 30 0
 218 000a 1568     		ldr	r5, [r2]	@ float
 219 000c 0095     		str	r5, [sp]	@ float
  31:fnReceive.c   ****         case 0: TB9051_VehMoveTo(pPrm1,pPrm2);          break;  // Motor Commands
 220              		.loc 1 31 0
 221 000e D028     		cmp	r0, #208
 222 0010 00F2C780 		bhi	.L13
ARM GAS  C:\Users\JamesH\AppData\Local\Temp\ccI77WEe.s 			page 7


 223 0014 DFE800F0 		tbb	[pc, r0]
 224              	.LVL18:
 225              	.L16:
 226 0018 69       		.byte	(.L15-.L16)/2
 227 0019 6E       		.byte	(.L17-.L16)/2
 228 001a C5       		.byte	(.L13-.L16)/2
 229 001b 71       		.byte	(.L18-.L16)/2
 230 001c 7C       		.byte	(.L19-.L16)/2
 231 001d 82       		.byte	(.L20-.L16)/2
 232 001e 87       		.byte	(.L21-.L16)/2
 233 001f 8D       		.byte	(.L22-.L16)/2
 234 0020 90       		.byte	(.L23-.L16)/2
 235 0021 C5       		.byte	(.L13-.L16)/2
 236 0022 C5       		.byte	(.L13-.L16)/2
 237 0023 C5       		.byte	(.L13-.L16)/2
 238 0024 C5       		.byte	(.L13-.L16)/2
 239 0025 C5       		.byte	(.L13-.L16)/2
 240 0026 C5       		.byte	(.L13-.L16)/2
 241 0027 C5       		.byte	(.L13-.L16)/2
 242 0028 C5       		.byte	(.L13-.L16)/2
 243 0029 C5       		.byte	(.L13-.L16)/2
 244 002a C5       		.byte	(.L13-.L16)/2
 245 002b C5       		.byte	(.L13-.L16)/2
 246 002c C5       		.byte	(.L13-.L16)/2
 247 002d C5       		.byte	(.L13-.L16)/2
 248 002e C5       		.byte	(.L13-.L16)/2
 249 002f C5       		.byte	(.L13-.L16)/2
 250 0030 C5       		.byte	(.L13-.L16)/2
 251 0031 C5       		.byte	(.L13-.L16)/2
 252 0032 C5       		.byte	(.L13-.L16)/2
 253 0033 C5       		.byte	(.L13-.L16)/2
 254 0034 C5       		.byte	(.L13-.L16)/2
 255 0035 C5       		.byte	(.L13-.L16)/2
 256 0036 C5       		.byte	(.L13-.L16)/2
 257 0037 C5       		.byte	(.L13-.L16)/2
 258 0038 C5       		.byte	(.L13-.L16)/2
 259 0039 C5       		.byte	(.L13-.L16)/2
 260 003a C5       		.byte	(.L13-.L16)/2
 261 003b C5       		.byte	(.L13-.L16)/2
 262 003c C5       		.byte	(.L13-.L16)/2
 263 003d C5       		.byte	(.L13-.L16)/2
 264 003e C5       		.byte	(.L13-.L16)/2
 265 003f C5       		.byte	(.L13-.L16)/2
 266 0040 C5       		.byte	(.L13-.L16)/2
 267 0041 C5       		.byte	(.L13-.L16)/2
 268 0042 C5       		.byte	(.L13-.L16)/2
 269 0043 C5       		.byte	(.L13-.L16)/2
 270 0044 C5       		.byte	(.L13-.L16)/2
 271 0045 C5       		.byte	(.L13-.L16)/2
 272 0046 C5       		.byte	(.L13-.L16)/2
 273 0047 C5       		.byte	(.L13-.L16)/2
 274 0048 C5       		.byte	(.L13-.L16)/2
 275 0049 C5       		.byte	(.L13-.L16)/2
 276 004a 95       		.byte	(.L24-.L16)/2
 277 004b 9B       		.byte	(.L25-.L16)/2
 278 004c A1       		.byte	(.L26-.L16)/2
 279 004d C5       		.byte	(.L13-.L16)/2
ARM GAS  C:\Users\JamesH\AppData\Local\Temp\ccI77WEe.s 			page 8


 280 004e C5       		.byte	(.L13-.L16)/2
 281 004f C5       		.byte	(.L13-.L16)/2
 282 0050 C5       		.byte	(.L13-.L16)/2
 283 0051 C5       		.byte	(.L13-.L16)/2
 284 0052 C5       		.byte	(.L13-.L16)/2
 285 0053 C5       		.byte	(.L13-.L16)/2
 286 0054 C5       		.byte	(.L13-.L16)/2
 287 0055 C5       		.byte	(.L13-.L16)/2
 288 0056 C5       		.byte	(.L13-.L16)/2
 289 0057 C5       		.byte	(.L13-.L16)/2
 290 0058 C5       		.byte	(.L13-.L16)/2
 291 0059 C5       		.byte	(.L13-.L16)/2
 292 005a C5       		.byte	(.L13-.L16)/2
 293 005b C5       		.byte	(.L13-.L16)/2
 294 005c C5       		.byte	(.L13-.L16)/2
 295 005d C5       		.byte	(.L13-.L16)/2
 296 005e C5       		.byte	(.L13-.L16)/2
 297 005f C5       		.byte	(.L13-.L16)/2
 298 0060 C5       		.byte	(.L13-.L16)/2
 299 0061 C5       		.byte	(.L13-.L16)/2
 300 0062 C5       		.byte	(.L13-.L16)/2
 301 0063 C5       		.byte	(.L13-.L16)/2
 302 0064 C5       		.byte	(.L13-.L16)/2
 303 0065 C5       		.byte	(.L13-.L16)/2
 304 0066 C5       		.byte	(.L13-.L16)/2
 305 0067 C5       		.byte	(.L13-.L16)/2
 306 0068 C5       		.byte	(.L13-.L16)/2
 307 0069 C5       		.byte	(.L13-.L16)/2
 308 006a C5       		.byte	(.L13-.L16)/2
 309 006b C5       		.byte	(.L13-.L16)/2
 310 006c C5       		.byte	(.L13-.L16)/2
 311 006d C5       		.byte	(.L13-.L16)/2
 312 006e C5       		.byte	(.L13-.L16)/2
 313 006f C5       		.byte	(.L13-.L16)/2
 314 0070 C5       		.byte	(.L13-.L16)/2
 315 0071 C5       		.byte	(.L13-.L16)/2
 316 0072 A5       		.byte	(.L27-.L16)/2
 317 0073 C5       		.byte	(.L13-.L16)/2
 318 0074 C5       		.byte	(.L13-.L16)/2
 319 0075 C5       		.byte	(.L13-.L16)/2
 320 0076 C5       		.byte	(.L13-.L16)/2
 321 0077 C5       		.byte	(.L13-.L16)/2
 322 0078 C5       		.byte	(.L13-.L16)/2
 323 0079 C5       		.byte	(.L13-.L16)/2
 324 007a C5       		.byte	(.L13-.L16)/2
 325 007b C5       		.byte	(.L13-.L16)/2
 326 007c AB       		.byte	(.L28-.L16)/2
 327 007d AE       		.byte	(.L29-.L16)/2
 328 007e B1       		.byte	(.L30-.L16)/2
 329 007f B4       		.byte	(.L31-.L16)/2
 330 0080 C5       		.byte	(.L13-.L16)/2
 331 0081 C5       		.byte	(.L13-.L16)/2
 332 0082 C5       		.byte	(.L13-.L16)/2
 333 0083 C5       		.byte	(.L13-.L16)/2
 334 0084 C5       		.byte	(.L13-.L16)/2
 335 0085 C5       		.byte	(.L13-.L16)/2
 336 0086 C5       		.byte	(.L13-.L16)/2
ARM GAS  C:\Users\JamesH\AppData\Local\Temp\ccI77WEe.s 			page 9


 337 0087 C5       		.byte	(.L13-.L16)/2
 338 0088 C5       		.byte	(.L13-.L16)/2
 339 0089 C5       		.byte	(.L13-.L16)/2
 340 008a C5       		.byte	(.L13-.L16)/2
 341 008b C5       		.byte	(.L13-.L16)/2
 342 008c C5       		.byte	(.L13-.L16)/2
 343 008d C5       		.byte	(.L13-.L16)/2
 344 008e C5       		.byte	(.L13-.L16)/2
 345 008f C5       		.byte	(.L13-.L16)/2
 346 0090 C5       		.byte	(.L13-.L16)/2
 347 0091 C5       		.byte	(.L13-.L16)/2
 348 0092 C5       		.byte	(.L13-.L16)/2
 349 0093 C5       		.byte	(.L13-.L16)/2
 350 0094 C5       		.byte	(.L13-.L16)/2
 351 0095 C5       		.byte	(.L13-.L16)/2
 352 0096 C5       		.byte	(.L13-.L16)/2
 353 0097 C5       		.byte	(.L13-.L16)/2
 354 0098 C5       		.byte	(.L13-.L16)/2
 355 0099 C5       		.byte	(.L13-.L16)/2
 356 009a C5       		.byte	(.L13-.L16)/2
 357 009b C5       		.byte	(.L13-.L16)/2
 358 009c C5       		.byte	(.L13-.L16)/2
 359 009d C5       		.byte	(.L13-.L16)/2
 360 009e C5       		.byte	(.L13-.L16)/2
 361 009f C5       		.byte	(.L13-.L16)/2
 362 00a0 C5       		.byte	(.L13-.L16)/2
 363 00a1 C5       		.byte	(.L13-.L16)/2
 364 00a2 C5       		.byte	(.L13-.L16)/2
 365 00a3 C5       		.byte	(.L13-.L16)/2
 366 00a4 C5       		.byte	(.L13-.L16)/2
 367 00a5 C5       		.byte	(.L13-.L16)/2
 368 00a6 C5       		.byte	(.L13-.L16)/2
 369 00a7 C5       		.byte	(.L13-.L16)/2
 370 00a8 C5       		.byte	(.L13-.L16)/2
 371 00a9 C5       		.byte	(.L13-.L16)/2
 372 00aa C5       		.byte	(.L13-.L16)/2
 373 00ab C5       		.byte	(.L13-.L16)/2
 374 00ac C5       		.byte	(.L13-.L16)/2
 375 00ad C5       		.byte	(.L13-.L16)/2
 376 00ae C5       		.byte	(.L13-.L16)/2
 377 00af C5       		.byte	(.L13-.L16)/2
 378 00b0 C5       		.byte	(.L13-.L16)/2
 379 00b1 C5       		.byte	(.L13-.L16)/2
 380 00b2 C5       		.byte	(.L13-.L16)/2
 381 00b3 C5       		.byte	(.L13-.L16)/2
 382 00b4 C5       		.byte	(.L13-.L16)/2
 383 00b5 C5       		.byte	(.L13-.L16)/2
 384 00b6 C5       		.byte	(.L13-.L16)/2
 385 00b7 C5       		.byte	(.L13-.L16)/2
 386 00b8 C5       		.byte	(.L13-.L16)/2
 387 00b9 C5       		.byte	(.L13-.L16)/2
 388 00ba C5       		.byte	(.L13-.L16)/2
 389 00bb C5       		.byte	(.L13-.L16)/2
 390 00bc C5       		.byte	(.L13-.L16)/2
 391 00bd C5       		.byte	(.L13-.L16)/2
 392 00be C5       		.byte	(.L13-.L16)/2
 393 00bf C5       		.byte	(.L13-.L16)/2
ARM GAS  C:\Users\JamesH\AppData\Local\Temp\ccI77WEe.s 			page 10


 394 00c0 C5       		.byte	(.L13-.L16)/2
 395 00c1 C5       		.byte	(.L13-.L16)/2
 396 00c2 C5       		.byte	(.L13-.L16)/2
 397 00c3 C5       		.byte	(.L13-.L16)/2
 398 00c4 C5       		.byte	(.L13-.L16)/2
 399 00c5 C5       		.byte	(.L13-.L16)/2
 400 00c6 C5       		.byte	(.L13-.L16)/2
 401 00c7 C5       		.byte	(.L13-.L16)/2
 402 00c8 C5       		.byte	(.L13-.L16)/2
 403 00c9 C5       		.byte	(.L13-.L16)/2
 404 00ca C5       		.byte	(.L13-.L16)/2
 405 00cb C5       		.byte	(.L13-.L16)/2
 406 00cc C5       		.byte	(.L13-.L16)/2
 407 00cd C5       		.byte	(.L13-.L16)/2
 408 00ce C5       		.byte	(.L13-.L16)/2
 409 00cf C5       		.byte	(.L13-.L16)/2
 410 00d0 C5       		.byte	(.L13-.L16)/2
 411 00d1 C5       		.byte	(.L13-.L16)/2
 412 00d2 C5       		.byte	(.L13-.L16)/2
 413 00d3 C5       		.byte	(.L13-.L16)/2
 414 00d4 C5       		.byte	(.L13-.L16)/2
 415 00d5 C5       		.byte	(.L13-.L16)/2
 416 00d6 C5       		.byte	(.L13-.L16)/2
 417 00d7 C5       		.byte	(.L13-.L16)/2
 418 00d8 C5       		.byte	(.L13-.L16)/2
 419 00d9 C5       		.byte	(.L13-.L16)/2
 420 00da C5       		.byte	(.L13-.L16)/2
 421 00db C5       		.byte	(.L13-.L16)/2
 422 00dc C5       		.byte	(.L13-.L16)/2
 423 00dd C5       		.byte	(.L13-.L16)/2
 424 00de C5       		.byte	(.L13-.L16)/2
 425 00df C5       		.byte	(.L13-.L16)/2
 426 00e0 B7       		.byte	(.L32-.L16)/2
 427 00e1 BA       		.byte	(.L33-.L16)/2
 428 00e2 BD       		.byte	(.L34-.L16)/2
 429 00e3 C0       		.byte	(.L35-.L16)/2
 430 00e4 C5       		.byte	(.L13-.L16)/2
 431 00e5 C5       		.byte	(.L13-.L16)/2
 432 00e6 C5       		.byte	(.L13-.L16)/2
 433 00e7 C5       		.byte	(.L13-.L16)/2
 434 00e8 C3       		.byte	(.L36-.L16)/2
 435 00e9 00       		.p2align 1
 436              	.L15:
 437              	.LBB4:
  32:fnReceive.c   ****         case 1: TB9051_Begin();                         break;
 438              		.loc 1 32 0
 439 00ea 1146     		mov	r1, r2
 440 00ec 1846     		mov	r0, r3
 441              	.LVL19:
 442 00ee FFF7FEFF 		bl	TB9051_VehMoveTo
 443              	.LVL20:
 444 00f2 56E0     		b	.L13
 445              	.LVL21:
 446              	.L17:
  33:fnReceive.c   ****         //case 2: TB9051_Forward((int)para2,0,(int)para3);break;
 447              		.loc 1 33 0
 448 00f4 FFF7FEFF 		bl	TB9051_Begin
ARM GAS  C:\Users\JamesH\AppData\Local\Temp\ccI77WEe.s 			page 11


 449              	.LVL22:
 450 00f8 53E0     		b	.L13
 451              	.LVL23:
 452              	.L18:
  35:fnReceive.c   ****         case 4: TB9051_Brake((int)para2);               break;
 453              		.loc 1 35 0
 454 00fa 2846     		mov	r0, r5
 455              	.LVL24:
 456 00fc FFF7FEFF 		bl	__aeabi_f2iz
 457              	.LVL25:
 458 0100 0546     		mov	r5, r0
 459 0102 2046     		mov	r0, r4
 460 0104 FFF7FEFF 		bl	__aeabi_f2iz
 461              	.LVL26:
 462 0108 2946     		mov	r1, r5
 463 010a FFF7FEFF 		bl	TB9051_Reverse
 464              	.LVL27:
 465 010e 48E0     		b	.L13
 466              	.LVL28:
 467              	.L19:
  36:fnReceive.c   ****         case 5: TB9051_VehForward(0,pPrm1);             break;
 468              		.loc 1 36 0
 469 0110 2046     		mov	r0, r4
 470              	.LVL29:
 471 0112 FFF7FEFF 		bl	__aeabi_f2iz
 472              	.LVL30:
 473 0116 FFF7FEFF 		bl	TB9051_Brake
 474              	.LVL31:
 475 011a 42E0     		b	.L13
 476              	.LVL32:
 477              	.L20:
  37:fnReceive.c   ****         case 6: TB9051_VehReverse((int)para2);          break;
 478              		.loc 1 37 0
 479 011c 1946     		mov	r1, r3
 480 011e 0020     		movs	r0, #0
 481              	.LVL33:
 482 0120 FFF7FEFF 		bl	TB9051_VehForward
 483              	.LVL34:
 484 0124 3DE0     		b	.L13
 485              	.LVL35:
 486              	.L21:
  38:fnReceive.c   ****         case 7: TB9051_VehBrake();                      break;
 487              		.loc 1 38 0
 488 0126 2046     		mov	r0, r4
 489              	.LVL36:
 490 0128 FFF7FEFF 		bl	__aeabi_f2iz
 491              	.LVL37:
 492 012c FFF7FEFF 		bl	TB9051_VehReverse
 493              	.LVL38:
 494 0130 37E0     		b	.L13
 495              	.LVL39:
 496              	.L22:
  39:fnReceive.c   ****         case 8: linAngtoVel(&para2, &para3);            break;
 497              		.loc 1 39 0
 498 0132 FFF7FEFF 		bl	TB9051_VehBrake
 499              	.LVL40:
 500 0136 34E0     		b	.L13
ARM GAS  C:\Users\JamesH\AppData\Local\Temp\ccI77WEe.s 			page 12


 501              	.LVL41:
 502              	.L23:
  40:fnReceive.c   ****         case 50: oneStepCCW((int)para2);                break;  // Stepper Commands
 503              		.loc 1 40 0
 504 0138 6946     		mov	r1, sp
 505 013a 01A8     		add	r0, sp, #4
 506              	.LVL42:
 507 013c FFF7FEFF 		bl	linAngtoVel
 508              	.LVL43:
 509 0140 2FE0     		b	.L13
 510              	.LVL44:
 511              	.L24:
  41:fnReceive.c   ****         case 51: oneStepCW((int)para2);                 break;
 512              		.loc 1 41 0
 513 0142 2046     		mov	r0, r4
 514              	.LVL45:
 515 0144 FFF7FEFF 		bl	__aeabi_f2iz
 516              	.LVL46:
 517 0148 FFF7FEFF 		bl	oneStepCCW
 518              	.LVL47:
 519 014c 29E0     		b	.L13
 520              	.LVL48:
 521              	.L25:
  42:fnReceive.c   ****         case 52: moveAngle(para2);                      break;
 522              		.loc 1 42 0
 523 014e 2046     		mov	r0, r4
 524              	.LVL49:
 525 0150 FFF7FEFF 		bl	__aeabi_f2iz
 526              	.LVL50:
 527 0154 FFF7FEFF 		bl	oneStepCW
 528              	.LVL51:
 529 0158 23E0     		b	.L13
 530              	.LVL52:
 531              	.L26:
  43:fnReceive.c   ****         //case 60: SG90_Begin();                        break;  // Servo Commands
 532              		.loc 1 43 0
 533 015a 2046     		mov	r0, r4
 534              	.LVL53:
 535 015c FFF7FEFF 		bl	moveAngle
 536              	.LVL54:
 537 0160 1FE0     		b	.L13
 538              	.LVL55:
 539              	.L27:
  46:fnReceive.c   ****         case 100: HCSR04_Begin();                       break;  // US Commands
 540              		.loc 1 46 0
 541 0162 2046     		mov	r0, r4
 542              	.LVL56:
 543 0164 FFF7FEFF 		bl	__aeabi_f2iz
 544              	.LVL57:
 545 0168 FFF7FEFF 		bl	Uart_Resync
 546              	.LVL58:
 547 016c 19E0     		b	.L13
 548              	.LVL59:
 549              	.L28:
  47:fnReceive.c   ****         case 101: distMeasure();                        break; 
 550              		.loc 1 47 0
 551 016e FFF7FEFF 		bl	HCSR04_Begin
ARM GAS  C:\Users\JamesH\AppData\Local\Temp\ccI77WEe.s 			page 13


 552              	.LVL60:
 553 0172 16E0     		b	.L13
 554              	.LVL61:
 555              	.L29:
  48:fnReceive.c   ****         case 102: distMeasureL();                       break;
 556              		.loc 1 48 0
 557 0174 FFF7FEFF 		bl	distMeasure
 558              	.LVL62:
 559 0178 13E0     		b	.L13
 560              	.LVL63:
 561              	.L30:
  49:fnReceive.c   ****         case 103: distMeasureR();                       break;
 562              		.loc 1 49 0
 563 017a FFF7FEFF 		bl	distMeasureL
 564              	.LVL64:
 565 017e 10E0     		b	.L13
 566              	.LVL65:
 567              	.L31:
  50:fnReceive.c   ****         case 200: LIS3MDL_Begin();                      break; // Accelerometer Commands
 568              		.loc 1 50 0
 569 0180 FFF7FEFF 		bl	distMeasureR
 570              	.LVL66:
 571 0184 0DE0     		b	.L13
 572              	.LVL67:
 573              	.L32:
  51:fnReceive.c   ****         case 201: LIS3MDL_MasterStatus();               break;
 574              		.loc 1 51 0
 575 0186 FFF7FEFF 		bl	LIS3MDL_Begin
 576              	.LVL68:
 577 018a 0AE0     		b	.L13
 578              	.LVL69:
 579              	.L33:
  52:fnReceive.c   ****         case 202: LIS3MDL_TransferByte();               break;
 580              		.loc 1 52 0
 581 018c FFF7FEFF 		bl	LIS3MDL_MasterStatus
 582              	.LVL70:
 583 0190 07E0     		b	.L13
 584              	.LVL71:
 585              	.L34:
  53:fnReceive.c   ****         case 203: LIS3MDL_TransferMultipleBytes();      break;
 586              		.loc 1 53 0
 587 0192 FFF7FEFF 		bl	LIS3MDL_TransferByte
 588              	.LVL72:
 589 0196 04E0     		b	.L13
 590              	.LVL73:
 591              	.L35:
  54:fnReceive.c   ****         //case 204: LIS3MDL_ReadAxisRaw(uint8 * (&para2))); TO-DO; break;
 592              		.loc 1 54 0
 593 0198 FFF7FEFF 		bl	LIS3MDL_TransferMultipleBytes
 594              	.LVL74:
 595 019c 01E0     		b	.L13
 596              	.LVL75:
 597              	.L36:
  59:fnReceive.c   ****         //case 211: LSM6DS3_ReadAxisRaw TO-DO
 598              		.loc 1 59 0
 599 019e FFF7FEFF 		bl	LSM6DS3_Begin
 600              	.LVL76:
ARM GAS  C:\Users\JamesH\AppData\Local\Temp\ccI77WEe.s 			page 14


 601              	.L13:
 602              	.LBE4:
  66:fnReceive.c   **** 
 603              		.loc 1 66 0
 604 01a2 03B0     		add	sp, sp, #12
 605              		.cfi_def_cfa_offset 12
 606              		@ sp needed
 607 01a4 30BD     		pop	{r4, r5, pc}
 608              		.cfi_endproc
 609              	.LFE64:
 610              		.size	fnCall, .-fnCall
 611 01a6 00BF     		.section	.rodata.str1.4,"aMS",%progbits,1
 612              		.align	2
 613              	.LC0:
 614 0000 543A2569 		.ascii	"T:%i,%0.4f,%0.4f\012\000"
 614      2C25302E 
 614      34662C25 
 614      302E3466 
 614      0A00
 615 0012 0000     		.space	2
 616              	.LC1:
 617 0014 72657379 		.ascii	"resync\000"
 617      6E6300
 618              		.text
 619              	.Letext0:
 620              		.file 2 "c:\\program files (x86)\\cypress\\psoc creator\\4.4\\psoc creator\\import\\gnu\\arm\\5.4.
 621              		.file 3 "c:\\program files (x86)\\cypress\\psoc creator\\4.4\\psoc creator\\import\\gnu\\arm\\5.4.
 622              		.file 4 "Generated_Source\\PSoC5/cytypes.h"
 623              		.file 5 "c:\\program files (x86)\\cypress\\psoc creator\\4.4\\psoc creator\\import\\gnu\\arm\\5.4.
 624              		.file 6 "Generated_Source\\PSoC5/UART.h"
 625              		.file 7 "Generated_Source\\PSoC5/UART_RPi.h"
 626              		.file 8 "TB9051.h"
 627              		.file 9 "SBT0811.h"
 628              		.file 10 "HCSR04.h"
 629              		.file 11 "IMU.h"
 630              		.file 12 "Generated_Source\\PSoC5/core_cm3.h"