ARM GAS  C:\Users\JamesH\AppData\Local\Temp\cccgTYo2.s 			page 1


   1              		.syntax unified
   2              		.cpu cortex-m3
   3              		.fpu softvfp
   4              		.eabi_attribute 20, 1
   5              		.eabi_attribute 21, 1
   6              		.eabi_attribute 23, 3
   7              		.eabi_attribute 24, 1
   8              		.eabi_attribute 25, 1
   9              		.eabi_attribute 26, 1
  10              		.eabi_attribute 30, 1
  11              		.eabi_attribute 34, 1
  12              		.eabi_attribute 18, 4
  13              		.thumb
  14              		.syntax unified
  15              		.file	"HCSR04.c"
  16              		.text
  17              	.Ltext0:
  18              		.cfi_sections	.debug_frame
  19              		.section	.text.HCSR04_Begin,"ax",%progbits
  20              		.align	2
  21              		.global	HCSR04_Begin
  22              		.thumb
  23              		.thumb_func
  24              		.type	HCSR04_Begin, %function
  25              	HCSR04_Begin:
  26              	.LFB64:
  27              		.file 1 "HCSR04.c"
   1:HCSR04.c      **** /* ========================================
   2:HCSR04.c      ****  *
   3:HCSR04.c      ****  * Copyright YOUR COMPANY, THE YEAR
   4:HCSR04.c      ****  * All Rights Reserved
   5:HCSR04.c      ****  * UNPUBLISHED, LICENSED SOFTWARE.
   6:HCSR04.c      ****  *
   7:HCSR04.c      ****  * CONFIDENTIAL AND PROPRIETARY INFORMATION
   8:HCSR04.c      ****  * WHICH IS THE PROPERTY OF your company.
   9:HCSR04.c      ****  *
  10:HCSR04.c      ****  * ========================================
  11:HCSR04.c      **** */
  12:HCSR04.c      **** #include "project.h"
  13:HCSR04.c      **** #include "HCSR04.h"
  14:HCSR04.c      **** #include "stdio.h"
  15:HCSR04.c      **** #include <stdlib.h>
  16:HCSR04.c      **** #include "HCSR04.h"
  17:HCSR04.c      **** #define AV_Ln 5
  18:HCSR04.c      **** 
  19:HCSR04.c      **** float spSound = 331.5;
  20:HCSR04.c      **** CY_ISR(Capture2);
  21:HCSR04.c      **** CY_ISR(Trigger);
  22:HCSR04.c      **** int mCounterR = 0;
  23:HCSR04.c      **** int mCounterL = 0;
  24:HCSR04.c      **** int initFlag = 0;
  25:HCSR04.c      **** int compLFlag = 0;
  26:HCSR04.c      **** int compRFlag = 0;
  27:HCSR04.c      **** float distL[AV_Ln] = {0};
  28:HCSR04.c      **** float distAvL = 0;
  29:HCSR04.c      **** float distAvR = 0;
  30:HCSR04.c      **** float distR[AV_Ln] = {0};
ARM GAS  C:\Users\JamesH\AppData\Local\Temp\cccgTYo2.s 			page 2


  31:HCSR04.c      **** extern float US_L, US_R;
  32:HCSR04.c      **** int lockoutCount = 0;
  33:HCSR04.c      **** 
  34:HCSR04.c      **** void HCSR04_Begin(){
  28              		.loc 1 34 0
  29              		.cfi_startproc
  30              		@ args = 0, pretend = 0, frame = 0
  31              		@ frame_needed = 0, uses_anonymous_args = 0
  32 0000 08B5     		push	{r3, lr}
  33              		.cfi_def_cfa_offset 8
  34              		.cfi_offset 3, -8
  35              		.cfi_offset 14, -4
  35:HCSR04.c      ****     E_R_Start();                // Begin interrupts
  36              		.loc 1 35 0
  37 0002 FFF7FEFF 		bl	E_R_Start
  38              	.LVL0:
  36:HCSR04.c      ****     E_L_Start();
  39              		.loc 1 36 0
  40 0006 FFF7FEFF 		bl	E_L_Start
  41              	.LVL1:
  37:HCSR04.c      ****     E_R_ClearPending();
  42              		.loc 1 37 0
  43 000a FFF7FEFF 		bl	E_R_ClearPending
  44              	.LVL2:
  38:HCSR04.c      ****     E_R_StartEx(CaptureR);
  45              		.loc 1 38 0
  46 000e 0C48     		ldr	r0, .L3
  47 0010 FFF7FEFF 		bl	E_R_StartEx
  48              	.LVL3:
  39:HCSR04.c      ****     E_L_ClearPending();
  49              		.loc 1 39 0
  50 0014 FFF7FEFF 		bl	E_L_ClearPending
  51              	.LVL4:
  40:HCSR04.c      ****     E_L_StartEx(CaptureL);
  52              		.loc 1 40 0
  53 0018 0A48     		ldr	r0, .L3+4
  54 001a FFF7FEFF 		bl	E_L_StartEx
  55              	.LVL5:
  41:HCSR04.c      ****     US_Trig_Start();
  56              		.loc 1 41 0
  57 001e FFF7FEFF 		bl	US_Trig_Start
  58              	.LVL6:
  42:HCSR04.c      ****     US_Trig_ClearPending();
  59              		.loc 1 42 0
  60 0022 FFF7FEFF 		bl	US_Trig_ClearPending
  61              	.LVL7:
  43:HCSR04.c      ****     US_Trig_StartEx(Trigger);
  62              		.loc 1 43 0
  63 0026 0848     		ldr	r0, .L3+8
  64 0028 FFF7FEFF 		bl	US_Trig_StartEx
  65              	.LVL8:
  44:HCSR04.c      ****     Timer_R_Start();            //Begin Timers
  66              		.loc 1 44 0
  67 002c FFF7FEFF 		bl	Timer_R_Start
  68              	.LVL9:
  45:HCSR04.c      ****     Timer_L_Start();
  69              		.loc 1 45 0
ARM GAS  C:\Users\JamesH\AppData\Local\Temp\cccgTYo2.s 			page 3


  70 0030 FFF7FEFF 		bl	Timer_L_Start
  71              	.LVL10:
  46:HCSR04.c      ****     US_Timer_Start();
  72              		.loc 1 46 0
  73 0034 FFF7FEFF 		bl	US_Timer_Start
  74              	.LVL11:
  47:HCSR04.c      ****     initFlag = 1;
  75              		.loc 1 47 0
  76 0038 0122     		movs	r2, #1
  77 003a 044B     		ldr	r3, .L3+12
  78 003c 1A60     		str	r2, [r3]
  79 003e 08BD     		pop	{r3, pc}
  80              	.L4:
  81              		.align	2
  82              	.L3:
  83 0040 00000000 		.word	CaptureR
  84 0044 00000000 		.word	CaptureL
  85 0048 00000000 		.word	Trigger
  86 004c 00000000 		.word	.LANCHOR0
  87              		.cfi_endproc
  88              	.LFE64:
  89              		.size	HCSR04_Begin, .-HCSR04_Begin
  90              		.section	.text.distMeasureL,"ax",%progbits
  91              		.align	2
  92              		.global	distMeasureL
  93              		.thumb
  94              		.thumb_func
  95              		.type	distMeasureL, %function
  96              	distMeasureL:
  97              	.LFB66:
  48:HCSR04.c      **** }
  49:HCSR04.c      **** 
  50:HCSR04.c      **** void distMeasure(){
  51:HCSR04.c      ****     if (initFlag){
  52:HCSR04.c      ****         compLFlag = 0; compRFlag = 0;
  53:HCSR04.c      ****         distMeasureL();
  54:HCSR04.c      ****         distMeasureR();
  55:HCSR04.c      ****         //CyDelay(5);            // TO-DO: Replace this with something more efficient
  56:HCSR04.c      ****         int i = 0;
  57:HCSR04.c      ****         do {
  58:HCSR04.c      ****             CyDelayUs(10);
  59:HCSR04.c      ****             i++;
  60:HCSR04.c      ****         } while((i < 500) & (compLFlag == 0 & compRFlag == 0));
  61:HCSR04.c      ****         
  62:HCSR04.c      ****         if (distAvL < 0.04 | distAvR < 0.04) {
  63:HCSR04.c      ****             lockoutCount++;
  64:HCSR04.c      ****             if (lockoutCount == 3) {
  65:HCSR04.c      ****                 MotorStop();
  66:HCSR04.c      ****             }
  67:HCSR04.c      ****         }
  68:HCSR04.c      ****             
  69:HCSR04.c      ****             
  70:HCSR04.c      ****         if (distAvL < 0.5 | distAvR < 0.5)
  71:HCSR04.c      ****             fnSend(101, &distAvL ,&distAvR);
  72:HCSR04.c      ****             
  73:HCSR04.c      ****             
  74:HCSR04.c      ****     }
ARM GAS  C:\Users\JamesH\AppData\Local\Temp\cccgTYo2.s 			page 4


  75:HCSR04.c      ****     else HCSR04_Begin();
  76:HCSR04.c      **** }
  77:HCSR04.c      **** 
  78:HCSR04.c      **** void distMeasureL(){
  98              		.loc 1 78 0
  99              		.cfi_startproc
 100              		@ args = 0, pretend = 0, frame = 0
 101              		@ frame_needed = 0, uses_anonymous_args = 0
 102 0000 08B5     		push	{r3, lr}
 103              		.cfi_def_cfa_offset 8
 104              		.cfi_offset 3, -8
 105              		.cfi_offset 14, -4
  79:HCSR04.c      ****     US_L_Write(1); //write the trigger pin high for greater than 10microseconds
 106              		.loc 1 79 0
 107 0002 0120     		movs	r0, #1
 108 0004 FFF7FEFF 		bl	US_L_Write
 109              	.LVL12:
  80:HCSR04.c      ****     CyDelayUs(15);
 110              		.loc 1 80 0
 111 0008 0F20     		movs	r0, #15
 112 000a FFF7FEFF 		bl	CyDelayUs
 113              	.LVL13:
  81:HCSR04.c      ****     US_L_Write(0);
 114              		.loc 1 81 0
 115 000e 0020     		movs	r0, #0
 116 0010 FFF7FEFF 		bl	US_L_Write
 117              	.LVL14:
 118 0014 08BD     		pop	{r3, pc}
 119              		.cfi_endproc
 120              	.LFE66:
 121              		.size	distMeasureL, .-distMeasureL
 122              		.global	__aeabi_ui2d
 123              		.global	__aeabi_ddiv
 124              		.global	__aeabi_d2f
 125              		.global	__aeabi_fmul
 126              		.global	__aeabi_fadd
 127              		.global	__aeabi_fdiv
 128 0016 00BF     		.section	.text.CaptureL,"ax",%progbits
 129              		.align	2
 130              		.global	CaptureL
 131              		.thumb
 132              		.thumb_func
 133              		.type	CaptureL, %function
 134              	CaptureL:
 135              	.LFB69:
  82:HCSR04.c      **** }
  83:HCSR04.c      **** 
  84:HCSR04.c      **** void distMeasureR(){
  85:HCSR04.c      ****     US_R_Write(1); //write the trigger pin high for greater than 10microseconds
  86:HCSR04.c      ****     CyDelayUs(15);
  87:HCSR04.c      ****     US_R_Write(0);   
  88:HCSR04.c      **** }
  89:HCSR04.c      ****      
  90:HCSR04.c      **** CY_ISR(CaptureR) //ISR3
  91:HCSR04.c      **** {
  92:HCSR04.c      ****     uint32 clicks = Timer_R_ReadPeriod() - Timer_R_ReadCapture();
  93:HCSR04.c      ****     float pulseLength = clicks / (24E6);            // Frequency  
ARM GAS  C:\Users\JamesH\AppData\Local\Temp\cccgTYo2.s 			page 5


  94:HCSR04.c      ****     distR[mCounterR] =  spSound * pulseLength / 2;  // distance to an object = ((speed of sound in 
  95:HCSR04.c      ****     mCounterR++;
  96:HCSR04.c      ****     
  97:HCSR04.c      ****     if (mCounterR == 3) {                           
  98:HCSR04.c      ****         distAvR = (distR[0] + distR[1] + distR[2]) / AV_Ln;
  99:HCSR04.c      ****         mCounterR = 0;
 100:HCSR04.c      ****     }
 101:HCSR04.c      ****     else distMeasureR();                           // Want to take the average of three measurement
 102:HCSR04.c      ****     compRFlag = 1;  
 103:HCSR04.c      **** }
 104:HCSR04.c      **** 
 105:HCSR04.c      **** 
 106:HCSR04.c      **** CY_ISR(CaptureL) //ISR3
 107:HCSR04.c      **** {
 136              		.loc 1 107 0
 137              		.cfi_startproc
 138              		@ args = 0, pretend = 0, frame = 0
 139              		@ frame_needed = 0, uses_anonymous_args = 0
 140 0000 38B5     		push	{r3, r4, r5, lr}
 141              		.cfi_def_cfa_offset 16
 142              		.cfi_offset 3, -16
 143              		.cfi_offset 4, -12
 144              		.cfi_offset 5, -8
 145              		.cfi_offset 14, -4
 108:HCSR04.c      ****     uint32 clicks = Timer_L_ReadPeriod() - Timer_L_ReadCapture();
 146              		.loc 1 108 0
 147 0002 FFF7FEFF 		bl	Timer_L_ReadPeriod
 148              	.LVL15:
 149 0006 0446     		mov	r4, r0
 150 0008 FFF7FEFF 		bl	Timer_L_ReadCapture
 151              	.LVL16:
 109:HCSR04.c      ****     float pulseLength = clicks / (24E6);
 152              		.loc 1 109 0
 153 000c 201A     		subs	r0, r4, r0
 154              	.LVL17:
 155 000e FFF7FEFF 		bl	__aeabi_ui2d
 156              	.LVL18:
 157 0012 19A3     		adr	r3, .L11
 158 0014 D3E90023 		ldrd	r2, [r3]
 159 0018 FFF7FEFF 		bl	__aeabi_ddiv
 160              	.LVL19:
 161 001c FFF7FEFF 		bl	__aeabi_d2f
 162              	.LVL20:
 110:HCSR04.c      ****     distL[mCounterL] =  spSound * pulseLength / 2;//distance to an object = ((speed of sound in the
 163              		.loc 1 110 0
 164 0020 174D     		ldr	r5, .L11+8
 165 0022 6C68     		ldr	r4, [r5, #4]
 166 0024 174B     		ldr	r3, .L11+12
 167 0026 1968     		ldr	r1, [r3]	@ float
 168 0028 FFF7FEFF 		bl	__aeabi_fmul
 169              	.LVL21:
 170 002c 4FF07C51 		mov	r1, #1056964608
 171 0030 FFF7FEFF 		bl	__aeabi_fmul
 172              	.LVL22:
 173 0034 05EB8403 		add	r3, r5, r4, lsl #2
 174 0038 9860     		str	r0, [r3, #8]	@ float
 111:HCSR04.c      ****     mCounterL++;
ARM GAS  C:\Users\JamesH\AppData\Local\Temp\cccgTYo2.s 			page 6


 175              		.loc 1 111 0
 176 003a 0134     		adds	r4, r4, #1
 177 003c 6C60     		str	r4, [r5, #4]
 112:HCSR04.c      ****     
 113:HCSR04.c      ****     if (mCounterL == 3) {
 178              		.loc 1 113 0
 179 003e 032C     		cmp	r4, #3
 180 0040 12D1     		bne	.L8
 114:HCSR04.c      ****         distAvL = (distL[0] + distL[1] + distL[2]) / AV_Ln;
 181              		.loc 1 114 0
 182 0042 E968     		ldr	r1, [r5, #12]	@ float
 183 0044 A868     		ldr	r0, [r5, #8]	@ float
 184 0046 FFF7FEFF 		bl	__aeabi_fadd
 185              	.LVL23:
 186 004a 2969     		ldr	r1, [r5, #16]	@ float
 187 004c FFF7FEFF 		bl	__aeabi_fadd
 188              	.LVL24:
 189 0050 0D49     		ldr	r1, .L11+16
 190 0052 FFF7FEFF 		bl	__aeabi_fdiv
 191              	.LVL25:
 192 0056 E861     		str	r0, [r5, #28]	@ float
 115:HCSR04.c      ****         US_L = distAvL;
 193              		.loc 1 115 0
 194 0058 0C4B     		ldr	r3, .L11+20
 195 005a 1860     		str	r0, [r3]	@ float
 116:HCSR04.c      ****         US_R = distAvR;
 196              		.loc 1 116 0
 197 005c 2A6A     		ldr	r2, [r5, #32]	@ float
 198 005e 0C4B     		ldr	r3, .L11+24
 199 0060 1A60     		str	r2, [r3]	@ float
 117:HCSR04.c      ****         mCounterL = 0;
 200              		.loc 1 117 0
 201 0062 0023     		movs	r3, #0
 202 0064 6B60     		str	r3, [r5, #4]
 203 0066 01E0     		b	.L9
 204              	.L8:
 118:HCSR04.c      ****     }
 119:HCSR04.c      ****     else distMeasureL();
 205              		.loc 1 119 0
 206 0068 FFF7FEFF 		bl	distMeasureL
 207              	.LVL26:
 208              	.L9:
 120:HCSR04.c      ****     compLFlag = 1;
 209              		.loc 1 120 0
 210 006c 0122     		movs	r2, #1
 211 006e 044B     		ldr	r3, .L11+8
 212 0070 5A62     		str	r2, [r3, #36]
 213 0072 38BD     		pop	{r3, r4, r5, pc}
 214              	.L12:
 215 0074 AFF30080 		.align	3
 216              	.L11:
 217 0078 00000000 		.word	0
 218 007c 60E37641 		.word	1098310496
 219 0080 00000000 		.word	.LANCHOR0
 220 0084 00000000 		.word	.LANCHOR1
 221 0088 0000A040 		.word	1084227584
 222 008c 00000000 		.word	US_L
ARM GAS  C:\Users\JamesH\AppData\Local\Temp\cccgTYo2.s 			page 7


 223 0090 00000000 		.word	US_R
 224              		.cfi_endproc
 225              	.LFE69:
 226              		.size	CaptureL, .-CaptureL
 227              		.section	.text.distMeasureR,"ax",%progbits
 228              		.align	2
 229              		.global	distMeasureR
 230              		.thumb
 231              		.thumb_func
 232              		.type	distMeasureR, %function
 233              	distMeasureR:
 234              	.LFB67:
  84:HCSR04.c      ****     US_R_Write(1); //write the trigger pin high for greater than 10microseconds
 235              		.loc 1 84 0
 236              		.cfi_startproc
 237              		@ args = 0, pretend = 0, frame = 0
 238              		@ frame_needed = 0, uses_anonymous_args = 0
 239 0000 08B5     		push	{r3, lr}
 240              		.cfi_def_cfa_offset 8
 241              		.cfi_offset 3, -8
 242              		.cfi_offset 14, -4
  85:HCSR04.c      ****     CyDelayUs(15);
 243              		.loc 1 85 0
 244 0002 0120     		movs	r0, #1
 245 0004 FFF7FEFF 		bl	US_R_Write
 246              	.LVL27:
  86:HCSR04.c      ****     US_R_Write(0);   
 247              		.loc 1 86 0
 248 0008 0F20     		movs	r0, #15
 249 000a FFF7FEFF 		bl	CyDelayUs
 250              	.LVL28:
  87:HCSR04.c      **** }
 251              		.loc 1 87 0
 252 000e 0020     		movs	r0, #0
 253 0010 FFF7FEFF 		bl	US_R_Write
 254              	.LVL29:
 255 0014 08BD     		pop	{r3, pc}
 256              		.cfi_endproc
 257              	.LFE67:
 258              		.size	distMeasureR, .-distMeasureR
 259 0016 00BF     		.section	.text.CaptureR,"ax",%progbits
 260              		.align	2
 261              		.global	CaptureR
 262              		.thumb
 263              		.thumb_func
 264              		.type	CaptureR, %function
 265              	CaptureR:
 266              	.LFB68:
  91:HCSR04.c      ****     uint32 clicks = Timer_R_ReadPeriod() - Timer_R_ReadCapture();
 267              		.loc 1 91 0
 268              		.cfi_startproc
 269              		@ args = 0, pretend = 0, frame = 0
 270              		@ frame_needed = 0, uses_anonymous_args = 0
 271 0000 38B5     		push	{r3, r4, r5, lr}
 272              		.cfi_def_cfa_offset 16
 273              		.cfi_offset 3, -16
 274              		.cfi_offset 4, -12
ARM GAS  C:\Users\JamesH\AppData\Local\Temp\cccgTYo2.s 			page 8


 275              		.cfi_offset 5, -8
 276              		.cfi_offset 14, -4
  92:HCSR04.c      ****     float pulseLength = clicks / (24E6);            // Frequency  
 277              		.loc 1 92 0
 278 0002 FFF7FEFF 		bl	Timer_R_ReadPeriod
 279              	.LVL30:
 280 0006 0446     		mov	r4, r0
 281 0008 FFF7FEFF 		bl	Timer_R_ReadCapture
 282              	.LVL31:
  93:HCSR04.c      ****     distR[mCounterR] =  spSound * pulseLength / 2;  // distance to an object = ((speed of sound in 
 283              		.loc 1 93 0
 284 000c 201A     		subs	r0, r4, r0
 285              	.LVL32:
 286 000e FFF7FEFF 		bl	__aeabi_ui2d
 287              	.LVL33:
 288 0012 17A3     		adr	r3, .L19
 289 0014 D3E90023 		ldrd	r2, [r3]
 290 0018 FFF7FEFF 		bl	__aeabi_ddiv
 291              	.LVL34:
 292 001c FFF7FEFF 		bl	__aeabi_d2f
 293              	.LVL35:
  94:HCSR04.c      ****     mCounterR++;
 294              		.loc 1 94 0
 295 0020 154D     		ldr	r5, .L19+8
 296 0022 AC6A     		ldr	r4, [r5, #40]
 297 0024 154B     		ldr	r3, .L19+12
 298 0026 1968     		ldr	r1, [r3]	@ float
 299 0028 FFF7FEFF 		bl	__aeabi_fmul
 300              	.LVL36:
 301 002c 4FF07C51 		mov	r1, #1056964608
 302 0030 FFF7FEFF 		bl	__aeabi_fmul
 303              	.LVL37:
 304 0034 05EB8403 		add	r3, r5, r4, lsl #2
 305 0038 D862     		str	r0, [r3, #44]	@ float
  95:HCSR04.c      ****     
 306              		.loc 1 95 0
 307 003a 0134     		adds	r4, r4, #1
 308 003c AC62     		str	r4, [r5, #40]
  97:HCSR04.c      ****         distAvR = (distR[0] + distR[1] + distR[2]) / AV_Ln;
 309              		.loc 1 97 0
 310 003e 032C     		cmp	r4, #3
 311 0040 0DD1     		bne	.L16
  98:HCSR04.c      ****         mCounterR = 0;
 312              		.loc 1 98 0
 313 0042 296B     		ldr	r1, [r5, #48]	@ float
 314 0044 E86A     		ldr	r0, [r5, #44]	@ float
 315 0046 FFF7FEFF 		bl	__aeabi_fadd
 316              	.LVL38:
 317 004a 696B     		ldr	r1, [r5, #52]	@ float
 318 004c FFF7FEFF 		bl	__aeabi_fadd
 319              	.LVL39:
 320 0050 0B49     		ldr	r1, .L19+16
 321 0052 FFF7FEFF 		bl	__aeabi_fdiv
 322              	.LVL40:
 323 0056 2862     		str	r0, [r5, #32]	@ float
  99:HCSR04.c      ****     }
 324              		.loc 1 99 0
ARM GAS  C:\Users\JamesH\AppData\Local\Temp\cccgTYo2.s 			page 9


 325 0058 0023     		movs	r3, #0
 326 005a AB62     		str	r3, [r5, #40]
 327 005c 01E0     		b	.L17
 328              	.L16:
 101:HCSR04.c      ****     compRFlag = 1;  
 329              		.loc 1 101 0
 330 005e FFF7FEFF 		bl	distMeasureR
 331              	.LVL41:
 332              	.L17:
 102:HCSR04.c      **** }
 333              		.loc 1 102 0
 334 0062 0122     		movs	r2, #1
 335 0064 044B     		ldr	r3, .L19+8
 336 0066 1A64     		str	r2, [r3, #64]
 337 0068 38BD     		pop	{r3, r4, r5, pc}
 338              	.L20:
 339 006a 00BFAFF3 		.align	3
 339      0080
 340              	.L19:
 341 0070 00000000 		.word	0
 342 0074 60E37641 		.word	1098310496
 343 0078 00000000 		.word	.LANCHOR0
 344 007c 00000000 		.word	.LANCHOR1
 345 0080 0000A040 		.word	1084227584
 346              		.cfi_endproc
 347              	.LFE68:
 348              		.size	CaptureR, .-CaptureR
 349              		.section	.text.MotorStop,"ax",%progbits
 350              		.align	2
 351              		.global	MotorStop
 352              		.thumb
 353              		.thumb_func
 354              		.type	MotorStop, %function
 355              	MotorStop:
 356              	.LFB71:
 121:HCSR04.c      **** }
 122:HCSR04.c      **** 
 123:HCSR04.c      **** CY_ISR(Trigger)
 124:HCSR04.c      **** {
 125:HCSR04.c      ****     distMeasure();
 126:HCSR04.c      **** }
 127:HCSR04.c      **** 
 128:HCSR04.c      **** void MotorStop()
 129:HCSR04.c      **** {
 357              		.loc 1 129 0
 358              		.cfi_startproc
 359              		@ args = 0, pretend = 0, frame = 0
 360              		@ frame_needed = 0, uses_anonymous_args = 0
 361 0000 08B5     		push	{r3, lr}
 362              		.cfi_def_cfa_offset 8
 363              		.cfi_offset 3, -8
 364              		.cfi_offset 14, -4
 130:HCSR04.c      ****     uint8 j;
 131:HCSR04.c      ****     UART_PutString("\n\n\nLOCKOUT TRIGGERED\n\n\n"); 
 365              		.loc 1 131 0
 366 0002 0248     		ldr	r0, .L23
 367 0004 FFF7FEFF 		bl	UART_PutString
ARM GAS  C:\Users\JamesH\AppData\Local\Temp\cccgTYo2.s 			page 10


 368              	.LVL42:
 369 0008 08BD     		pop	{r3, pc}
 370              	.L24:
 371 000a 00BF     		.align	2
 372              	.L23:
 373 000c 00000000 		.word	.LC0
 374              		.cfi_endproc
 375              	.LFE71:
 376              		.size	MotorStop, .-MotorStop
 377              		.global	__aeabi_f2d
 378              		.global	__aeabi_dcmplt
 379              		.global	__aeabi_fcmplt
 380              		.section	.text.distMeasure,"ax",%progbits
 381              		.align	2
 382              		.global	distMeasure
 383              		.thumb
 384              		.thumb_func
 385              		.type	distMeasure, %function
 386              	distMeasure:
 387              	.LFB65:
  50:HCSR04.c      ****     if (initFlag){
 388              		.loc 1 50 0
 389              		.cfi_startproc
 390              		@ args = 0, pretend = 0, frame = 0
 391              		@ frame_needed = 0, uses_anonymous_args = 0
 392 0000 38B5     		push	{r3, r4, r5, lr}
 393              		.cfi_def_cfa_offset 16
 394              		.cfi_offset 3, -16
 395              		.cfi_offset 4, -12
 396              		.cfi_offset 5, -8
 397              		.cfi_offset 14, -4
  51:HCSR04.c      ****         compLFlag = 0; compRFlag = 0;
 398              		.loc 1 51 0
 399 0002 374B     		ldr	r3, .L37+8
 400 0004 1B68     		ldr	r3, [r3]
 401 0006 002B     		cmp	r3, #0
 402 0008 63D0     		beq	.L26
 403              	.LBB2:
  52:HCSR04.c      ****         distMeasureL();
 404              		.loc 1 52 0
 405 000a 354B     		ldr	r3, .L37+8
 406 000c 0024     		movs	r4, #0
 407 000e 5C62     		str	r4, [r3, #36]
 408 0010 1C64     		str	r4, [r3, #64]
  53:HCSR04.c      ****         distMeasureR();
 409              		.loc 1 53 0
 410 0012 FFF7FEFF 		bl	distMeasureL
 411              	.LVL43:
  54:HCSR04.c      ****         //CyDelay(5);            // TO-DO: Replace this with something more efficient
 412              		.loc 1 54 0
 413 0016 FFF7FEFF 		bl	distMeasureR
 414              	.LVL44:
 415              	.L27:
  58:HCSR04.c      ****             i++;
 416              		.loc 1 58 0 discriminator 1
 417 001a 0A20     		movs	r0, #10
 418 001c FFF7FEFF 		bl	CyDelayUs
ARM GAS  C:\Users\JamesH\AppData\Local\Temp\cccgTYo2.s 			page 11


 419              	.LVL45:
  59:HCSR04.c      ****         } while((i < 500) & (compLFlag == 0 & compRFlag == 0));
 420              		.loc 1 59 0 discriminator 1
 421 0020 0134     		adds	r4, r4, #1
 422              	.LVL46:
  60:HCSR04.c      ****         
 423              		.loc 1 60 0 discriminator 1
 424 0022 2F4A     		ldr	r2, .L37+8
 425 0024 536A     		ldr	r3, [r2, #36]
 426 0026 126C     		ldr	r2, [r2, #64]
 427 0028 002B     		cmp	r3, #0
 428 002a 08BF     		it	eq
 429 002c 002A     		cmpeq	r2, #0
 430 002e 0CBF     		ite	eq
 431 0030 0123     		moveq	r3, #1
 432 0032 0023     		movne	r3, #0
 433 0034 B4F5FA7F 		cmp	r4, #500
 434 0038 01DA     		bge	.L35
 435 003a 002B     		cmp	r3, #0
 436 003c EDD1     		bne	.L27
 437              	.L35:
  62:HCSR04.c      ****             lockoutCount++;
 438              		.loc 1 62 0
 439 003e 284B     		ldr	r3, .L37+8
 440 0040 D869     		ldr	r0, [r3, #28]	@ float
 441 0042 FFF7FEFF 		bl	__aeabi_f2d
 442              	.LVL47:
 443 0046 4FF00105 		mov	r5, #1
 444 004a 23A3     		adr	r3, .L37
 445 004c D3E90023 		ldrd	r2, [r3]
 446 0050 FFF7FEFF 		bl	__aeabi_dcmplt
 447              	.LVL48:
 448 0054 08B9     		cbnz	r0, .L29
 449 0056 4FF00005 		mov	r5, #0
 450              	.L29:
 451 005a 214B     		ldr	r3, .L37+8
 452 005c 186A     		ldr	r0, [r3, #32]	@ float
 453 005e FFF7FEFF 		bl	__aeabi_f2d
 454              	.LVL49:
 455 0062 4FF00104 		mov	r4, #1
 456              	.LVL50:
 457 0066 1CA3     		adr	r3, .L37
 458 0068 D3E90023 		ldrd	r2, [r3]
 459 006c FFF7FEFF 		bl	__aeabi_dcmplt
 460              	.LVL51:
 461 0070 08B9     		cbnz	r0, .L30
 462 0072 4FF00004 		mov	r4, #0
 463              	.L30:
 464 0076 2C43     		orrs	r4, r4, r5
 465 0078 14F0FF0F 		tst	r4, #255
 466 007c 07D0     		beq	.L31
  63:HCSR04.c      ****             if (lockoutCount == 3) {
 467              		.loc 1 63 0
 468 007e 184A     		ldr	r2, .L37+8
 469 0080 536C     		ldr	r3, [r2, #68]
 470 0082 0133     		adds	r3, r3, #1
 471 0084 5364     		str	r3, [r2, #68]
ARM GAS  C:\Users\JamesH\AppData\Local\Temp\cccgTYo2.s 			page 12


  64:HCSR04.c      ****                 MotorStop();
 472              		.loc 1 64 0
 473 0086 032B     		cmp	r3, #3
 474 0088 01D1     		bne	.L31
  65:HCSR04.c      ****             }
 475              		.loc 1 65 0
 476 008a FFF7FEFF 		bl	MotorStop
 477              	.LVL52:
 478              	.L31:
  70:HCSR04.c      ****             fnSend(101, &distAvL ,&distAvR);
 479              		.loc 1 70 0
 480 008e 4FF00105 		mov	r5, #1
 481 0092 4FF07C51 		mov	r1, #1056964608
 482 0096 124B     		ldr	r3, .L37+8
 483 0098 D869     		ldr	r0, [r3, #28]	@ float
 484 009a FFF7FEFF 		bl	__aeabi_fcmplt
 485              	.LVL53:
 486 009e 08B9     		cbnz	r0, .L32
 487 00a0 4FF00005 		mov	r5, #0
 488              	.L32:
 489 00a4 4FF00104 		mov	r4, #1
 490 00a8 4FF07C51 		mov	r1, #1056964608
 491 00ac 0C4B     		ldr	r3, .L37+8
 492 00ae 186A     		ldr	r0, [r3, #32]	@ float
 493 00b0 FFF7FEFF 		bl	__aeabi_fcmplt
 494              	.LVL54:
 495 00b4 08B9     		cbnz	r0, .L33
 496 00b6 4FF00004 		mov	r4, #0
 497              	.L33:
 498 00ba 2C43     		orrs	r4, r4, r5
 499 00bc 14F0FF0F 		tst	r4, #255
 500 00c0 09D0     		beq	.L25
 501              	.LBB3:
  71:HCSR04.c      ****             
 502              		.loc 1 71 0
 503 00c2 0749     		ldr	r1, .L37+8
 504 00c4 01F12002 		add	r2, r1, #32
 505 00c8 1C31     		adds	r1, r1, #28
 506 00ca 6520     		movs	r0, #101
 507 00cc FFF7FEFF 		bl	fnSend
 508              	.LVL55:
 509 00d0 38BD     		pop	{r3, r4, r5, pc}
 510              	.L26:
 511              	.LBE3:
 512              	.LBE2:
  75:HCSR04.c      **** }
 513              		.loc 1 75 0
 514 00d2 FFF7FEFF 		bl	HCSR04_Begin
 515              	.LVL56:
 516              	.L25:
 517 00d6 38BD     		pop	{r3, r4, r5, pc}
 518              	.L38:
 519              		.align	3
 520              	.L37:
 521 00d8 7B14AE47 		.word	1202590843
 522 00dc E17AA43F 		.word	1067743969
 523 00e0 00000000 		.word	.LANCHOR0
ARM GAS  C:\Users\JamesH\AppData\Local\Temp\cccgTYo2.s 			page 13


 524              		.cfi_endproc
 525              	.LFE65:
 526              		.size	distMeasure, .-distMeasure
 527              		.section	.text.Trigger,"ax",%progbits
 528              		.align	2
 529              		.global	Trigger
 530              		.thumb
 531              		.thumb_func
 532              		.type	Trigger, %function
 533              	Trigger:
 534              	.LFB70:
 124:HCSR04.c      ****     distMeasure();
 535              		.loc 1 124 0
 536              		.cfi_startproc
 537              		@ args = 0, pretend = 0, frame = 0
 538              		@ frame_needed = 0, uses_anonymous_args = 0
 539 0000 08B5     		push	{r3, lr}
 540              		.cfi_def_cfa_offset 8
 541              		.cfi_offset 3, -8
 542              		.cfi_offset 14, -4
 125:HCSR04.c      **** }
 543              		.loc 1 125 0
 544 0002 FFF7FEFF 		bl	distMeasure
 545              	.LVL57:
 546 0006 08BD     		pop	{r3, pc}
 547              		.cfi_endproc
 548              	.LFE70:
 549              		.size	Trigger, .-Trigger
 550              		.global	lockoutCount
 551              		.global	distR
 552              		.global	distAvR
 553              		.global	distAvL
 554              		.global	distL
 555              		.global	compRFlag
 556              		.global	compLFlag
 557              		.global	initFlag
 558              		.global	mCounterL
 559              		.global	mCounterR
 560              		.global	spSound
 561              		.data
 562              		.align	2
 563              		.set	.LANCHOR1,. + 0
 564              		.type	spSound, %object
 565              		.size	spSound, 4
 566              	spSound:
 567 0000 00C0A543 		.word	1134936064
 568              		.section	.rodata.str1.4,"aMS",%progbits,1
 569              		.align	2
 570              	.LC0:
 571 0000 0A0A0A4C 		.ascii	"\012\012\012LOCKOUT TRIGGERED\012\012\012\000"
 571      4F434B4F 
 571      55542054 
 571      52494747 
 571      45524544 
 572              		.bss
 573              		.align	2
 574              		.set	.LANCHOR0,. + 0
ARM GAS  C:\Users\JamesH\AppData\Local\Temp\cccgTYo2.s 			page 14


 575              		.type	initFlag, %object
 576              		.size	initFlag, 4
 577              	initFlag:
 578 0000 00000000 		.space	4
 579              		.type	mCounterL, %object
 580              		.size	mCounterL, 4
 581              	mCounterL:
 582 0004 00000000 		.space	4
 583              		.type	distL, %object
 584              		.size	distL, 20
 585              	distL:
 586 0008 00000000 		.space	20
 586      00000000 
 586      00000000 
 586      00000000 
 586      00000000 
 587              		.type	distAvL, %object
 588              		.size	distAvL, 4
 589              	distAvL:
 590 001c 00000000 		.space	4
 591              		.type	distAvR, %object
 592              		.size	distAvR, 4
 593              	distAvR:
 594 0020 00000000 		.space	4
 595              		.type	compLFlag, %object
 596              		.size	compLFlag, 4
 597              	compLFlag:
 598 0024 00000000 		.space	4
 599              		.type	mCounterR, %object
 600              		.size	mCounterR, 4
 601              	mCounterR:
 602 0028 00000000 		.space	4
 603              		.type	distR, %object
 604              		.size	distR, 20
 605              	distR:
 606 002c 00000000 		.space	20
 606      00000000 
 606      00000000 
 606      00000000 
 606      00000000 
 607              		.type	compRFlag, %object
 608              		.size	compRFlag, 4
 609              	compRFlag:
 610 0040 00000000 		.space	4
 611              		.type	lockoutCount, %object
 612              		.size	lockoutCount, 4
 613              	lockoutCount:
 614 0044 00000000 		.space	4
 615              		.text
 616              	.Letext0:
 617              		.file 2 "c:\\program files (x86)\\cypress\\psoc creator\\4.4\\psoc creator\\import\\gnu\\arm\\5.4.
 618              		.file 3 "c:\\program files (x86)\\cypress\\psoc creator\\4.4\\psoc creator\\import\\gnu\\arm\\5.4.
 619              		.file 4 "Generated_Source\\PSoC5/cytypes.h"
 620              		.file 5 "Generated_Source\\PSoC5/core_cm3.h"
 621              		.file 6 "Generated_Source\\PSoC5/E_R.h"
 622              		.file 7 "Generated_Source\\PSoC5/E_L.h"
 623              		.file 8 "Generated_Source\\PSoC5/US_Trig.h"
ARM GAS  C:\Users\JamesH\AppData\Local\Temp\cccgTYo2.s 			page 15


 624              		.file 9 "Generated_Source\\PSoC5/Timer_R.h"
 625              		.file 10 "Generated_Source\\PSoC5/Timer_L.h"
 626              		.file 11 "Generated_Source\\PSoC5/US_Timer.h"
 627              		.file 12 "Generated_Source\\PSoC5/US_L.h"
 628              		.file 13 "Generated_Source\\PSoC5/CyLib.h"
 629              		.file 14 "Generated_Source\\PSoC5/US_R.h"
 630              		.file 15 "Generated_Source\\PSoC5/UART.h"