ARM GAS  C:\Users\JamesH\AppData\Local\Temp\cc4jWNBZ.s 			page 1


   1              		.syntax unified
   2              		.cpu cortex-m3
   3              		.fpu softvfp
   4              		.eabi_attribute 20, 1
   5              		.eabi_attribute 21, 1
   6              		.eabi_attribute 23, 3
   7              		.eabi_attribute 24, 1
   8              		.eabi_attribute 25, 1
   9              		.eabi_attribute 26, 1
  10              		.eabi_attribute 30, 1
  11              		.eabi_attribute 34, 1
  12              		.eabi_attribute 18, 4
  13              		.thumb
  14              		.syntax unified
  15              		.file	"IMU.c"
  16              		.text
  17              	.Ltext0:
  18              		.cfi_sections	.debug_frame
  19              		.section	.text.LIS3MDL_Begin,"ax",%progbits
  20              		.align	2
  21              		.global	LIS3MDL_Begin
  22              		.thumb
  23              		.thumb_func
  24              		.type	LIS3MDL_Begin, %function
  25              	LIS3MDL_Begin:
  26              	.LFB64:
  27              		.file 1 "IMU.c"
   1:IMU.c         **** /* ========================================
   2:IMU.c         ****  *
   3:IMU.c         ****  * Copyright YOUR COMPANY, THE YEAR
   4:IMU.c         ****  * All Rights Reserved
   5:IMU.c         ****  * UNPUBLISHED, LICENSED SOFTWARE.
   6:IMU.c         ****  *
   7:IMU.c         ****  * CONFIDENTIAL AND PROPRIETARY INFORMATION
   8:IMU.c         ****  * WHICH IS THE PROPERTY OF your company.
   9:IMU.c         ****  *
  10:IMU.c         ****  *  Information taken from the datasheet https://www.st.com/en/mems-and-sensors/lis3mdl.html  
  11:IMU.c         ****  * ========================================
  12:IMU.c         **** */
  13:IMU.c         **** 
  14:IMU.c         **** #include "IMU.h"
  15:IMU.c         **** #include "stdio.h"
  16:IMU.c         **** #include <stdlib.h>
  17:IMU.c         **** #include "project.h"
  18:IMU.c         **** #include <math.h>
  19:IMU.c         **** 
  20:IMU.c         **** 
  21:IMU.c         **** ////// Magnetometer /////
  22:IMU.c         **** void LIS3MDL_Begin() {
  28              		.loc 1 22 0
  29              		.cfi_startproc
  30              		@ args = 0, pretend = 0, frame = 0
  31              		@ frame_needed = 0, uses_anonymous_args = 0
  32 0000 08B5     		push	{r3, lr}
  33              		.cfi_def_cfa_offset 8
  34              		.cfi_offset 3, -8
  35              		.cfi_offset 14, -4
ARM GAS  C:\Users\JamesH\AppData\Local\Temp\cc4jWNBZ.s 			page 2


  23:IMU.c         ****     I2C_1_Start(); //Enable I2C In PSOC
  36              		.loc 1 23 0
  37 0002 FFF7FEFF 		bl	I2C_1_Start
  38              	.LVL0:
  24:IMU.c         ****     
  25:IMU.c         ****     // Enable Data conversion in magnetometer by setting Control register 3 to continuous conversio
  26:IMU.c         ****     I2C_1_I2CMasterSendStart(LIS3MDL_I2CADD,I2C_1_WRITE_XFER_MODE,100);    // Initialize a transact
  39              		.loc 1 26 0
  40 0006 6422     		movs	r2, #100
  41 0008 0021     		movs	r1, #0
  42 000a 1E20     		movs	r0, #30
  43 000c FFF7FEFF 		bl	I2C_1_I2CMasterSendStart
  44              	.LVL1:
  27:IMU.c         ****     I2C_1_I2CMasterWriteByte(LIS3MDL_REG_CTRL_REG3,100);                       // Indicate which re
  45              		.loc 1 27 0
  46 0010 6421     		movs	r1, #100
  47 0012 2220     		movs	r0, #34
  48 0014 FFF7FEFF 		bl	I2C_1_I2CMasterWriteByte
  49              	.LVL2:
  28:IMU.c         ****     I2C_1_I2CMasterWriteByte(0x00,100);                                        // Write to register
  50              		.loc 1 28 0
  51 0018 6421     		movs	r1, #100
  52 001a 0020     		movs	r0, #0
  53 001c FFF7FEFF 		bl	I2C_1_I2CMasterWriteByte
  54              	.LVL3:
  29:IMU.c         ****     I2C_1_I2CMasterSendStop(100);                    // End of transaction */
  55              		.loc 1 29 0
  56 0020 6420     		movs	r0, #100
  57 0022 FFF7FEFF 		bl	I2C_1_I2CMasterSendStop
  58              	.LVL4:
  59 0026 08BD     		pop	{r3, pc}
  60              		.cfi_endproc
  61              	.LFE64:
  62              		.size	LIS3MDL_Begin, .-LIS3MDL_Begin
  63              		.section	.text.LIS3MDL_MasterStatus,"ax",%progbits
  64              		.align	2
  65              		.global	LIS3MDL_MasterStatus
  66              		.thumb
  67              		.thumb_func
  68              		.type	LIS3MDL_MasterStatus, %function
  69              	LIS3MDL_MasterStatus:
  70              	.LFB65:
  30:IMU.c         **** }
  31:IMU.c         **** 
  32:IMU.c         **** void LIS3MDL_MasterStatus() {
  71              		.loc 1 32 0
  72              		.cfi_startproc
  73              		@ args = 0, pretend = 0, frame = 0
  74              		@ frame_needed = 0, uses_anonymous_args = 0
  75 0000 08B5     		push	{r3, lr}
  76              		.cfi_def_cfa_offset 8
  77              		.cfi_offset 3, -8
  78              		.cfi_offset 14, -4
  33:IMU.c         ****     I2C_1_I2CMasterStatus();
  79              		.loc 1 33 0
  80 0002 FFF7FEFF 		bl	I2C_1_I2CMasterStatus
  81              	.LVL5:
ARM GAS  C:\Users\JamesH\AppData\Local\Temp\cc4jWNBZ.s 			page 3


  82 0006 08BD     		pop	{r3, pc}
  83              		.cfi_endproc
  84              	.LFE65:
  85              		.size	LIS3MDL_MasterStatus, .-LIS3MDL_MasterStatus
  86              		.section	.text.LIS3MDL_TransferByte,"ax",%progbits
  87              		.align	2
  88              		.global	LIS3MDL_TransferByte
  89              		.thumb
  90              		.thumb_func
  91              		.type	LIS3MDL_TransferByte, %function
  92              	LIS3MDL_TransferByte:
  93              	.LFB66:
  34:IMU.c         **** }
  35:IMU.c         **** 
  36:IMU.c         **** void LIS3MDL_TransferByte() {
  94              		.loc 1 36 0
  95              		.cfi_startproc
  96              		@ args = 0, pretend = 0, frame = 0
  97              		@ frame_needed = 0, uses_anonymous_args = 0
  98              		@ link register save eliminated.
  99 0000 7047     		bx	lr
 100              		.cfi_endproc
 101              	.LFE66:
 102              		.size	LIS3MDL_TransferByte, .-LIS3MDL_TransferByte
 103 0002 00BF     		.section	.text.LIS3MDL_TransferMultipleBytes,"ax",%progbits
 104              		.align	2
 105              		.global	LIS3MDL_TransferMultipleBytes
 106              		.thumb
 107              		.thumb_func
 108              		.type	LIS3MDL_TransferMultipleBytes, %function
 109              	LIS3MDL_TransferMultipleBytes:
 110              	.LFB67:
  37:IMU.c         ****     /* (M)ST | (M)SAD + W | (S)SAK | (M)SUB | (S)SAK | (M)DATA | (S)SAK | (M)SP */
  38:IMU.c         **** } 
  39:IMU.c         **** 
  40:IMU.c         **** void LIS3MDL_TransferMultipleBytes() {
 111              		.loc 1 40 0
 112              		.cfi_startproc
 113              		@ args = 0, pretend = 0, frame = 0
 114              		@ frame_needed = 0, uses_anonymous_args = 0
 115              		@ link register save eliminated.
 116 0000 7047     		bx	lr
 117              		.cfi_endproc
 118              	.LFE67:
 119              		.size	LIS3MDL_TransferMultipleBytes, .-LIS3MDL_TransferMultipleBytes
 120 0002 00BF     		.section	.text.LIS3MDL_ReadWhoAmIReg,"ax",%progbits
 121              		.align	2
 122              		.global	LIS3MDL_ReadWhoAmIReg
 123              		.thumb
 124              		.thumb_func
 125              		.type	LIS3MDL_ReadWhoAmIReg, %function
 126              	LIS3MDL_ReadWhoAmIReg:
 127              	.LFB68:
  41:IMU.c         ****     /* (M)ST | (M)SAD + W | (S)SAK | (M)SUB | (S)SAK | DATA | (S)SAK | (M)DATA | (S)SAK |(M)SP */
  42:IMU.c         ****     
  43:IMU.c         **** }
  44:IMU.c         **** 
ARM GAS  C:\Users\JamesH\AppData\Local\Temp\cc4jWNBZ.s 			page 4


  45:IMU.c         **** void LIS3MDL_ReadWhoAmIReg(uint8 * rdPtr) {
 128              		.loc 1 45 0
 129              		.cfi_startproc
 130              		@ args = 0, pretend = 0, frame = 0
 131              		@ frame_needed = 0, uses_anonymous_args = 0
 132              	.LVL6:
 133              		.loc 1 45 0
 134 0000 10B5     		push	{r4, lr}
 135              		.cfi_def_cfa_offset 8
 136              		.cfi_offset 4, -8
 137              		.cfi_offset 14, -4
 138 0002 0446     		mov	r4, r0
  46:IMU.c         ****     /* (M)ST | (M)SAD+W| (S)SAK | (M)SUB | (S)SAK | (M)SR | (M)SAD+R | (S)SAK | (S)DATA | (M)NMAK |
  47:IMU.c         ****     int32 Err1, Err2, Err3, Err4, Err5;
  48:IMU.c         ****     Err1 = I2C_1_I2CMasterSendStart(LIS3MDL_I2CADD, I2C_1_WRITE_XFER_MODE, 1000);     // (M)ST | (M
 139              		.loc 1 48 0
 140 0004 4FF47A72 		mov	r2, #1000
 141 0008 0021     		movs	r1, #0
 142 000a 1E20     		movs	r0, #30
 143              	.LVL7:
 144 000c FFF7FEFF 		bl	I2C_1_I2CMasterSendStart
 145              	.LVL8:
  49:IMU.c         ****     Err2 = I2C_1_I2CMasterWriteByte(LIS3MDL_REG_WHO_AM_I,1000);                           // (M) SU
 146              		.loc 1 49 0
 147 0010 4FF47A71 		mov	r1, #1000
 148 0014 0F20     		movs	r0, #15
 149 0016 FFF7FEFF 		bl	I2C_1_I2CMasterWriteByte
 150              	.LVL9:
  50:IMU.c         ****     Err3 = I2C_1_I2CMasterSendRestart(LIS3MDL_I2CADD, I2C_1_READ_XFER_MODE, 1000);  // (M) SR | (M)
 151              		.loc 1 50 0
 152 001a 4FF47A72 		mov	r2, #1000
 153 001e 0121     		movs	r1, #1
 154 0020 1E20     		movs	r0, #30
 155 0022 FFF7FEFF 		bl	I2C_1_I2CMasterSendRestart
 156              	.LVL10:
  51:IMU.c         ****     Err4 = I2C_1_I2CMasterReadByte(I2C_1_NAK_DATA, rdPtr, 1000);                   // (S) DATA | (M
 157              		.loc 1 51 0
 158 0026 4FF47A72 		mov	r2, #1000
 159 002a 2146     		mov	r1, r4
 160 002c 0020     		movs	r0, #0
 161 002e FFF7FEFF 		bl	I2C_1_I2CMasterReadByte
 162              	.LVL11:
  52:IMU.c         ****     Err5 = I2C_1_I2CMasterSendStop(100);                                                 // (M) SP
 163              		.loc 1 52 0
 164 0032 6420     		movs	r0, #100
 165 0034 FFF7FEFF 		bl	I2C_1_I2CMasterSendStop
 166              	.LVL12:
 167 0038 10BD     		pop	{r4, pc}
 168              		.cfi_endproc
 169              	.LFE68:
 170              		.size	LIS3MDL_ReadWhoAmIReg, .-LIS3MDL_ReadWhoAmIReg
 171 003a 00BF     		.section	.text.LIS3MDL_ReadAxisRaw,"ax",%progbits
 172              		.align	2
 173              		.global	LIS3MDL_ReadAxisRaw
 174              		.thumb
 175              		.thumb_func
 176              		.type	LIS3MDL_ReadAxisRaw, %function
ARM GAS  C:\Users\JamesH\AppData\Local\Temp\cc4jWNBZ.s 			page 5


 177              	LIS3MDL_ReadAxisRaw:
 178              	.LFB69:
  53:IMU.c         ****     //char string[80]; sprintf(string, "\nErrors %ld %ld %ld %ld %ld ", Err1,Err2,Err3,Err4,Err5); 
  54:IMU.c         **** }
  55:IMU.c         **** 
  56:IMU.c         **** void LIS3MDL_ReadAxisRaw(uint8 * rdPtrL, uint8 * rdPtrH) {
 179              		.loc 1 56 0
 180              		.cfi_startproc
 181              		@ args = 0, pretend = 0, frame = 0
 182              		@ frame_needed = 0, uses_anonymous_args = 0
 183              	.LVL13:
 184 0000 38B5     		push	{r3, r4, r5, lr}
 185              		.cfi_def_cfa_offset 16
 186              		.cfi_offset 3, -16
 187              		.cfi_offset 4, -12
 188              		.cfi_offset 5, -8
 189              		.cfi_offset 14, -4
 190 0002 0546     		mov	r5, r0
 191 0004 0C46     		mov	r4, r1
  57:IMU.c         ****     /* (M)ST | (M)SAD+W| (S)SAK | (M)SUB | (S)SAK | (M)SR | (M)SAD+R | (S)SAK | (S)DATA | (M)MAK | 
  58:IMU.c         ****     int32 Err1, Err2, Err3, Err4, Err5, Err6;
  59:IMU.c         ****     Err1 = I2C_1_I2CMasterSendStart(LIS3MDL_I2CADD, I2C_1_WRITE_XFER_MODE, 1000);   // (M)ST | (M) 
 192              		.loc 1 59 0
 193 0006 4FF47A72 		mov	r2, #1000
 194 000a 0021     		movs	r1, #0
 195              	.LVL14:
 196 000c 1E20     		movs	r0, #30
 197              	.LVL15:
 198 000e FFF7FEFF 		bl	I2C_1_I2CMasterSendStart
 199              	.LVL16:
  60:IMU.c         ****     Err2 = I2C_1_I2CMasterWriteByte(LIS3MDL_REG_OUT_X_L,1000);                          // (M) SUB 
 200              		.loc 1 60 0
 201 0012 4FF47A71 		mov	r1, #1000
 202 0016 2820     		movs	r0, #40
 203 0018 FFF7FEFF 		bl	I2C_1_I2CMasterWriteByte
 204              	.LVL17:
  61:IMU.c         ****     Err3 = I2C_1_I2CMasterSendRestart(LIS3MDL_I2CADD, I2C_1_READ_XFER_MODE, 1000);  // (M) SR | (M)
 205              		.loc 1 61 0
 206 001c 4FF47A72 		mov	r2, #1000
 207 0020 0121     		movs	r1, #1
 208 0022 1E20     		movs	r0, #30
 209 0024 FFF7FEFF 		bl	I2C_1_I2CMasterSendRestart
 210              	.LVL18:
  62:IMU.c         ****     Err4 = I2C_1_I2CMasterReadByte(I2C_1_ACK_DATA, rdPtrL, 1000);                   // (S) DATA | (
 211              		.loc 1 62 0
 212 0028 4FF47A72 		mov	r2, #1000
 213 002c 2946     		mov	r1, r5
 214 002e 0120     		movs	r0, #1
 215 0030 FFF7FEFF 		bl	I2C_1_I2CMasterReadByte
 216              	.LVL19:
  63:IMU.c         ****     Err5 = I2C_1_I2CMasterReadByte(I2C_1_NAK_DATA, rdPtrH, 1000);                // (S) DATA | (M) 
 217              		.loc 1 63 0
 218 0034 4FF47A72 		mov	r2, #1000
 219 0038 2146     		mov	r1, r4
 220 003a 0020     		movs	r0, #0
 221 003c FFF7FEFF 		bl	I2C_1_I2CMasterReadByte
 222              	.LVL20:
ARM GAS  C:\Users\JamesH\AppData\Local\Temp\cc4jWNBZ.s 			page 6


  64:IMU.c         ****     Err6 = I2C_1_I2CMasterSendStop(100); 
 223              		.loc 1 64 0
 224 0040 6420     		movs	r0, #100
 225 0042 FFF7FEFF 		bl	I2C_1_I2CMasterSendStop
 226              	.LVL21:
 227 0046 38BD     		pop	{r3, r4, r5, pc}
 228              		.cfi_endproc
 229              	.LFE69:
 230              		.size	LIS3MDL_ReadAxisRaw, .-LIS3MDL_ReadAxisRaw
 231              		.section	.text.LIS3MDL_ReadAxisDeg,"ax",%progbits
 232              		.align	2
 233              		.global	LIS3MDL_ReadAxisDeg
 234              		.thumb
 235              		.thumb_func
 236              		.type	LIS3MDL_ReadAxisDeg, %function
 237              	LIS3MDL_ReadAxisDeg:
 238              	.LFB70:
  65:IMU.c         ****     // char string[80]; sprintf(string, "Errors %ld %ld %ld %ld %ld %ld\t", Err1,Err2,Err3,Err4,Err
  66:IMU.c         ****     
  67:IMU.c         **** }
  68:IMU.c         **** void LIS3MDL_ReadAxisDeg(uint16 * heading) {
 239              		.loc 1 68 0
 240              		.cfi_startproc
 241              		@ args = 0, pretend = 0, frame = 8
 242              		@ frame_needed = 0, uses_anonymous_args = 0
 243              	.LVL22:
 244 0000 10B5     		push	{r4, lr}
 245              		.cfi_def_cfa_offset 8
 246              		.cfi_offset 4, -8
 247              		.cfi_offset 14, -4
 248 0002 82B0     		sub	sp, sp, #8
 249              		.cfi_def_cfa_offset 16
 250 0004 0446     		mov	r4, r0
  69:IMU.c         ****     /* (M)ST | (M)SAD+W| (S)SAK | (M)SUB | (S)SAK | (M)SR | (M)SAD+R | (S)SAK | (S)DATA | (M)MAK | 
  70:IMU.c         ****     int32 Err1, Err2, Err3, Err4, Err5, Err6;
  71:IMU.c         ****     Err1 = I2C_1_I2CMasterSendStart(LIS3MDL_I2CADD, I2C_1_WRITE_XFER_MODE, 1000);   // (M)ST | (M) 
 251              		.loc 1 71 0
 252 0006 4FF47A72 		mov	r2, #1000
 253 000a 0021     		movs	r1, #0
 254 000c 1E20     		movs	r0, #30
 255              	.LVL23:
 256 000e FFF7FEFF 		bl	I2C_1_I2CMasterSendStart
 257              	.LVL24:
  72:IMU.c         ****     Err2 = I2C_1_I2CMasterWriteByte(LIS3MDL_REG_OUT_X_L,1000);                          // (M) SUB 
 258              		.loc 1 72 0
 259 0012 4FF47A71 		mov	r1, #1000
 260 0016 2820     		movs	r0, #40
 261 0018 FFF7FEFF 		bl	I2C_1_I2CMasterWriteByte
 262              	.LVL25:
  73:IMU.c         ****     Err3 = I2C_1_I2CMasterSendRestart(LIS3MDL_I2CADD, I2C_1_READ_XFER_MODE, 1000);  // (M) SR | (M)
 263              		.loc 1 73 0
 264 001c 4FF47A72 		mov	r2, #1000
 265 0020 0121     		movs	r1, #1
 266 0022 1E20     		movs	r0, #30
 267 0024 FFF7FEFF 		bl	I2C_1_I2CMasterSendRestart
 268              	.LVL26:
  74:IMU.c         ****     uint8 rdPtrL, rdPtrH;
ARM GAS  C:\Users\JamesH\AppData\Local\Temp\cc4jWNBZ.s 			page 7


  75:IMU.c         ****     Err4 = I2C_1_I2CMasterReadByte(I2C_1_ACK_DATA, &rdPtrL, 1000);                    // (S) DATA |
 269              		.loc 1 75 0
 270 0028 4FF47A72 		mov	r2, #1000
 271 002c 0DF10701 		add	r1, sp, #7
 272 0030 0120     		movs	r0, #1
 273 0032 FFF7FEFF 		bl	I2C_1_I2CMasterReadByte
 274              	.LVL27:
  76:IMU.c         ****     Err5 = I2C_1_I2CMasterReadByte(I2C_1_NAK_DATA, &rdPtrH, 1000);                    // (S) DATA |
 275              		.loc 1 76 0
 276 0036 4FF47A72 		mov	r2, #1000
 277 003a 0DF10601 		add	r1, sp, #6
 278 003e 0020     		movs	r0, #0
 279 0040 FFF7FEFF 		bl	I2C_1_I2CMasterReadByte
 280              	.LVL28:
  77:IMU.c         ****     Err6 = I2C_1_I2CMasterSendStop(100); 
 281              		.loc 1 77 0
 282 0044 6420     		movs	r0, #100
 283 0046 FFF7FEFF 		bl	I2C_1_I2CMasterSendStop
 284              	.LVL29:
  78:IMU.c         ****     // char string[80]; sprintf(string, "Errors %ld %ld %ld %ld %ld %ld\t", Err1,Err2,Err3,Err4,Err
  79:IMU.c         ****     
  80:IMU.c         ****     uint8 rdPtrHS = rdPtrH;
 285              		.loc 1 80 0
 286 004a 9DF80620 		ldrb	r2, [sp, #6]	@ zero_extendqisi2
 287              	.LVL30:
  81:IMU.c         ****     uint8 rdPtrLS = rdPtrL;
 288              		.loc 1 81 0
 289 004e 9DF80730 		ldrb	r3, [sp, #7]	@ zero_extendqisi2
 290              	.LVL31:
  82:IMU.c         ****     *heading = (uint16)rdPtrHS << 8 | rdPtrLS; 
 291              		.loc 1 82 0
 292 0052 43EA0223 		orr	r3, r3, r2, lsl #8
 293              	.LVL32:
 294 0056 2380     		strh	r3, [r4]	@ movhi
 295              	.LVL33:
  83:IMU.c         ****     // TO-DO: Calibration script for magnetometer
  84:IMU.c         **** }
 296              		.loc 1 84 0
 297 0058 02B0     		add	sp, sp, #8
 298              		.cfi_def_cfa_offset 8
 299              		@ sp needed
 300 005a 10BD     		pop	{r4, pc}
 301              		.cfi_endproc
 302              	.LFE70:
 303              		.size	LIS3MDL_ReadAxisDeg, .-LIS3MDL_ReadAxisDeg
 304              		.section	.text.LIS3MDL_ReadCtrlReg,"ax",%progbits
 305              		.align	2
 306              		.global	LIS3MDL_ReadCtrlReg
 307              		.thumb
 308              		.thumb_func
 309              		.type	LIS3MDL_ReadCtrlReg, %function
 310              	LIS3MDL_ReadCtrlReg:
 311              	.LFB71:
  85:IMU.c         **** 
  86:IMU.c         **** void LIS3MDL_ReadCtrlReg(uint8 * CtrlReg1,uint8 * CtrlReg2, uint8 * CtrlReg3, uint8 * CtrlReg4) {
 312              		.loc 1 86 0
 313              		.cfi_startproc
ARM GAS  C:\Users\JamesH\AppData\Local\Temp\cc4jWNBZ.s 			page 8


 314              		@ args = 0, pretend = 0, frame = 80
 315              		@ frame_needed = 0, uses_anonymous_args = 0
 316              	.LVL34:
 317 0000 2DE9F047 		push	{r4, r5, r6, r7, r8, r9, r10, lr}
 318              		.cfi_def_cfa_offset 32
 319              		.cfi_offset 4, -32
 320              		.cfi_offset 5, -28
 321              		.cfi_offset 6, -24
 322              		.cfi_offset 7, -20
 323              		.cfi_offset 8, -16
 324              		.cfi_offset 9, -12
 325              		.cfi_offset 10, -8
 326              		.cfi_offset 14, -4
 327 0004 98B0     		sub	sp, sp, #96
 328              		.cfi_def_cfa_offset 128
 329 0006 8246     		mov	r10, r0
 330 0008 8946     		mov	r9, r1
 331 000a 1746     		mov	r7, r2
 332 000c 9846     		mov	r8, r3
  87:IMU.c         ****     /* (M)ST | (M)SAD+W| (S)SAK | (M)SUB | (S)SAK | (M)SR | (M)SAD+R | (S)SAK | (S)DATA | (M)MAK | 
  88:IMU.c         ****     int32 Err1, Err2, Err3, Err4, Err5, Err6;
  89:IMU.c         ****     Err1 = I2C_1_I2CMasterSendStart(LIS3MDL_I2CADD, I2C_1_WRITE_XFER_MODE, 1000);   // (M)ST | (M) 
 333              		.loc 1 89 0
 334 000e 4FF47A72 		mov	r2, #1000
 335              	.LVL35:
 336 0012 0021     		movs	r1, #0
 337              	.LVL36:
 338 0014 1E20     		movs	r0, #30
 339              	.LVL37:
 340 0016 FFF7FEFF 		bl	I2C_1_I2CMasterSendStart
 341              	.LVL38:
 342 001a 0446     		mov	r4, r0
 343              	.LVL39:
  90:IMU.c         ****     Err2 = I2C_1_I2CMasterWriteByte(LIS3MDL_REG_CTRL_REG1,1000);                          // (M) SU
 344              		.loc 1 90 0
 345 001c 4FF47A71 		mov	r1, #1000
 346 0020 2020     		movs	r0, #32
 347              	.LVL40:
 348 0022 FFF7FEFF 		bl	I2C_1_I2CMasterWriteByte
 349              	.LVL41:
 350 0026 0546     		mov	r5, r0
 351              	.LVL42:
  91:IMU.c         ****     Err3 = I2C_1_I2CMasterSendRestart(LIS3MDL_I2CADD, I2C_1_READ_XFER_MODE, 1000);  // (M) SR | (M)
 352              		.loc 1 91 0
 353 0028 4FF47A72 		mov	r2, #1000
 354 002c 0121     		movs	r1, #1
 355 002e 1E20     		movs	r0, #30
 356              	.LVL43:
 357 0030 FFF7FEFF 		bl	I2C_1_I2CMasterSendRestart
 358              	.LVL44:
 359 0034 0646     		mov	r6, r0
 360              	.LVL45:
  92:IMU.c         ****     Err4 = I2C_1_I2CMasterReadByte(I2C_1_ACK_DATA, CtrlReg1, 1000);                 // (S) DATA | (
 361              		.loc 1 92 0
 362 0036 4FF47A72 		mov	r2, #1000
 363 003a 5146     		mov	r1, r10
 364 003c 0120     		movs	r0, #1
ARM GAS  C:\Users\JamesH\AppData\Local\Temp\cc4jWNBZ.s 			page 9


 365              	.LVL46:
 366 003e FFF7FEFF 		bl	I2C_1_I2CMasterReadByte
 367              	.LVL47:
  93:IMU.c         ****     Err4 = I2C_1_I2CMasterReadByte(I2C_1_ACK_DATA, CtrlReg2, 1000);        
 368              		.loc 1 93 0
 369 0042 4FF47A72 		mov	r2, #1000
 370 0046 4946     		mov	r1, r9
 371 0048 0120     		movs	r0, #1
 372 004a FFF7FEFF 		bl	I2C_1_I2CMasterReadByte
 373              	.LVL48:
  94:IMU.c         ****     Err4 = I2C_1_I2CMasterReadByte(I2C_1_ACK_DATA, CtrlReg3, 1000);                 
 374              		.loc 1 94 0
 375 004e 4FF47A72 		mov	r2, #1000
 376 0052 3946     		mov	r1, r7
 377 0054 0120     		movs	r0, #1
 378 0056 FFF7FEFF 		bl	I2C_1_I2CMasterReadByte
 379              	.LVL49:
 380 005a 0746     		mov	r7, r0
 381              	.LVL50:
  95:IMU.c         ****     Err5 = I2C_1_I2CMasterReadByte(I2C_1_NAK_DATA, CtrlReg4, 1000);                 // (S) DATA | (
 382              		.loc 1 95 0
 383 005c 4FF47A72 		mov	r2, #1000
 384 0060 4146     		mov	r1, r8
 385 0062 0020     		movs	r0, #0
 386              	.LVL51:
 387 0064 FFF7FEFF 		bl	I2C_1_I2CMasterReadByte
 388              	.LVL52:
 389 0068 8046     		mov	r8, r0
 390              	.LVL53:
  96:IMU.c         ****     Err6 = I2C_1_I2CMasterSendStop(100); 
 391              		.loc 1 96 0
 392 006a 6420     		movs	r0, #100
 393              	.LVL54:
 394 006c FFF7FEFF 		bl	I2C_1_I2CMasterSendStop
 395              	.LVL55:
  97:IMU.c         ****     char string[80]; sprintf(string, "Errors %ld %ld %ld %ld %ld %ld\t", Err1,Err2,Err3,Err4,Err5,E
 396              		.loc 1 97 0
 397 0070 0390     		str	r0, [sp, #12]
 398 0072 CDF80880 		str	r8, [sp, #8]
 399 0076 0197     		str	r7, [sp, #4]
 400 0078 0096     		str	r6, [sp]
 401 007a 2B46     		mov	r3, r5
 402 007c 2246     		mov	r2, r4
 403 007e 0549     		ldr	r1, .L15
 404 0080 04A8     		add	r0, sp, #16
 405              	.LVL56:
 406 0082 FFF7FEFF 		bl	sprintf
 407              	.LVL57:
 408 0086 04A8     		add	r0, sp, #16
 409 0088 FFF7FEFF 		bl	UART_PutString
 410              	.LVL58:
  98:IMU.c         **** }
 411              		.loc 1 98 0
 412 008c 18B0     		add	sp, sp, #96
 413              		.cfi_def_cfa_offset 32
 414              		@ sp needed
 415 008e BDE8F087 		pop	{r4, r5, r6, r7, r8, r9, r10, pc}
ARM GAS  C:\Users\JamesH\AppData\Local\Temp\cc4jWNBZ.s 			page 10


 416              	.LVL59:
 417              	.L16:
 418 0092 00BF     		.align	2
 419              	.L15:
 420 0094 00000000 		.word	.LC0
 421              		.cfi_endproc
 422              	.LFE71:
 423              		.size	LIS3MDL_ReadCtrlReg, .-LIS3MDL_ReadCtrlReg
 424              		.section	.text.LSM6DS3_Begin,"ax",%progbits
 425              		.align	2
 426              		.global	LSM6DS3_Begin
 427              		.thumb
 428              		.thumb_func
 429              		.type	LSM6DS3_Begin, %function
 430              	LSM6DS3_Begin:
 431              	.LFB72:
  99:IMU.c         **** 
 100:IMU.c         **** /////// Accelerometer and Gyrometer //////
 101:IMU.c         **** // Gyrometer is unlikely to be that useful for us, so we focus on the accelerometer
 102:IMU.c         **** void LSM6DS3_Begin() {
 432              		.loc 1 102 0
 433              		.cfi_startproc
 434              		@ args = 0, pretend = 0, frame = 0
 435              		@ frame_needed = 0, uses_anonymous_args = 0
 436 0000 08B5     		push	{r3, lr}
 437              		.cfi_def_cfa_offset 8
 438              		.cfi_offset 3, -8
 439              		.cfi_offset 14, -4
 103:IMU.c         ****     int32 Err1, Err2, Err3, Err4, Err5;
 104:IMU.c         ****     uint8 rdBfr;
 105:IMU.c         ****     
 106:IMU.c         ****     I2C_1_Start(); //Enable I2C In PSOC
 440              		.loc 1 106 0
 441 0002 FFF7FEFF 		bl	I2C_1_Start
 442              	.LVL60:
 107:IMU.c         ****     
 108:IMU.c         ****     // TO-DO: Pre start up calibration, MUST BE PERFORMED IN POWER DOWN MODE
 109:IMU.c         ****     /*I2C_1_I2CMasterSendStart(LSM6DS3_I2CADD,I2C_1_WRITE_XFER_MODE,100);    // Initialize a transa
 110:IMU.c         ****     I2C_1_I2CMasterWriteByte(LSM6DS3_REG_CTRL1_XL,100);                       // Indicate which reg
 111:IMU.c         ****     I2C_1_I2CMasterWriteByte(0x00,100);                                        // Write to register
 112:IMU.c         ****     I2C_1_I2CMasterSendStop(100);                                                 // End of transac
 113:IMU.c         ****     // Write to FUNC_CFG_ACCESS to allow access to embedded registers
 114:IMU.c         ****     I2C_1_I2CMasterSendStart(LSM6DS3_I2CADD,I2C_1_WRITE_XFER_MODE,100);    // Initialize a transact
 115:IMU.c         ****     I2C_1_I2CMasterWriteByte(0x01,100);                       // Indicate which register you want t
 116:IMU.c         ****     I2C_1_I2CMasterWriteByte(0x80,100);                                        // Write to register
 117:IMU.c         ****     I2C_1_I2CMasterSendStop(100); 
 118:IMU.c         ****     // Write to change magnitude offset register
 119:IMU.c         ****     I2C_1_I2CMasterSendStart(LSM6DS3_I2CADD,I2C_1_WRITE_XFER_MODE,100);    // Initialize a transact
 120:IMU.c         ****     I2C_1_I2CMasterWriteByte(0x2D,100);                       // Indicate which register you want t
 121:IMU.c         ****     I2C_1_I2CMasterWriteByte(0xAA,100);
 122:IMU.c         ****     I2C_1_I2CMasterWriteByte(0xAA,100);                                        // Write to register
 123:IMU.c         ****     I2C_1_I2CMasterSendStop(100); 
 124:IMU.c         ****     // Write to FUNC_CFG_ACCESS to disallow access to embedded registers
 125:IMU.c         ****     I2C_1_I2CMasterSendStart(LSM6DS3_I2CADD,I2C_1_WRITE_XFER_MODE,100);    // Initialize a transact
 126:IMU.c         ****     I2C_1_I2CMasterWriteByte(0x01,100);                       // Indicate which register you want t
 127:IMU.c         ****     I2C_1_I2CMasterWriteByte(0x00,100);                                        // Write to register
 128:IMU.c         ****     I2C_1_I2CMasterSendStop(100); 
ARM GAS  C:\Users\JamesH\AppData\Local\Temp\cc4jWNBZ.s 			page 11


 129:IMU.c         ****         //Enable embedded register functions/filters
 130:IMU.c         ****     I2C_1_I2CMasterSendStart(LSM6DS3_I2CADD,I2C_1_WRITE_XFER_MODE,100);    // Initialize a transact
 131:IMU.c         ****     I2C_1_I2CMasterWriteByte(LSM6DS3_REG_CTRL10_C,100);                       // Indicate which reg
 132:IMU.c         ****     I2C_1_I2CMasterWriteByte(0x3C,100);                                        // Write to register
 133:IMU.c         ****     I2C_1_I2CMasterSendStop(100);
 134:IMU.c         ****     // Enable hard-iron compensation in MASTER_CONFIG
 135:IMU.c         ****     I2C_1_I2CMasterSendStart(LSM6DS3_I2CADD,I2C_1_WRITE_XFER_MODE,100);    // Initialize a transact
 136:IMU.c         ****     I2C_1_I2CMasterWriteByte(LSM6DS3_REG_MASTER_CONFIG,100);                       // Indicate whic
 137:IMU.c         ****     I2C_1_I2CMasterWriteByte(0x02,100);                                        // Write to register
 138:IMU.c         ****     I2C_1_I2CMasterSendStop(100);*/
 139:IMU.c         **** 
 140:IMU.c         ****     
 141:IMU.c         ****     // Enable Data conversion in magnetometer by setting Control register 1 to continuous conversio
 142:IMU.c         ****     I2C_1_I2CMasterSendStart(LSM6DS3_I2CADD,I2C_1_WRITE_XFER_MODE,100);    // Initialize a transact
 443              		.loc 1 142 0
 444 0006 6422     		movs	r2, #100
 445 0008 0021     		movs	r1, #0
 446 000a 6A20     		movs	r0, #106
 447 000c FFF7FEFF 		bl	I2C_1_I2CMasterSendStart
 448              	.LVL61:
 143:IMU.c         ****     I2C_1_I2CMasterWriteByte(LSM6DS3_REG_CTRL1_XL,100);                       // Indicate which reg
 449              		.loc 1 143 0
 450 0010 6421     		movs	r1, #100
 451 0012 1020     		movs	r0, #16
 452 0014 FFF7FEFF 		bl	I2C_1_I2CMasterWriteByte
 453              	.LVL62:
 144:IMU.c         ****     I2C_1_I2CMasterWriteByte(0x50,100);                                        // Write to register
 454              		.loc 1 144 0
 455 0018 6421     		movs	r1, #100
 456 001a 5020     		movs	r0, #80
 457 001c FFF7FEFF 		bl	I2C_1_I2CMasterWriteByte
 458              	.LVL63:
 145:IMU.c         ****     I2C_1_I2CMasterSendStop(100);                    // End of transaction */
 459              		.loc 1 145 0
 460 0020 6420     		movs	r0, #100
 461 0022 FFF7FEFF 		bl	I2C_1_I2CMasterSendStop
 462              	.LVL64:
 463 0026 08BD     		pop	{r3, pc}
 464              		.cfi_endproc
 465              	.LFE72:
 466              		.size	LSM6DS3_Begin, .-LSM6DS3_Begin
 467              		.section	.text.LSM6DS3_ReadWhoAmIReg,"ax",%progbits
 468              		.align	2
 469              		.global	LSM6DS3_ReadWhoAmIReg
 470              		.thumb
 471              		.thumb_func
 472              		.type	LSM6DS3_ReadWhoAmIReg, %function
 473              	LSM6DS3_ReadWhoAmIReg:
 474              	.LFB73:
 146:IMU.c         **** }
 147:IMU.c         **** void LSM6DS3_ReadWhoAmIReg(uint8 * rdPtr) {
 475              		.loc 1 147 0
 476              		.cfi_startproc
 477              		@ args = 0, pretend = 0, frame = 80
 478              		@ frame_needed = 0, uses_anonymous_args = 0
 479              	.LVL65:
 480 0000 F0B5     		push	{r4, r5, r6, r7, lr}
ARM GAS  C:\Users\JamesH\AppData\Local\Temp\cc4jWNBZ.s 			page 12


 481              		.cfi_def_cfa_offset 20
 482              		.cfi_offset 4, -20
 483              		.cfi_offset 5, -16
 484              		.cfi_offset 6, -12
 485              		.cfi_offset 7, -8
 486              		.cfi_offset 14, -4
 487 0002 99B0     		sub	sp, sp, #100
 488              		.cfi_def_cfa_offset 120
 489 0004 0746     		mov	r7, r0
 148:IMU.c         ****     /* (M)ST | (M)SAD+W| (S)SAK | (M)SUB | (S)SAK | (M)SR | (M)SAD+R | (S)SAK | (S)DATA | (M)NMAK |
 149:IMU.c         ****     int32 Err1, Err2, Err3, Err4, Err5;
 150:IMU.c         ****     Err1 = I2C_1_I2CMasterSendStart(LSM6DS3_I2CADD, I2C_1_WRITE_XFER_MODE, 1000);     // (M)ST | (M
 490              		.loc 1 150 0
 491 0006 4FF47A72 		mov	r2, #1000
 492 000a 0021     		movs	r1, #0
 493 000c 6A20     		movs	r0, #106
 494              	.LVL66:
 495 000e FFF7FEFF 		bl	I2C_1_I2CMasterSendStart
 496              	.LVL67:
 497 0012 0446     		mov	r4, r0
 498              	.LVL68:
 151:IMU.c         ****     Err2 = I2C_1_I2CMasterWriteByte(LSM6DS3_REG_WHO_AM_I,1000);                           // (M) SU
 499              		.loc 1 151 0
 500 0014 4FF47A71 		mov	r1, #1000
 501 0018 0F20     		movs	r0, #15
 502              	.LVL69:
 503 001a FFF7FEFF 		bl	I2C_1_I2CMasterWriteByte
 504              	.LVL70:
 505 001e 0546     		mov	r5, r0
 506              	.LVL71:
 152:IMU.c         ****     Err3 = I2C_1_I2CMasterSendRestart(LSM6DS3_I2CADD, I2C_1_READ_XFER_MODE, 1000);  // (M) SR | (M)
 507              		.loc 1 152 0
 508 0020 4FF47A72 		mov	r2, #1000
 509 0024 0121     		movs	r1, #1
 510 0026 6A20     		movs	r0, #106
 511              	.LVL72:
 512 0028 FFF7FEFF 		bl	I2C_1_I2CMasterSendRestart
 513              	.LVL73:
 514 002c 0646     		mov	r6, r0
 515              	.LVL74:
 153:IMU.c         ****     Err4 = I2C_1_I2CMasterReadByte(I2C_1_NAK_DATA, rdPtr, 1000);                   // (S) DATA | (M
 516              		.loc 1 153 0
 517 002e 4FF47A72 		mov	r2, #1000
 518 0032 3946     		mov	r1, r7
 519 0034 0020     		movs	r0, #0
 520              	.LVL75:
 521 0036 FFF7FEFF 		bl	I2C_1_I2CMasterReadByte
 522              	.LVL76:
 523 003a 0746     		mov	r7, r0
 524              	.LVL77:
 154:IMU.c         ****     Err5 = I2C_1_I2CMasterSendStop(100);                                                 // (M) SP
 525              		.loc 1 154 0
 526 003c 6420     		movs	r0, #100
 527              	.LVL78:
 528 003e FFF7FEFF 		bl	I2C_1_I2CMasterSendStop
 529              	.LVL79:
 155:IMU.c         ****     char string[80]; sprintf(string, "\nErrors %ld %ld %ld %ld %ld ", Err1,Err2,Err3,Err4,Err5); UA
ARM GAS  C:\Users\JamesH\AppData\Local\Temp\cc4jWNBZ.s 			page 13


 530              		.loc 1 155 0
 531 0042 0290     		str	r0, [sp, #8]
 532 0044 0197     		str	r7, [sp, #4]
 533 0046 0096     		str	r6, [sp]
 534 0048 2B46     		mov	r3, r5
 535 004a 2246     		mov	r2, r4
 536 004c 0449     		ldr	r1, .L21
 537 004e 04A8     		add	r0, sp, #16
 538              	.LVL80:
 539 0050 FFF7FEFF 		bl	sprintf
 540              	.LVL81:
 541 0054 04A8     		add	r0, sp, #16
 542 0056 FFF7FEFF 		bl	UART_PutString
 543              	.LVL82:
 156:IMU.c         **** }
 544              		.loc 1 156 0
 545 005a 19B0     		add	sp, sp, #100
 546              		.cfi_def_cfa_offset 20
 547              		@ sp needed
 548 005c F0BD     		pop	{r4, r5, r6, r7, pc}
 549              	.LVL83:
 550              	.L22:
 551 005e 00BF     		.align	2
 552              	.L21:
 553 0060 20000000 		.word	.LC1
 554              		.cfi_endproc
 555              	.LFE73:
 556              		.size	LSM6DS3_ReadWhoAmIReg, .-LSM6DS3_ReadWhoAmIReg
 557              		.section	.text.LSM6DS3_ReadAxisRaw,"ax",%progbits
 558              		.align	2
 559              		.global	LSM6DS3_ReadAxisRaw
 560              		.thumb
 561              		.thumb_func
 562              		.type	LSM6DS3_ReadAxisRaw, %function
 563              	LSM6DS3_ReadAxisRaw:
 564              	.LFB74:
 157:IMU.c         **** 
 158:IMU.c         **** void LSM6DS3_ReadAxisRaw(uint8 * rdPtrL, uint8 * rdPtrH) {
 565              		.loc 1 158 0
 566              		.cfi_startproc
 567              		@ args = 0, pretend = 0, frame = 0
 568              		@ frame_needed = 0, uses_anonymous_args = 0
 569              	.LVL84:
 570 0000 38B5     		push	{r3, r4, r5, lr}
 571              		.cfi_def_cfa_offset 16
 572              		.cfi_offset 3, -16
 573              		.cfi_offset 4, -12
 574              		.cfi_offset 5, -8
 575              		.cfi_offset 14, -4
 576 0002 0546     		mov	r5, r0
 577 0004 0C46     		mov	r4, r1
 159:IMU.c         ****     /* (M)ST | (M)SAD+W| (S)SAK | (M)SUB | (S)SAK | (M)SR | (M)SAD+R | (S)SAK | (S)DATA | (M)MAK | 
 160:IMU.c         ****     int32 Err1, Err2, Err3, Err4, Err5, Err6;
 161:IMU.c         ****     Err1 = I2C_1_I2CMasterSendStart(LSM6DS3_I2CADD, I2C_1_WRITE_XFER_MODE, 1000);   // (M)ST | (M) 
 578              		.loc 1 161 0
 579 0006 4FF47A72 		mov	r2, #1000
 580 000a 0021     		movs	r1, #0
ARM GAS  C:\Users\JamesH\AppData\Local\Temp\cc4jWNBZ.s 			page 14


 581              	.LVL85:
 582 000c 6A20     		movs	r0, #106
 583              	.LVL86:
 584 000e FFF7FEFF 		bl	I2C_1_I2CMasterSendStart
 585              	.LVL87:
 162:IMU.c         ****     Err2 = I2C_1_I2CMasterWriteByte(LSM6DS3_REG_OUTX_H_XL,1000);                          // (M) SU
 586              		.loc 1 162 0
 587 0012 4FF47A71 		mov	r1, #1000
 588 0016 2920     		movs	r0, #41
 589 0018 FFF7FEFF 		bl	I2C_1_I2CMasterWriteByte
 590              	.LVL88:
 163:IMU.c         ****     Err3 = I2C_1_I2CMasterSendRestart(LSM6DS3_I2CADD, I2C_1_READ_XFER_MODE, 1000);  // (M) SR | (M)
 591              		.loc 1 163 0
 592 001c 4FF47A72 		mov	r2, #1000
 593 0020 0121     		movs	r1, #1
 594 0022 6A20     		movs	r0, #106
 595 0024 FFF7FEFF 		bl	I2C_1_I2CMasterSendRestart
 596              	.LVL89:
 164:IMU.c         ****     Err4 = I2C_1_I2CMasterReadByte(I2C_1_ACK_DATA, rdPtrL, 1000);                   // (S) DATA | (
 597              		.loc 1 164 0
 598 0028 4FF47A72 		mov	r2, #1000
 599 002c 2946     		mov	r1, r5
 600 002e 0120     		movs	r0, #1
 601 0030 FFF7FEFF 		bl	I2C_1_I2CMasterReadByte
 602              	.LVL90:
 165:IMU.c         ****     Err5 = I2C_1_I2CMasterReadByte(I2C_1_NAK_DATA, rdPtrH, 1000);                // (S) DATA | (M) 
 603              		.loc 1 165 0
 604 0034 4FF47A72 		mov	r2, #1000
 605 0038 2146     		mov	r1, r4
 606 003a 0020     		movs	r0, #0
 607 003c FFF7FEFF 		bl	I2C_1_I2CMasterReadByte
 608              	.LVL91:
 166:IMU.c         ****     Err6 = I2C_1_I2CMasterSendStop(100); 
 609              		.loc 1 166 0
 610 0040 6420     		movs	r0, #100
 611 0042 FFF7FEFF 		bl	I2C_1_I2CMasterSendStop
 612              	.LVL92:
 613 0046 38BD     		pop	{r3, r4, r5, pc}
 614              		.cfi_endproc
 615              	.LFE74:
 616              		.size	LSM6DS3_ReadAxisRaw, .-LSM6DS3_ReadAxisRaw
 617              		.section	.text.LSM6DS3_ReadAxisDeg,"ax",%progbits
 618              		.align	2
 619              		.global	LSM6DS3_ReadAxisDeg
 620              		.thumb
 621              		.thumb_func
 622              		.type	LSM6DS3_ReadAxisDeg, %function
 623              	LSM6DS3_ReadAxisDeg:
 624              	.LFB75:
 167:IMU.c         ****     // char string[80]; sprintf(string, "Errors %ld %ld %ld %ld %ld %ld\t", Err1,Err2,Err3,Err4,Err
 168:IMU.c         ****     
 169:IMU.c         **** }
 170:IMU.c         **** void LSM6DS3_ReadAxisDeg(uint16 * heading) {
 625              		.loc 1 170 0
 626              		.cfi_startproc
 627              		@ args = 0, pretend = 0, frame = 8
 628              		@ frame_needed = 0, uses_anonymous_args = 0
ARM GAS  C:\Users\JamesH\AppData\Local\Temp\cc4jWNBZ.s 			page 15


 629              	.LVL93:
 630 0000 10B5     		push	{r4, lr}
 631              		.cfi_def_cfa_offset 8
 632              		.cfi_offset 4, -8
 633              		.cfi_offset 14, -4
 634 0002 82B0     		sub	sp, sp, #8
 635              		.cfi_def_cfa_offset 16
 636 0004 0446     		mov	r4, r0
 171:IMU.c         ****     /* (M)ST | (M)SAD+W| (S)SAK | (M)SUB | (S)SAK | (M)SR | (M)SAD+R | (S)SAK | (S)DATA | (M)MAK | 
 172:IMU.c         ****     int32 Err1, Err2, Err3, Err4, Err5, Err6;
 173:IMU.c         ****     Err1 = I2C_1_I2CMasterSendStart(LIS3MDL_I2CADD, I2C_1_WRITE_XFER_MODE, 1000);   // (M)ST | (M) 
 637              		.loc 1 173 0
 638 0006 4FF47A72 		mov	r2, #1000
 639 000a 0021     		movs	r1, #0
 640 000c 1E20     		movs	r0, #30
 641              	.LVL94:
 642 000e FFF7FEFF 		bl	I2C_1_I2CMasterSendStart
 643              	.LVL95:
 174:IMU.c         ****     Err2 = I2C_1_I2CMasterWriteByte(LIS3MDL_REG_OUT_X_L,1000);                          // (M) SUB 
 644              		.loc 1 174 0
 645 0012 4FF47A71 		mov	r1, #1000
 646 0016 2820     		movs	r0, #40
 647 0018 FFF7FEFF 		bl	I2C_1_I2CMasterWriteByte
 648              	.LVL96:
 175:IMU.c         ****     Err3 = I2C_1_I2CMasterSendRestart(LIS3MDL_I2CADD, I2C_1_READ_XFER_MODE, 1000);  // (M) SR | (M)
 649              		.loc 1 175 0
 650 001c 4FF47A72 		mov	r2, #1000
 651 0020 0121     		movs	r1, #1
 652 0022 1E20     		movs	r0, #30
 653 0024 FFF7FEFF 		bl	I2C_1_I2CMasterSendRestart
 654              	.LVL97:
 176:IMU.c         ****     uint8 rdPtrL, rdPtrH;
 177:IMU.c         ****     Err4 = I2C_1_I2CMasterReadByte(I2C_1_ACK_DATA, &rdPtrL, 1000);                    // (S) DATA |
 655              		.loc 1 177 0
 656 0028 4FF47A72 		mov	r2, #1000
 657 002c 0DF10701 		add	r1, sp, #7
 658 0030 0120     		movs	r0, #1
 659 0032 FFF7FEFF 		bl	I2C_1_I2CMasterReadByte
 660              	.LVL98:
 178:IMU.c         ****     Err5 = I2C_1_I2CMasterReadByte(I2C_1_NAK_DATA, &rdPtrH, 1000);                    // (S) DATA |
 661              		.loc 1 178 0
 662 0036 4FF47A72 		mov	r2, #1000
 663 003a 0DF10601 		add	r1, sp, #6
 664 003e 0020     		movs	r0, #0
 665 0040 FFF7FEFF 		bl	I2C_1_I2CMasterReadByte
 666              	.LVL99:
 179:IMU.c         ****     Err6 = I2C_1_I2CMasterSendStop(100); 
 667              		.loc 1 179 0
 668 0044 6420     		movs	r0, #100
 669 0046 FFF7FEFF 		bl	I2C_1_I2CMasterSendStop
 670              	.LVL100:
 180:IMU.c         ****     // char string[80]; sprintf(string, "Errors %ld %ld %ld %ld %ld %ld\t", Err1,Err2,Err3,Err4,Err
 181:IMU.c         ****     
 182:IMU.c         ****     uint8 rdPtrHS = rdPtrH;
 671              		.loc 1 182 0
 672 004a 9DF80620 		ldrb	r2, [sp, #6]	@ zero_extendqisi2
 673              	.LVL101:
ARM GAS  C:\Users\JamesH\AppData\Local\Temp\cc4jWNBZ.s 			page 16


 183:IMU.c         ****     uint8 rdPtrLS = rdPtrL;
 674              		.loc 1 183 0
 675 004e 9DF80730 		ldrb	r3, [sp, #7]	@ zero_extendqisi2
 676              	.LVL102:
 184:IMU.c         ****     *heading = (uint16)rdPtrHS << 8 | rdPtrLS; 
 677              		.loc 1 184 0
 678 0052 43EA0223 		orr	r3, r3, r2, lsl #8
 679              	.LVL103:
 680 0056 2380     		strh	r3, [r4]	@ movhi
 681              	.LVL104:
 185:IMU.c         ****     // Convert this heading to degrees.
 186:IMU.c         ****     // TO-DO: Calibration script for magnetometer
 187:IMU.c         **** }
 682              		.loc 1 187 0
 683 0058 02B0     		add	sp, sp, #8
 684              		.cfi_def_cfa_offset 8
 685              		@ sp needed
 686 005a 10BD     		pop	{r4, pc}
 687              		.cfi_endproc
 688              	.LFE75:
 689              		.size	LSM6DS3_ReadAxisDeg, .-LSM6DS3_ReadAxisDeg
 690              		.section	.text.LSM6DS3_ReadCtrlReg,"ax",%progbits
 691              		.align	2
 692              		.global	LSM6DS3_ReadCtrlReg
 693              		.thumb
 694              		.thumb_func
 695              		.type	LSM6DS3_ReadCtrlReg, %function
 696              	LSM6DS3_ReadCtrlReg:
 697              	.LFB76:
 188:IMU.c         **** 
 189:IMU.c         **** void LSM6DS3_ReadCtrlReg(uint8 CtrlReg[10]) {
 698              		.loc 1 189 0
 699              		.cfi_startproc
 700              		@ args = 0, pretend = 0, frame = 0
 701              		@ frame_needed = 0, uses_anonymous_args = 0
 702              	.LVL105:
 703 0000 10B5     		push	{r4, lr}
 704              		.cfi_def_cfa_offset 8
 705              		.cfi_offset 4, -8
 706              		.cfi_offset 14, -4
 707 0002 0446     		mov	r4, r0
 190:IMU.c         ****     /* (M)ST | (M)SAD+W| (S)SAK | (M)SUB | (S)SAK | (M)SR | (M)SAD+R | (S)SAK | (S)DATA | (M)MAK | 
 191:IMU.c         ****     I2C_1_I2CMasterSendStart(LSM6DS3_I2CADD, I2C_1_WRITE_XFER_MODE, 1000);   // (M)ST | (M) SAD + W
 708              		.loc 1 191 0
 709 0004 4FF47A72 		mov	r2, #1000
 710 0008 0021     		movs	r1, #0
 711 000a 6A20     		movs	r0, #106
 712              	.LVL106:
 713 000c FFF7FEFF 		bl	I2C_1_I2CMasterSendStart
 714              	.LVL107:
 192:IMU.c         ****     I2C_1_I2CMasterWriteByte(LSM6DS3_REG_CTRL1_XL,1000); //(M) SUB | (S) SAK         
 715              		.loc 1 192 0
 716 0010 4FF47A71 		mov	r1, #1000
 717 0014 1020     		movs	r0, #16
 718 0016 FFF7FEFF 		bl	I2C_1_I2CMasterWriteByte
 719              	.LVL108:
 193:IMU.c         ****     I2C_1_I2CMasterSendRestart(LSM6DS3_I2CADD, I2C_1_READ_XFER_MODE, 1000);  // (M) SR | (M) SAD + 
ARM GAS  C:\Users\JamesH\AppData\Local\Temp\cc4jWNBZ.s 			page 17


 720              		.loc 1 193 0
 721 001a 4FF47A72 		mov	r2, #1000
 722 001e 0121     		movs	r1, #1
 723 0020 6A20     		movs	r0, #106
 724 0022 FFF7FEFF 		bl	I2C_1_I2CMasterSendRestart
 725              	.LVL109:
 194:IMU.c         ****     I2C_1_I2CMasterReadByte(I2C_1_ACK_DATA, &CtrlReg[0], 1000);                 // (S) DATA | (M) M
 726              		.loc 1 194 0
 727 0026 4FF47A72 		mov	r2, #1000
 728 002a 2146     		mov	r1, r4
 729 002c 0120     		movs	r0, #1
 730 002e FFF7FEFF 		bl	I2C_1_I2CMasterReadByte
 731              	.LVL110:
 195:IMU.c         ****     I2C_1_I2CMasterReadByte(I2C_1_ACK_DATA, &CtrlReg[1], 1000);        
 732              		.loc 1 195 0
 733 0032 4FF47A72 		mov	r2, #1000
 734 0036 611C     		adds	r1, r4, #1
 735 0038 0120     		movs	r0, #1
 736 003a FFF7FEFF 		bl	I2C_1_I2CMasterReadByte
 737              	.LVL111:
 196:IMU.c         ****     I2C_1_I2CMasterReadByte(I2C_1_ACK_DATA, &CtrlReg[2], 1000);
 738              		.loc 1 196 0
 739 003e 4FF47A72 		mov	r2, #1000
 740 0042 A11C     		adds	r1, r4, #2
 741 0044 0120     		movs	r0, #1
 742 0046 FFF7FEFF 		bl	I2C_1_I2CMasterReadByte
 743              	.LVL112:
 197:IMU.c         ****     I2C_1_I2CMasterReadByte(I2C_1_ACK_DATA, &CtrlReg[3], 1000);                 
 744              		.loc 1 197 0
 745 004a 4FF47A72 		mov	r2, #1000
 746 004e E11C     		adds	r1, r4, #3
 747 0050 0120     		movs	r0, #1
 748 0052 FFF7FEFF 		bl	I2C_1_I2CMasterReadByte
 749              	.LVL113:
 198:IMU.c         ****     I2C_1_I2CMasterReadByte(I2C_1_ACK_DATA, &CtrlReg[4], 1000);        
 750              		.loc 1 198 0
 751 0056 4FF47A72 		mov	r2, #1000
 752 005a 211D     		adds	r1, r4, #4
 753 005c 0120     		movs	r0, #1
 754 005e FFF7FEFF 		bl	I2C_1_I2CMasterReadByte
 755              	.LVL114:
 199:IMU.c         ****     I2C_1_I2CMasterReadByte(I2C_1_ACK_DATA, &CtrlReg[5], 1000);
 756              		.loc 1 199 0
 757 0062 4FF47A72 		mov	r2, #1000
 758 0066 611D     		adds	r1, r4, #5
 759 0068 0120     		movs	r0, #1
 760 006a FFF7FEFF 		bl	I2C_1_I2CMasterReadByte
 761              	.LVL115:
 200:IMU.c         ****     I2C_1_I2CMasterReadByte(I2C_1_ACK_DATA, &CtrlReg[6], 1000);                 
 762              		.loc 1 200 0
 763 006e 4FF47A72 		mov	r2, #1000
 764 0072 A11D     		adds	r1, r4, #6
 765 0074 0120     		movs	r0, #1
 766 0076 FFF7FEFF 		bl	I2C_1_I2CMasterReadByte
 767              	.LVL116:
 201:IMU.c         ****     I2C_1_I2CMasterReadByte(I2C_1_ACK_DATA, &CtrlReg[7], 1000);        
 768              		.loc 1 201 0
ARM GAS  C:\Users\JamesH\AppData\Local\Temp\cc4jWNBZ.s 			page 18


 769 007a 4FF47A72 		mov	r2, #1000
 770 007e E11D     		adds	r1, r4, #7
 771 0080 0120     		movs	r0, #1
 772 0082 FFF7FEFF 		bl	I2C_1_I2CMasterReadByte
 773              	.LVL117:
 202:IMU.c         ****     I2C_1_I2CMasterReadByte(I2C_1_ACK_DATA, &CtrlReg[8], 1000);
 774              		.loc 1 202 0
 775 0086 4FF47A72 		mov	r2, #1000
 776 008a 04F10801 		add	r1, r4, #8
 777 008e 0120     		movs	r0, #1
 778 0090 FFF7FEFF 		bl	I2C_1_I2CMasterReadByte
 779              	.LVL118:
 203:IMU.c         ****     I2C_1_I2CMasterReadByte(I2C_1_NAK_DATA, &CtrlReg[9], 1000);                 // (S) DATA | (M) N
 780              		.loc 1 203 0
 781 0094 4FF47A72 		mov	r2, #1000
 782 0098 04F10901 		add	r1, r4, #9
 783 009c 0020     		movs	r0, #0
 784 009e FFF7FEFF 		bl	I2C_1_I2CMasterReadByte
 785              	.LVL119:
 204:IMU.c         ****     I2C_1_I2CMasterSendStop(100); 
 786              		.loc 1 204 0
 787 00a2 6420     		movs	r0, #100
 788 00a4 FFF7FEFF 		bl	I2C_1_I2CMasterSendStop
 789              	.LVL120:
 790 00a8 10BD     		pop	{r4, pc}
 791              		.cfi_endproc
 792              	.LFE76:
 793              		.size	LSM6DS3_ReadCtrlReg, .-LSM6DS3_ReadCtrlReg
 794 00aa 00BF     		.section	.rodata.str1.4,"aMS",%progbits,1
 795              		.align	2
 796              	.LC0:
 797 0000 4572726F 		.ascii	"Errors %ld %ld %ld %ld %ld %ld\011\000"
 797      72732025 
 797      6C642025 
 797      6C642025 
 797      6C642025 
 798              	.LC1:
 799 0020 0A457272 		.ascii	"\012Errors %ld %ld %ld %ld %ld \000"
 799      6F727320 
 799      256C6420 
 799      256C6420 
 799      256C6420 
 800              		.text
 801              	.Letext0:
 802              		.file 2 "c:\\program files (x86)\\cypress\\psoc creator\\4.4\\psoc creator\\import\\gnu\\arm\\5.4.
 803              		.file 3 "c:\\program files (x86)\\cypress\\psoc creator\\4.4\\psoc creator\\import\\gnu\\arm\\5.4.
 804              		.file 4 "Generated_Source\\PSoC5/cytypes.h"
 805              		.file 5 "Generated_Source\\PSoC5/I2C_1.h"
 806              		.file 6 "c:\\program files (x86)\\cypress\\psoc creator\\4.4\\psoc creator\\import\\gnu\\arm\\5.4.
 807              		.file 7 "Generated_Source\\PSoC5/UART.h"
 808              		.file 8 "Generated_Source\\PSoC5/core_cm3.h"