ARM GAS  C:\Users\JamesH\AppData\Local\Temp\ccza72Z6.s 			page 1


   1              		.syntax unified
   2              		.cpu cortex-m3
   3              		.fpu softvfp
   4              		.eabi_attribute 20, 1
   5              		.eabi_attribute 21, 1
   6              		.eabi_attribute 23, 3
   7              		.eabi_attribute 24, 1
   8              		.eabi_attribute 25, 1
   9              		.eabi_attribute 26, 1
  10              		.eabi_attribute 30, 1
  11              		.eabi_attribute 34, 1
  12              		.eabi_attribute 18, 4
  13              		.thumb
  14              		.syntax unified
  15              		.file	"main.c"
  16              		.text
  17              	.Ltext0:
  18              		.cfi_sections	.debug_frame
  19              		.global	__aeabi_i2f
  20              		.global	__aeabi_f2d
  21              		.global	__aeabi_fcmpeq
  22              		.section	.text.readBuf,"ax",%progbits
  23              		.align	2
  24              		.global	readBuf
  25              		.thumb
  26              		.thumb_func
  27              		.type	readBuf, %function
  28              	readBuf:
  29              	.LFB65:
  30              		.file 1 "main.c"
   1:main.c        **** /* ========================================
   2:main.c        ****  *
   3:main.c        ****  * Copyright YOUR COMPANY, THE YEAR
   4:main.c        ****  * All Rights Reserved
   5:main.c        ****  * UNPUBLISHED, LICENSED SOFTWARE.
   6:main.c        ****  *
   7:main.c        ****  * CONFIDENTIAL AND PROPRIETARY INFORMATION
   8:main.c        ****  * WHICH IS THE PROPERTY OF your company.
   9:main.c        ****  *
  10:main.c        ****  * ========================================
  11:main.c        **** */
  12:main.c        **** #include "project.h"
  13:main.c        **** #include <stdio.h>
  14:main.c        **** #include <stdlib.h>
  15:main.c        **** #include <math.h>
  16:main.c        **** #include <string.h>
  17:main.c        **** 
  18:main.c        **** // Custom Drivers
  19:main.c        **** #include "SBT0811.h"
  20:main.c        **** #include "IMU.h"
  21:main.c        **** #include "SG90.h"
  22:main.c        **** #include "TB9051.h"
  23:main.c        **** //#include "HCSR04.h"
  24:main.c        **** #include "pid.h"
  25:main.c        **** 
  26:main.c        **** // Global Variables
  27:main.c        **** float fullSpeedNoLoad = 0.2814784; // m/s
ARM GAS  C:\Users\JamesH\AppData\Local\Temp\ccza72Z6.s 			page 2


  28:main.c        **** char rxString[30] = {0};
  29:main.c        **** int rxCount = 0;
  30:main.c        **** char comString[30] = {0};
  31:main.c        **** int fn; 
  32:main.c        **** float prm1, prm2;
  33:main.c        **** unsigned char *B1, *B2;
  34:main.c        **** int mask = 0xff;
  35:main.c        **** int startFlag = 0;
  36:main.c        **** uint16 rxByte;
  37:main.c        **** char string[30];
  38:main.c        **** uint8 rxBuffer[15] = {0};
  39:main.c        **** uint8 rxBufferOld[15] = {0};
  40:main.c        **** 
  41:main.c        **** //Functions
  42:main.c        **** void onRx();
  43:main.c        **** CY_ISR(readBuf);
  44:main.c        **** void DMA_Config();
  45:main.c        **** 
  46:main.c        ****    /* Defines for rxDMA */
  47:main.c        **** #define rxDMA_BYTES_PER_BURST 1
  48:main.c        **** #define rxDMA_REQUEST_PER_BURST 1
  49:main.c        **** #define rxDMA_SRC_BASE (CYDEV_PERIPH_BASE)
  50:main.c        **** #define rxDMA_DST_BASE (CYDEV_SRAM_BASE)
  51:main.c        **** 
  52:main.c        **** /* Variable declarations for rxDMA */
  53:main.c        **** /* Move these variable declarations to the top of the function */
  54:main.c        **** uint8 rxDMA_Chan;
  55:main.c        **** uint8 rxDMA_TD[1];
  56:main.c        **** 
  57:main.c        **** 
  58:main.c        **** int main(void) // THIS SHOULD BE FREERTOS 
  59:main.c        **** {
  60:main.c        ****     CyGlobalIntEnable;
  61:main.c        ****     UART_Start();
  62:main.c        ****     UART_RPi_Start();
  63:main.c        ****    // UART_RPi_EnableRxInt();
  64:main.c        ****     //LIS3MDL_Begin();
  65:main.c        ****     //LSM6DS3_Begin();
  66:main.c        ****     //SG90_Begin();
  67:main.c        ****     TB9051_Begin();
  68:main.c        ****     HCSR04_Begin();
  69:main.c        ****     DMA_Config();
  70:main.c        ****     
  71:main.c        ****     // Setup the floats for serial receive
  72:main.c        ****     // by putting data at the address of the floats
  73:main.c        ****     B1 = (unsigned char *)&prm1;
  74:main.c        ****     B2 = (unsigned char *)&prm2;
  75:main.c        ****     
  76:main.c        ****     //Setup interrupts
  77:main.c        ****     RXcmplt_Start();
  78:main.c        ****     RXcmplt_ClearPending();
  79:main.c        ****     RXcmplt_StartEx(readBuf);
  80:main.c        ****     
  81:main.c        ****     /* // DESYNC TEST -- To test the robustness of the UART buffer
  82:main.c        ****     for (int i = 0; i < 8; i++)
  83:main.c        ****         UART_RPi_PutChar('c');
  84:main.c        ****     */    
ARM GAS  C:\Users\JamesH\AppData\Local\Temp\ccza72Z6.s 			page 3


  85:main.c        ****     //prelimPath_noAvoid();
  86:main.c        ****     for(;;)
  87:main.c        ****     {  
  88:main.c        ****         CyDelay(1000);
  89:main.c        ****         //prelimPath();
  90:main.c        ****         float angle = 45;
  91:main.c        ****         //staticRotate(&angle);
  92:main.c        ****         CyDelay(6000);
  93:main.c        ****         // MOTOR TEST
  94:main.c        ****         //CyDelay(3000);
  95:main.c        ****         //float lin = 0.2;
  96:main.c        ****         //float ang = 0.1;
  97:main.c        ****         //float velL = 0.1;
  98:main.c        ****         //float velR = 0.1;
  99:main.c        ****         //TB9051_VehForward(&velL, &velR);
 100:main.c        ****         //linAngtoVel(&lin, &ang);
 101:main.c        ****         //prelimPath();
 102:main.c        ****         //CyDelay(1000);
 103:main.c        ****         //QuadPWM_SetDutyCycle(3,00);
 104:main.c        ****         //QuadPWM_SetDutyCycle(1,00);
 105:main.c        ****         //CyDelay(5000);
 106:main.c        ****         
 107:main.c        ****         //QuadPWM_SetDutyCycle(1,100);
 108:main.c        ****         //QuadPWM_SetDutyCycle(3,100);
 109:main.c        ****         //CyDelay(1000);
 110:main.c        ****         //QuadPWM_SetDutyCycle(3,00);
 111:main.c        ****         //QuadPWM_SetDutyCycle(1,00);
 112:main.c        ****         //linAngtoVel(&velL, &velR);
 113:main.c        ****         
 114:main.c        ****         //TB9051_Forward(0,&vel,255);
 115:main.c        ****         //TB9051_Forward(1,&vel,255);
 116:main.c        ****       
 117:main.c        ****         //float v_x = 0.5;
 118:main.c        ****         //float omega = 0.2;
 119:main.c        ****         //linAngtoVel(&v_x, &omega);
 120:main.c        ****         //CyDelay(10000);
 121:main.c        ****         //TB9051_VehBrake();
 122:main.c        ****         //CyDelay(2000);
 123:main.c        ****         
 124:main.c        ****        //char string[20]; sprintf(string, "Main\n"); UART_PutString(string);
 125:main.c        ****        //CyDelay(1000);
 126:main.c        ****        //float param1 = 100;
 127:main.c        ****        //float param2 = 100;
 128:main.c        ****        //UART_RPi_PutChar('c');
 129:main.c        ****         //UART_RPi_PutString("Hello");
 130:main.c        ****        //fnSend(2, &param1, &param2);
 131:main.c        ****        //TB9051_VehMoveTo(15.000, 5.000);   
 132:main.c        ****         //distMeasure();
 133:main.c        ****         /*
 134:main.c        ****         int temp = TB9051_QD_GetCounter();
 135:main.c        ****         unsigned int param1 = (unsigned int) temp;
 136:main.c        ****         char string[20]; sprintf(string, "param1: %d \n", param1); UART_PutString(string);*/
 137:main.c        ****         
 138:main.c        ****     }
 139:main.c        **** }
 140:main.c        **** 
 141:main.c        **** // User Functions
ARM GAS  C:\Users\JamesH\AppData\Local\Temp\ccza72Z6.s 			page 4


 142:main.c        **** int fn_old, param1_old, param2_old;
 143:main.c        **** CY_ISR(readBuf){ // Read Incoming serial data
  31              		.loc 1 143 0
  32              		.cfi_startproc
  33              		@ args = 0, pretend = 0, frame = 8
  34              		@ frame_needed = 0, uses_anonymous_args = 0
  35 0000 F0B5     		push	{r4, r5, r6, r7, lr}
  36              		.cfi_def_cfa_offset 20
  37              		.cfi_offset 4, -20
  38              		.cfi_offset 5, -16
  39              		.cfi_offset 6, -12
  40              		.cfi_offset 7, -8
  41              		.cfi_offset 14, -4
  42 0002 87B0     		sub	sp, sp, #28
  43              		.cfi_def_cfa_offset 48
  44              	.LVL0:
  45              	.LBB2:
 144:main.c        ****     int diffFlag = 0;
 145:main.c        ****     for (int i = 3; i < 12; i++) {
  46              		.loc 1 145 0
  47 0004 0323     		movs	r3, #3
  48              	.LBE2:
 144:main.c        ****     int diffFlag = 0;
  49              		.loc 1 144 0
  50 0006 0025     		movs	r5, #0
  51              	.LBB3:
  52              		.loc 1 145 0
  53 0008 07E0     		b	.L2
  54              	.LVL1:
  55              	.L4:
 146:main.c        ****         if (rxBuffer[i] != rxBufferOld[i]) {
  56              		.loc 1 146 0
  57 000a 584A     		ldr	r2, .L25
  58 000c D15C     		ldrb	r1, [r2, r3]	@ zero_extendqisi2
  59 000e 1A44     		add	r2, r2, r3
  60 0010 127C     		ldrb	r2, [r2, #16]	@ zero_extendqisi2
  61 0012 9142     		cmp	r1, r2
  62 0014 00D0     		beq	.L3
 147:main.c        ****             diffFlag = 1;
  63              		.loc 1 147 0
  64 0016 0125     		movs	r5, #1
  65              	.LVL2:
  66              	.L3:
 145:main.c        ****         if (rxBuffer[i] != rxBufferOld[i]) {
  67              		.loc 1 145 0 discriminator 2
  68 0018 0133     		adds	r3, r3, #1
  69              	.LVL3:
  70              	.L2:
 145:main.c        ****         if (rxBuffer[i] != rxBufferOld[i]) {
  71              		.loc 1 145 0 is_stmt 0 discriminator 1
  72 001a 0B2B     		cmp	r3, #11
  73 001c F5DD     		ble	.L4
  74              	.LBE3:
 148:main.c        ****         }
 149:main.c        ****     }
 150:main.c        ****     memcpy(rxBufferOld,rxBuffer,15);
  75              		.loc 1 150 0 is_stmt 1
ARM GAS  C:\Users\JamesH\AppData\Local\Temp\ccza72Z6.s 			page 5


  76 001e 534B     		ldr	r3, .L25
  77              	.LVL4:
  78 0020 03F11004 		add	r4, r3, #16
  79 0024 0FCB     		ldmia	r3, {r0, r1, r2, r3}
  80 0026 07C4     		stmia	r4!, {r0, r1, r2}
  81 0028 24F8023B 		strh	r3, [r4], #2	@ movhi
  82 002c 1B0C     		lsrs	r3, r3, #16
  83 002e 2370     		strb	r3, [r4]
 151:main.c        ****     if (diffFlag) {        
  84              		.loc 1 151 0
  85 0030 BDB9     		cbnz	r5, .L19
  86              	.LBB4:
  87 0032 99E0     		b	.L1
  88              	.LVL5:
  89              	.L9:
  90              	.LBB5:
 152:main.c        ****         // A packet should arrive within a matter of us could be used as an error check
 153:main.c        ****         int stopPres = 0;
 154:main.c        ****         int startPres = 0;
 155:main.c        ****         int startPos = 0;
 156:main.c        ****         int deSyncFlg = 0;   
 157:main.c        ****         
 158:main.c        ****         for (int i = 14; i >= 0; i--) { // Search for the stop byte
 159:main.c        ****             if (rxBuffer[i] == 0x55) {
  91              		.loc 1 159 0
  92 0034 4D4A     		ldr	r2, .L25
  93 0036 D15C     		ldrb	r1, [r2, r3]	@ zero_extendqisi2
  94 0038 5529     		cmp	r1, #85
  95 003a 0DD0     		beq	.L20
 160:main.c        ****                 stopPres = 1; 
 161:main.c        ****             }
 162:main.c        ****             // If we have a stop byte, begin searching for a start byte
 163:main.c        ****             else if (stopPres == 0 & rxBuffer[i] == 0xff & i <= 12) { //Search for the start byte
  96              		.loc 1 163 0
  97 003c 80F00102 		eor	r2, r0, #1
  98 0040 FF29     		cmp	r1, #255
  99 0042 14BF     		ite	ne
 100 0044 0022     		movne	r2, #0
 101 0046 02F00102 		andeq	r2, r2, #1
 102 004a 0C2B     		cmp	r3, #12
 103 004c CCBF     		ite	gt
 104 004e 0021     		movgt	r1, #0
 105 0050 0121     		movle	r1, #1
 106 0052 22B1     		cbz	r2, .L7
 107 0054 11B9     		cbnz	r1, .L21
 108 0056 02E0     		b	.L7
 109              	.L20:
 160:main.c        ****                 stopPres = 1; 
 110              		.loc 1 160 0
 111 0058 0120     		movs	r0, #1
 112              	.LVL6:
 113 005a 00E0     		b	.L7
 114              	.LVL7:
 115              	.L21:
 164:main.c        ****                 startPres = 1;
 165:main.c        ****                 startPos = i;
 116              		.loc 1 165 0
ARM GAS  C:\Users\JamesH\AppData\Local\Temp\ccza72Z6.s 			page 6


 117 005c 1C46     		mov	r4, r3
 118              	.LVL8:
 119              	.L7:
 158:main.c        ****             if (rxBuffer[i] == 0x55) {
 120              		.loc 1 158 0 discriminator 2
 121 005e 013B     		subs	r3, r3, #1
 122              	.LVL9:
 123 0060 02E0     		b	.L5
 124              	.LVL10:
 125              	.L19:
 126              	.LBE5:
 127              	.LBE4:
 128 0062 0E23     		movs	r3, #14
 129 0064 0024     		movs	r4, #0
 130 0066 2046     		mov	r0, r4
 131              	.L5:
 132              	.LVL11:
 133              	.LBB11:
 134              	.LBB6:
 158:main.c        ****             if (rxBuffer[i] == 0x55) {
 135              		.loc 1 158 0 is_stmt 0 discriminator 1
 136 0068 002B     		cmp	r3, #0
 137 006a E3DA     		bge	.L9
 138              	.LBE6:
 166:main.c        ****             }
 167:main.c        ****         }
 168:main.c        ****         
 169:main.c        ****         
 170:main.c        ****         if (startPos >= 4) { //If out of sync, call RPi to adjust.
 139              		.loc 1 170 0 is_stmt 1
 140 006c 032C     		cmp	r4, #3
 141 006e 21DD     		ble	.L22
 142              	.LVL12:
 143              	.LBB7:
 171:main.c        ****             deSyncFlg = 1;
 172:main.c        ****             float p1 = 15 - startPos; // This requires fine tuning
 144              		.loc 1 172 0
 145 0070 C4F10F00 		rsb	r0, r4, #15
 146              	.LVL13:
 147 0074 FFF7FEFF 		bl	__aeabi_i2f
 148              	.LVL14:
 149 0078 0490     		str	r0, [sp, #16]	@ float
 173:main.c        ****             float p2 = 0;
 150              		.loc 1 173 0
 151 007a 0023     		movs	r3, #0
 152 007c 0593     		str	r3, [sp, #20]	@ float
 174:main.c        ****             UART_PutString("Frame Error: ");
 153              		.loc 1 174 0
 154 007e 3C48     		ldr	r0, .L25+4
 155 0080 FFF7FEFF 		bl	UART_PutString
 156              	.LVL15:
 157              	.LBB8:
 175:main.c        ****              for (int i = 0; i < 15; i++) { 
 158              		.loc 1 175 0
 159 0084 0025     		movs	r5, #0
 160              	.LVL16:
 161 0086 0AE0     		b	.L11
ARM GAS  C:\Users\JamesH\AppData\Local\Temp\ccza72Z6.s 			page 7


 162              	.LVL17:
 163              	.L12:
 176:main.c        ****                 sprintf(string,"%x ",rxBuffer[i]); UART_PutString(string);
 164              		.loc 1 176 0 discriminator 3
 165 0088 3A4E     		ldr	r6, .L25+8
 166 008a 384B     		ldr	r3, .L25
 167 008c 5A5D     		ldrb	r2, [r3, r5]	@ zero_extendqisi2
 168 008e 3A49     		ldr	r1, .L25+12
 169 0090 3046     		mov	r0, r6
 170 0092 FFF7FEFF 		bl	sprintf
 171              	.LVL18:
 172 0096 3046     		mov	r0, r6
 173 0098 FFF7FEFF 		bl	UART_PutString
 174              	.LVL19:
 175:main.c        ****              for (int i = 0; i < 15; i++) { 
 175              		.loc 1 175 0 discriminator 3
 176 009c 0135     		adds	r5, r5, #1
 177              	.LVL20:
 178              	.L11:
 175:main.c        ****              for (int i = 0; i < 15; i++) { 
 179              		.loc 1 175 0 is_stmt 0 discriminator 1
 180 009e 0E2D     		cmp	r5, #14
 181 00a0 F2DD     		ble	.L12
 182              	.LBE8:
 177:main.c        ****             }
 178:main.c        ****             UART_PutCRLF();
 183              		.loc 1 178 0 is_stmt 1
 184 00a2 FFF7FEFF 		bl	UART_PutCRLF
 185              	.LVL21:
 179:main.c        ****             fnSend(90, &p1, &p2);
 186              		.loc 1 179 0
 187 00a6 05AA     		add	r2, sp, #20
 188 00a8 04A9     		add	r1, sp, #16
 189 00aa 5A20     		movs	r0, #90
 190 00ac FFF7FEFF 		bl	fnSend
 191              	.LVL22:
 171:main.c        ****             float p1 = 15 - startPos; // This requires fine tuning
 192              		.loc 1 171 0
 193 00b0 0123     		movs	r3, #1
 194 00b2 00E0     		b	.L10
 195              	.LVL23:
 196              	.L22:
 197              	.LBE7:
 156:main.c        ****         
 198              		.loc 1 156 0
 199 00b4 0023     		movs	r3, #0
 200              	.LVL24:
 201              	.L10:
 180:main.c        ****         }
 181:main.c        ****         
 182:main.c        ****         if (deSyncFlg == 0) {  // If insync (Bye, Bye, Bye) read the data and assign it to function
 202              		.loc 1 182 0
 203 00b6 002B     		cmp	r3, #0
 204 00b8 56D1     		bne	.L1
 183:main.c        ****             fn = (char)rxBuffer[startPos + 1];
 205              		.loc 1 183 0
 206 00ba 631C     		adds	r3, r4, #1
ARM GAS  C:\Users\JamesH\AppData\Local\Temp\ccza72Z6.s 			page 8


 207              	.LVL25:
 208 00bc 2B4A     		ldr	r2, .L25
 209 00be D25C     		ldrb	r2, [r2, r3]	@ zero_extendqisi2
 210 00c0 2E4B     		ldr	r3, .L25+16
 211 00c2 1A60     		str	r2, [r3]
 212              	.LVL26:
 213              	.LBB9:
 184:main.c        ****             for (int i = 0; i < 4; i++) {
 214              		.loc 1 184 0
 215 00c4 0023     		movs	r3, #0
 216 00c6 0DE0     		b	.L13
 217              	.LVL27:
 218              	.L14:
 185:main.c        ****                 B1[i] = (char)rxBuffer[startPos + 2 + i];
 219              		.loc 1 185 0 discriminator 3
 220 00c8 2D4A     		ldr	r2, .L25+20
 221 00ca 1068     		ldr	r0, [r2]
 222 00cc A21C     		adds	r2, r4, #2
 223 00ce 1A44     		add	r2, r2, r3
 224 00d0 2649     		ldr	r1, .L25
 225 00d2 8A5C     		ldrb	r2, [r1, r2]	@ zero_extendqisi2
 226 00d4 C254     		strb	r2, [r0, r3]
 186:main.c        ****                 B2[i] = (char)rxBuffer[startPos + i + 6];
 227              		.loc 1 186 0 discriminator 3
 228 00d6 2B4A     		ldr	r2, .L25+24
 229 00d8 1068     		ldr	r0, [r2]
 230 00da E218     		adds	r2, r4, r3
 231 00dc 0632     		adds	r2, r2, #6
 232 00de 8A5C     		ldrb	r2, [r1, r2]	@ zero_extendqisi2
 233 00e0 C254     		strb	r2, [r0, r3]
 184:main.c        ****             for (int i = 0; i < 4; i++) {
 234              		.loc 1 184 0 discriminator 3
 235 00e2 0133     		adds	r3, r3, #1
 236              	.LVL28:
 237              	.L13:
 184:main.c        ****             for (int i = 0; i < 4; i++) {
 238              		.loc 1 184 0 is_stmt 0 discriminator 1
 239 00e4 032B     		cmp	r3, #3
 240 00e6 EFDD     		ble	.L14
 241              	.LBE9:
 187:main.c        ****             }
 188:main.c        ****             
 189:main.c        ****             // DEBUG FOR INCOMING SERIAL - PRINT DATA IN HEX / DEC
 190:main.c        ****             sprintf(string,"R:%i %0.3f %0.3f \n",fn,prm1,prm2); UART_PutString(string);
 242              		.loc 1 190 0 is_stmt 1
 243 00e8 244C     		ldr	r4, .L25+16
 244              	.LVL29:
 245 00ea 2768     		ldr	r7, [r4]
 246 00ec 214E     		ldr	r6, .L25+8
 247 00ee 264B     		ldr	r3, .L25+28
 248              	.LVL30:
 249 00f0 1868     		ldr	r0, [r3]	@ float
 250 00f2 FFF7FEFF 		bl	__aeabi_f2d
 251              	.LVL31:
 252 00f6 CDE90201 		strd	r0, [sp, #8]
 253 00fa 244D     		ldr	r5, .L25+32
 254 00fc 2868     		ldr	r0, [r5]	@ float
ARM GAS  C:\Users\JamesH\AppData\Local\Temp\ccza72Z6.s 			page 9


 255 00fe FFF7FEFF 		bl	__aeabi_f2d
 256              	.LVL32:
 257 0102 CDE90001 		strd	r0, [sp]
 258 0106 3A46     		mov	r2, r7
 259 0108 2149     		ldr	r1, .L25+36
 260 010a 3046     		mov	r0, r6
 261 010c FFF7FEFF 		bl	sprintf
 262              	.LVL33:
 263 0110 3046     		mov	r0, r6
 264 0112 FFF7FEFF 		bl	UART_PutString
 265              	.LVL34:
 191:main.c        ****             if (fn_old != fn | param1_old != prm1 | param2_old != prm2) {
 266              		.loc 1 191 0
 267 0116 2668     		ldr	r6, [r4]
 268 0118 1E4B     		ldr	r3, .L25+40
 269 011a 1868     		ldr	r0, [r3]
 270 011c FFF7FEFF 		bl	__aeabi_i2f
 271              	.LVL35:
 272 0120 4FF00104 		mov	r4, #1
 273 0124 2968     		ldr	r1, [r5]	@ float
 274 0126 FFF7FEFF 		bl	__aeabi_fcmpeq
 275              	.LVL36:
 276 012a 08B1     		cbz	r0, .L15
 277 012c 4FF00004 		mov	r4, #0
 278              	.L15:
 279 0130 194B     		ldr	r3, .L25+44
 280 0132 1B68     		ldr	r3, [r3]
 281 0134 B342     		cmp	r3, r6
 282 0136 18BF     		it	ne
 283 0138 44F00104 		orrne	r4, r4, #1
 284 013c E4B2     		uxtb	r4, r4
 285 013e 174B     		ldr	r3, .L25+48
 286 0140 1868     		ldr	r0, [r3]
 287 0142 FFF7FEFF 		bl	__aeabi_i2f
 288              	.LVL37:
 289 0146 4FF00105 		mov	r5, #1
 290 014a 0F4B     		ldr	r3, .L25+28
 291 014c 1968     		ldr	r1, [r3]	@ float
 292 014e FFF7FEFF 		bl	__aeabi_fcmpeq
 293              	.LVL38:
 294 0152 08B1     		cbz	r0, .L16
 295 0154 4FF00005 		mov	r5, #0
 296              	.L16:
 297 0158 EDB2     		uxtb	r5, r5
 298 015a 04B9     		cbnz	r4, .L23
 299 015c 25B1     		cbz	r5, .L1
 300              	.L23:
 301              	.LBB10:
 192:main.c        ****                 fnCall(fn,&prm1,&prm2);
 302              		.loc 1 192 0
 303 015e 0A4A     		ldr	r2, .L25+28
 304 0160 0A49     		ldr	r1, .L25+32
 305 0162 3046     		mov	r0, r6
 306 0164 FFF7FEFF 		bl	fnCall
 307              	.LVL39:
 308              	.L1:
 309              	.LBE10:
ARM GAS  C:\Users\JamesH\AppData\Local\Temp\ccza72Z6.s 			page 10


 310              	.LBE11:
 193:main.c        ****             }
 194:main.c        ****         }
 195:main.c        ****     }    
 196:main.c        **** }
 311              		.loc 1 196 0
 312 0168 07B0     		add	sp, sp, #28
 313              		.cfi_def_cfa_offset 20
 314              		@ sp needed
 315 016a F0BD     		pop	{r4, r5, r6, r7, pc}
 316              	.L26:
 317              		.align	2
 318              	.L25:
 319 016c 00000000 		.word	.LANCHOR0
 320 0170 00000000 		.word	.LC0
 321 0174 00000000 		.word	string
 322 0178 10000000 		.word	.LC1
 323 017c 00000000 		.word	fn
 324 0180 00000000 		.word	B1
 325 0184 00000000 		.word	B2
 326 0188 00000000 		.word	prm2
 327 018c 00000000 		.word	prm1
 328 0190 14000000 		.word	.LC2
 329 0194 00000000 		.word	param1_old
 330 0198 00000000 		.word	fn_old
 331 019c 00000000 		.word	param2_old
 332              		.cfi_endproc
 333              	.LFE65:
 334              		.size	readBuf, .-readBuf
 335              		.section	.text.DMA_Config,"ax",%progbits
 336              		.align	2
 337              		.global	DMA_Config
 338              		.thumb
 339              		.thumb_func
 340              		.type	DMA_Config, %function
 341              	DMA_Config:
 342              	.LFB66:
 197:main.c        **** 
 198:main.c        **** 
 199:main.c        **** /* DMA Configuration for rxDMA */
 200:main.c        **** void DMA_Config() {
 343              		.loc 1 200 0
 344              		.cfi_startproc
 345              		@ args = 0, pretend = 0, frame = 0
 346              		@ frame_needed = 0, uses_anonymous_args = 0
 347 0000 38B5     		push	{r3, r4, r5, lr}
 348              		.cfi_def_cfa_offset 16
 349              		.cfi_offset 3, -16
 350              		.cfi_offset 4, -12
 351              		.cfi_offset 5, -8
 352              		.cfi_offset 14, -4
 201:main.c        ****     rxDMA_Chan = rxDMA_DmaInitialize(rxDMA_BYTES_PER_BURST, rxDMA_REQUEST_PER_BURST, 
 353              		.loc 1 201 0
 354 0002 41F6FF73 		movw	r3, #8191
 355 0006 4FF48042 		mov	r2, #16384
 356 000a 0121     		movs	r1, #1
 357 000c 0846     		mov	r0, r1
ARM GAS  C:\Users\JamesH\AppData\Local\Temp\ccza72Z6.s 			page 11


 358 000e FFF7FEFF 		bl	rxDMA_DmaInitialize
 359              	.LVL40:
 360 0012 0D4C     		ldr	r4, .L29
 361 0014 2070     		strb	r0, [r4]
 202:main.c        ****         HI16(rxDMA_SRC_BASE), HI16(rxDMA_DST_BASE));
 203:main.c        ****     rxDMA_TD[0] = CyDmaTdAllocate();
 362              		.loc 1 203 0
 363 0016 FFF7FEFF 		bl	CyDmaTdAllocate
 364              	.LVL41:
 365 001a 0246     		mov	r2, r0
 366 001c 0B4D     		ldr	r5, .L29+4
 367 001e 2870     		strb	r0, [r5]
 204:main.c        ****     CyDmaTdSetConfiguration(rxDMA_TD[0], 15, rxDMA_TD[0], rxDMA__TD_TERMOUT_EN | CY_DMA_TD_INC_DST_
 368              		.loc 1 204 0
 369 0020 0623     		movs	r3, #6
 370 0022 0F21     		movs	r1, #15
 371 0024 FFF7FEFF 		bl	CyDmaTdSetConfiguration
 372              	.LVL42:
 205:main.c        ****     CyDmaTdSetAddress(rxDMA_TD[0], LO16((uint32)UART_RPi_RXDATA_PTR), LO16((uint32)rxBuffer));
 373              		.loc 1 205 0
 374 0028 094A     		ldr	r2, .L29+8
 375 002a 92B2     		uxth	r2, r2
 376 002c 46F24B41 		movw	r1, #25675
 377 0030 2878     		ldrb	r0, [r5]	@ zero_extendqisi2
 378 0032 FFF7FEFF 		bl	CyDmaTdSetAddress
 379              	.LVL43:
 206:main.c        ****     CyDmaChSetInitialTd(rxDMA_Chan, rxDMA_TD[0]);
 380              		.loc 1 206 0
 381 0036 2978     		ldrb	r1, [r5]	@ zero_extendqisi2
 382 0038 2078     		ldrb	r0, [r4]	@ zero_extendqisi2
 383 003a FFF7FEFF 		bl	CyDmaChSetInitialTd
 384              	.LVL44:
 207:main.c        ****     CyDmaChEnable(rxDMA_Chan, 1);
 385              		.loc 1 207 0
 386 003e 0121     		movs	r1, #1
 387 0040 2078     		ldrb	r0, [r4]	@ zero_extendqisi2
 388 0042 FFF7FEFF 		bl	CyDmaChEnable
 389              	.LVL45:
 390 0046 38BD     		pop	{r3, r4, r5, pc}
 391              	.L30:
 392              		.align	2
 393              	.L29:
 394 0048 00000000 		.word	rxDMA_Chan
 395 004c 00000000 		.word	rxDMA_TD
 396 0050 00000000 		.word	.LANCHOR0
 397              		.cfi_endproc
 398              	.LFE66:
 399              		.size	DMA_Config, .-DMA_Config
 400              		.section	.text.main,"ax",%progbits
 401              		.align	2
 402              		.global	main
 403              		.thumb
 404              		.thumb_func
 405              		.type	main, %function
 406              	main:
 407              	.LFB64:
  59:main.c        ****     CyGlobalIntEnable;
ARM GAS  C:\Users\JamesH\AppData\Local\Temp\ccza72Z6.s 			page 12


 408              		.loc 1 59 0
 409              		.cfi_startproc
 410              		@ args = 0, pretend = 0, frame = 0
 411              		@ frame_needed = 0, uses_anonymous_args = 0
 412 0000 08B5     		push	{r3, lr}
 413              		.cfi_def_cfa_offset 8
 414              		.cfi_offset 3, -8
 415              		.cfi_offset 14, -4
  60:main.c        ****     UART_Start();
 416              		.loc 1 60 0
 417              		.syntax unified
 418              	@ 60 "main.c" 1
 419 0002 62B6     		CPSIE   i
 420              	@ 0 "" 2
  61:main.c        ****     UART_RPi_Start();
 421              		.loc 1 61 0
 422              		.thumb
 423              		.syntax unified
 424 0004 FFF7FEFF 		bl	UART_Start
 425              	.LVL46:
  62:main.c        ****    // UART_RPi_EnableRxInt();
 426              		.loc 1 62 0
 427 0008 FFF7FEFF 		bl	UART_RPi_Start
 428              	.LVL47:
  67:main.c        ****     HCSR04_Begin();
 429              		.loc 1 67 0
 430 000c FFF7FEFF 		bl	TB9051_Begin
 431              	.LVL48:
  68:main.c        ****     DMA_Config();
 432              		.loc 1 68 0
 433 0010 FFF7FEFF 		bl	HCSR04_Begin
 434              	.LVL49:
  69:main.c        ****     
 435              		.loc 1 69 0
 436 0014 FFF7FEFF 		bl	DMA_Config
 437              	.LVL50:
  73:main.c        ****     B2 = (unsigned char *)&prm2;
 438              		.loc 1 73 0
 439 0018 0A4A     		ldr	r2, .L34
 440 001a 0B4B     		ldr	r3, .L34+4
 441 001c 1A60     		str	r2, [r3]
  74:main.c        ****     
 442              		.loc 1 74 0
 443 001e 0B4A     		ldr	r2, .L34+8
 444 0020 0B4B     		ldr	r3, .L34+12
 445 0022 1A60     		str	r2, [r3]
  77:main.c        ****     RXcmplt_ClearPending();
 446              		.loc 1 77 0
 447 0024 FFF7FEFF 		bl	RXcmplt_Start
 448              	.LVL51:
  78:main.c        ****     RXcmplt_StartEx(readBuf);
 449              		.loc 1 78 0
 450 0028 FFF7FEFF 		bl	RXcmplt_ClearPending
 451              	.LVL52:
  79:main.c        ****     
 452              		.loc 1 79 0
 453 002c 0948     		ldr	r0, .L34+16
ARM GAS  C:\Users\JamesH\AppData\Local\Temp\ccza72Z6.s 			page 13


 454 002e FFF7FEFF 		bl	RXcmplt_StartEx
 455              	.LVL53:
 456              	.L32:
 457              	.LBB12:
  88:main.c        ****         //prelimPath();
 458              		.loc 1 88 0 discriminator 1
 459 0032 4FF47A70 		mov	r0, #1000
 460 0036 FFF7FEFF 		bl	CyDelay
 461              	.LVL54:
  92:main.c        ****         // MOTOR TEST
 462              		.loc 1 92 0 discriminator 1
 463 003a 41F27070 		movw	r0, #6000
 464 003e FFF7FEFF 		bl	CyDelay
 465              	.LVL55:
 466 0042 F6E7     		b	.L32
 467              	.L35:
 468              		.align	2
 469              	.L34:
 470 0044 00000000 		.word	prm1
 471 0048 00000000 		.word	B1
 472 004c 00000000 		.word	prm2
 473 0050 00000000 		.word	B2
 474 0054 00000000 		.word	readBuf
 475              	.LBE12:
 476              		.cfi_endproc
 477              	.LFE64:
 478              		.size	main, .-main
 479              		.comm	param2_old,4,4
 480              		.comm	param1_old,4,4
 481              		.comm	fn_old,4,4
 482              		.comm	rxDMA_TD,1,4
 483              		.comm	rxDMA_Chan,1,1
 484              		.global	rxBufferOld
 485              		.global	rxBuffer
 486              		.comm	string,30,4
 487              		.comm	rxByte,2,2
 488              		.global	startFlag
 489              		.global	mask
 490              		.comm	B2,4,4
 491              		.comm	B1,4,4
 492              		.comm	prm2,4,4
 493              		.comm	prm1,4,4
 494              		.comm	fn,4,4
 495              		.global	comString
 496              		.global	rxCount
 497              		.global	rxString
 498              		.global	fullSpeedNoLoad
 499              		.data
 500              		.align	2
 501              		.type	mask, %object
 502              		.size	mask, 4
 503              	mask:
 504 0000 FF000000 		.word	255
 505              		.type	fullSpeedNoLoad, %object
 506              		.size	fullSpeedNoLoad, 4
 507              	fullSpeedNoLoad:
 508 0004 F01D903E 		.word	1049632240
ARM GAS  C:\Users\JamesH\AppData\Local\Temp\ccza72Z6.s 			page 14


 509              		.section	.rodata.str1.4,"aMS",%progbits,1
 510              		.align	2
 511              	.LC0:
 512 0000 4672616D 		.ascii	"Frame Error: \000"
 512      65204572 
 512      726F723A 
 512      2000
 513 000e 0000     		.space	2
 514              	.LC1:
 515 0010 25782000 		.ascii	"%x \000"
 516              	.LC2:
 517 0014 523A2569 		.ascii	"R:%i %0.3f %0.3f \012\000"
 517      2025302E 
 517      33662025 
 517      302E3366 
 517      200A00
 518              		.bss
 519              		.align	2
 520              		.set	.LANCHOR0,. + 0
 521              		.type	rxBuffer, %object
 522              		.size	rxBuffer, 15
 523              	rxBuffer:
 524 0000 00000000 		.space	15
 524      00000000 
 524      00000000 
 524      000000
 525 000f 00       		.space	1
 526              		.type	rxBufferOld, %object
 527              		.size	rxBufferOld, 15
 528              	rxBufferOld:
 529 0010 00000000 		.space	15
 529      00000000 
 529      00000000 
 529      000000
 530 001f 00       		.space	1
 531              		.type	startFlag, %object
 532              		.size	startFlag, 4
 533              	startFlag:
 534 0020 00000000 		.space	4
 535              		.type	comString, %object
 536              		.size	comString, 30
 537              	comString:
 538 0024 00000000 		.space	30
 538      00000000 
 538      00000000 
 538      00000000 
 538      00000000 
 539 0042 0000     		.space	2
 540              		.type	rxCount, %object
 541              		.size	rxCount, 4
 542              	rxCount:
 543 0044 00000000 		.space	4
 544              		.type	rxString, %object
 545              		.size	rxString, 30
 546              	rxString:
 547 0048 00000000 		.space	30
 547      00000000 
ARM GAS  C:\Users\JamesH\AppData\Local\Temp\ccza72Z6.s 			page 15


 547      00000000 
 547      00000000 
 547      00000000 
 548              		.text
 549              	.Letext0:
 550              		.file 2 "c:\\program files (x86)\\cypress\\psoc creator\\4.4\\psoc creator\\import\\gnu\\arm\\5.4.
 551              		.file 3 "c:\\program files (x86)\\cypress\\psoc creator\\4.4\\psoc creator\\import\\gnu\\arm\\5.4.
 552              		.file 4 "Generated_Source\\PSoC5/cytypes.h"
 553              		.file 5 "Generated_Source\\PSoC5/core_cm3.h"
 554              		.file 6 "c:\\program files (x86)\\cypress\\psoc creator\\4.4\\psoc creator\\import\\gnu\\arm\\5.4.
 555              		.file 7 "Generated_Source\\PSoC5/UART.h"
 556              		.file 8 "Generated_Source\\PSoC5/rxDMA_dma.h"
 557              		.file 9 "Generated_Source\\PSoC5/CYDMAC.H"
 558              		.file 10 "Generated_Source\\PSoC5/CyLib.h"
 559              		.file 11 "Generated_Source\\PSoC5/UART_RPi.h"
 560              		.file 12 "TB9051.h"
 561              		.file 13 "Generated_Source\\PSoC5/RXcmplt.h"