ARM GAS  C:\Users\JamesH\AppData\Local\Temp\ccmHVt7I.s 			page 1


   1              		.syntax unified
   2              		.cpu cortex-m3
   3              		.fpu softvfp
   4              		.eabi_attribute 20, 1
   5              		.eabi_attribute 21, 1
   6              		.eabi_attribute 23, 3
   7              		.eabi_attribute 24, 1
   8              		.eabi_attribute 25, 1
   9              		.eabi_attribute 26, 1
  10              		.eabi_attribute 30, 1
  11              		.eabi_attribute 34, 1
  12              		.eabi_attribute 18, 4
  13              		.thumb
  14              		.syntax unified
  15              		.file	"SBT0811.c"
  16              		.text
  17              	.Ltext0:
  18              		.cfi_sections	.debug_frame
  19              		.section	.text.oneStepCCW,"ax",%progbits
  20              		.align	2
  21              		.global	oneStepCCW
  22              		.thumb
  23              		.thumb_func
  24              		.type	oneStepCCW, %function
  25              	oneStepCCW:
  26              	.LFB64:
  27              		.file 1 "SBT0811.c"
   1:SBT0811.c     **** /* ========================================
   2:SBT0811.c     ****  *
   3:SBT0811.c     ****  * Copyright YOUR COMPANY, THE YEAR
   4:SBT0811.c     ****  * All Rights Reserved
   5:SBT0811.c     ****  * UNPUBLISHED, LICENSED SOFTWARE.
   6:SBT0811.c     ****  *
   7:SBT0811.c     ****  * CONFIDENTIAL AND PROPRIETARY INFORMATION
   8:SBT0811.c     ****  * WHICH IS THE PROPERTY OF your company.
   9:SBT0811.c     ****  *
  10:SBT0811.c     ****  * ========================================
  11:SBT0811.c     **** */
  12:SBT0811.c     **** #include "SBT0811.h"
  13:SBT0811.c     **** #include "stdio.h"
  14:SBT0811.c     **** #include <stdlib.h>
  15:SBT0811.c     **** #include "project.h"
  16:SBT0811.c     **** #include <math.h>
  17:SBT0811.c     **** 
  18:SBT0811.c     **** 
  19:SBT0811.c     **** void oneStepCCW(int speed) // One step in the counterclockwise direction, multiplex motor inputs.
  20:SBT0811.c     **** {
  28              		.loc 1 20 0
  29              		.cfi_startproc
  30              		@ args = 0, pretend = 0, frame = 0
  31              		@ frame_needed = 0, uses_anonymous_args = 0
  32              	.LVL0:
  33 0000 10B5     		push	{r4, lr}
  34              		.cfi_def_cfa_offset 8
  35              		.cfi_offset 4, -8
  36              		.cfi_offset 14, -4
  37 0002 0446     		mov	r4, r0
ARM GAS  C:\Users\JamesH\AppData\Local\Temp\ccmHVt7I.s 			page 2


  21:SBT0811.c     ****     StepperDriver_Write(0b1000); // TO-DO: Move this to interrupt based so that it isn't blocking.
  38              		.loc 1 21 0
  39 0004 0820     		movs	r0, #8
  40              	.LVL1:
  41 0006 FFF7FEFF 		bl	StepperDriver_Write
  42              	.LVL2:
  22:SBT0811.c     ****     CyDelay(speed);             
  43              		.loc 1 22 0
  44 000a 2046     		mov	r0, r4
  45 000c FFF7FEFF 		bl	CyDelay
  46              	.LVL3:
  23:SBT0811.c     ****     StepperDriver_Write(0b1100);
  47              		.loc 1 23 0
  48 0010 0C20     		movs	r0, #12
  49 0012 FFF7FEFF 		bl	StepperDriver_Write
  50              	.LVL4:
  24:SBT0811.c     ****     CyDelay(speed);
  51              		.loc 1 24 0
  52 0016 2046     		mov	r0, r4
  53 0018 FFF7FEFF 		bl	CyDelay
  54              	.LVL5:
  25:SBT0811.c     ****     StepperDriver_Write(0b0100);
  55              		.loc 1 25 0
  56 001c 0420     		movs	r0, #4
  57 001e FFF7FEFF 		bl	StepperDriver_Write
  58              	.LVL6:
  26:SBT0811.c     ****     CyDelay(speed);
  59              		.loc 1 26 0
  60 0022 2046     		mov	r0, r4
  61 0024 FFF7FEFF 		bl	CyDelay
  62              	.LVL7:
  27:SBT0811.c     ****     StepperDriver_Write(0b0110);
  63              		.loc 1 27 0
  64 0028 0620     		movs	r0, #6
  65 002a FFF7FEFF 		bl	StepperDriver_Write
  66              	.LVL8:
  28:SBT0811.c     ****     CyDelay(speed);
  67              		.loc 1 28 0
  68 002e 2046     		mov	r0, r4
  69 0030 FFF7FEFF 		bl	CyDelay
  70              	.LVL9:
  29:SBT0811.c     ****     StepperDriver_Write(0b0010);
  71              		.loc 1 29 0
  72 0034 0220     		movs	r0, #2
  73 0036 FFF7FEFF 		bl	StepperDriver_Write
  74              	.LVL10:
  30:SBT0811.c     ****     CyDelay(speed);
  75              		.loc 1 30 0
  76 003a 2046     		mov	r0, r4
  77 003c FFF7FEFF 		bl	CyDelay
  78              	.LVL11:
  31:SBT0811.c     ****     StepperDriver_Write(0b0011);
  79              		.loc 1 31 0
  80 0040 0320     		movs	r0, #3
  81 0042 FFF7FEFF 		bl	StepperDriver_Write
  82              	.LVL12:
  32:SBT0811.c     ****     CyDelay(speed);
ARM GAS  C:\Users\JamesH\AppData\Local\Temp\ccmHVt7I.s 			page 3


  83              		.loc 1 32 0
  84 0046 2046     		mov	r0, r4
  85 0048 FFF7FEFF 		bl	CyDelay
  86              	.LVL13:
  33:SBT0811.c     ****     StepperDriver_Write(0b0001);
  87              		.loc 1 33 0
  88 004c 0120     		movs	r0, #1
  89 004e FFF7FEFF 		bl	StepperDriver_Write
  90              	.LVL14:
  34:SBT0811.c     ****     CyDelay(speed);
  91              		.loc 1 34 0
  92 0052 2046     		mov	r0, r4
  93 0054 FFF7FEFF 		bl	CyDelay
  94              	.LVL15:
  35:SBT0811.c     ****     StepperDriver_Write(0b1001);
  95              		.loc 1 35 0
  96 0058 0920     		movs	r0, #9
  97 005a FFF7FEFF 		bl	StepperDriver_Write
  98              	.LVL16:
  36:SBT0811.c     ****     CyDelay(speed);
  99              		.loc 1 36 0
 100 005e 2046     		mov	r0, r4
 101 0060 FFF7FEFF 		bl	CyDelay
 102              	.LVL17:
 103 0064 10BD     		pop	{r4, pc}
 104              		.cfi_endproc
 105              	.LFE64:
 106              		.size	oneStepCCW, .-oneStepCCW
 107 0066 00BF     		.section	.text.oneStepCW,"ax",%progbits
 108              		.align	2
 109              		.global	oneStepCW
 110              		.thumb
 111              		.thumb_func
 112              		.type	oneStepCW, %function
 113              	oneStepCW:
 114              	.LFB65:
  37:SBT0811.c     **** }
  38:SBT0811.c     **** 
  39:SBT0811.c     **** void oneStepCW(int speed) // One step in the clockwise direction
  40:SBT0811.c     **** {
 115              		.loc 1 40 0
 116              		.cfi_startproc
 117              		@ args = 0, pretend = 0, frame = 0
 118              		@ frame_needed = 0, uses_anonymous_args = 0
 119              	.LVL18:
 120 0000 10B5     		push	{r4, lr}
 121              		.cfi_def_cfa_offset 8
 122              		.cfi_offset 4, -8
 123              		.cfi_offset 14, -4
 124 0002 0446     		mov	r4, r0
  41:SBT0811.c     ****     StepperDriver_Write(0b1001); // TO-DO: Move this to interrupt based so that it isn't blocking.
 125              		.loc 1 41 0
 126 0004 0920     		movs	r0, #9
 127              	.LVL19:
 128 0006 FFF7FEFF 		bl	StepperDriver_Write
 129              	.LVL20:
  42:SBT0811.c     ****     CyDelay(speed);
ARM GAS  C:\Users\JamesH\AppData\Local\Temp\ccmHVt7I.s 			page 4


 130              		.loc 1 42 0
 131 000a 2046     		mov	r0, r4
 132 000c FFF7FEFF 		bl	CyDelay
 133              	.LVL21:
  43:SBT0811.c     ****     StepperDriver_Write(0b0001);
 134              		.loc 1 43 0
 135 0010 0120     		movs	r0, #1
 136 0012 FFF7FEFF 		bl	StepperDriver_Write
 137              	.LVL22:
  44:SBT0811.c     ****     CyDelay(speed);
 138              		.loc 1 44 0
 139 0016 2046     		mov	r0, r4
 140 0018 FFF7FEFF 		bl	CyDelay
 141              	.LVL23:
  45:SBT0811.c     ****     StepperDriver_Write(0b0011);
 142              		.loc 1 45 0
 143 001c 0320     		movs	r0, #3
 144 001e FFF7FEFF 		bl	StepperDriver_Write
 145              	.LVL24:
  46:SBT0811.c     ****     CyDelay(speed);
 146              		.loc 1 46 0
 147 0022 2046     		mov	r0, r4
 148 0024 FFF7FEFF 		bl	CyDelay
 149              	.LVL25:
  47:SBT0811.c     ****     StepperDriver_Write(0b0010);
 150              		.loc 1 47 0
 151 0028 0220     		movs	r0, #2
 152 002a FFF7FEFF 		bl	StepperDriver_Write
 153              	.LVL26:
  48:SBT0811.c     ****     CyDelay(speed);
 154              		.loc 1 48 0
 155 002e 2046     		mov	r0, r4
 156 0030 FFF7FEFF 		bl	CyDelay
 157              	.LVL27:
  49:SBT0811.c     ****     StepperDriver_Write(0b0110);
 158              		.loc 1 49 0
 159 0034 0620     		movs	r0, #6
 160 0036 FFF7FEFF 		bl	StepperDriver_Write
 161              	.LVL28:
  50:SBT0811.c     ****     CyDelay(speed);
 162              		.loc 1 50 0
 163 003a 2046     		mov	r0, r4
 164 003c FFF7FEFF 		bl	CyDelay
 165              	.LVL29:
  51:SBT0811.c     ****     StepperDriver_Write(0b0100);
 166              		.loc 1 51 0
 167 0040 0420     		movs	r0, #4
 168 0042 FFF7FEFF 		bl	StepperDriver_Write
 169              	.LVL30:
  52:SBT0811.c     ****     CyDelay(speed);
 170              		.loc 1 52 0
 171 0046 2046     		mov	r0, r4
 172 0048 FFF7FEFF 		bl	CyDelay
 173              	.LVL31:
  53:SBT0811.c     ****     StepperDriver_Write(0b1100);
 174              		.loc 1 53 0
 175 004c 0C20     		movs	r0, #12
ARM GAS  C:\Users\JamesH\AppData\Local\Temp\ccmHVt7I.s 			page 5


 176 004e FFF7FEFF 		bl	StepperDriver_Write
 177              	.LVL32:
  54:SBT0811.c     ****     CyDelay(speed);
 178              		.loc 1 54 0
 179 0052 2046     		mov	r0, r4
 180 0054 FFF7FEFF 		bl	CyDelay
 181              	.LVL33:
  55:SBT0811.c     ****     StepperDriver_Write(0b1000);
 182              		.loc 1 55 0
 183 0058 0820     		movs	r0, #8
 184 005a FFF7FEFF 		bl	StepperDriver_Write
 185              	.LVL34:
  56:SBT0811.c     ****     CyDelay(speed);
 186              		.loc 1 56 0
 187 005e 2046     		mov	r0, r4
 188 0060 FFF7FEFF 		bl	CyDelay
 189              	.LVL35:
 190 0064 10BD     		pop	{r4, pc}
 191              		.cfi_endproc
 192              	.LFE65:
 193              		.size	oneStepCW, .-oneStepCW
 194              		.global	__aeabi_fmul
 195              		.global	__aeabi_fdiv
 196              		.global	__aeabi_f2iz
 197              		.global	__aeabi_i2f
 198              		.global	__aeabi_fsub
 199              		.global	__aeabi_f2d
 200 0066 00BF     		.section	.text.moveAngle,"ax",%progbits
 201              		.align	2
 202              		.global	moveAngle
 203              		.thumb
 204              		.thumb_func
 205              		.type	moveAngle, %function
 206              	moveAngle:
 207              	.LFB66:
  57:SBT0811.c     **** }
  58:SBT0811.c     **** 
  59:SBT0811.c     **** void moveAngle(float angle){ //angle taken in degrees
 208              		.loc 1 59 0
 209              		.cfi_startproc
 210              		@ args = 0, pretend = 0, frame = 40
 211              		@ frame_needed = 0, uses_anonymous_args = 0
 212              	.LVL36:
 213 0000 30B5     		push	{r4, r5, lr}
 214              		.cfi_def_cfa_offset 12
 215              		.cfi_offset 4, -12
 216              		.cfi_offset 5, -8
 217              		.cfi_offset 14, -4
 218 0002 8DB0     		sub	sp, sp, #52
 219              		.cfi_def_cfa_offset 64
  60:SBT0811.c     ****     float steps = angle * STEPS_PER_REV / 360;
 220              		.loc 1 60 0
 221 0004 4FF08841 		mov	r1, #1140850688
 222 0008 FFF7FEFF 		bl	__aeabi_fmul
 223              	.LVL37:
 224 000c 1149     		ldr	r1, .L9
 225 000e FFF7FEFF 		bl	__aeabi_fdiv
ARM GAS  C:\Users\JamesH\AppData\Local\Temp\ccmHVt7I.s 			page 6


 226              	.LVL38:
 227 0012 0446     		mov	r4, r0
 228              	.LVL39:
  61:SBT0811.c     ****     int stepsRound = (int)steps; //number of steps to turn that number of degrees
 229              		.loc 1 61 0
 230 0014 FFF7FEFF 		bl	__aeabi_f2iz
 231              	.LVL40:
 232 0018 0546     		mov	r5, r0
 233              	.LVL41:
  62:SBT0811.c     ****     char string[40];
  63:SBT0811.c     ****     sprintf(string, "steps = %d error = %f\n", stepsRound, (float)(steps-stepsRound));
 234              		.loc 1 63 0
 235 001a FFF7FEFF 		bl	__aeabi_i2f
 236              	.LVL42:
 237 001e 0146     		mov	r1, r0
 238 0020 2046     		mov	r0, r4
 239 0022 FFF7FEFF 		bl	__aeabi_fsub
 240              	.LVL43:
 241 0026 FFF7FEFF 		bl	__aeabi_f2d
 242              	.LVL44:
 243 002a CDE90001 		strd	r0, [sp]
 244 002e 2A46     		mov	r2, r5
 245 0030 0949     		ldr	r1, .L9+4
 246 0032 02A8     		add	r0, sp, #8
 247 0034 FFF7FEFF 		bl	sprintf
 248              	.LVL45:
  64:SBT0811.c     ****     UART_PutString(string);
 249              		.loc 1 64 0
 250 0038 02A8     		add	r0, sp, #8
 251 003a FFF7FEFF 		bl	UART_PutString
 252              	.LVL46:
 253              	.LBB2:
  65:SBT0811.c     ****     for (int i = 0; i < stepsRound; i++) {
 254              		.loc 1 65 0
 255 003e 0024     		movs	r4, #0
 256              	.LVL47:
 257 0040 03E0     		b	.L6
 258              	.LVL48:
 259              	.L7:
  66:SBT0811.c     ****         oneStepCW(3);
 260              		.loc 1 66 0 discriminator 3
 261 0042 0320     		movs	r0, #3
 262 0044 FFF7FEFF 		bl	oneStepCW
 263              	.LVL49:
  65:SBT0811.c     ****     for (int i = 0; i < stepsRound; i++) {
 264              		.loc 1 65 0 discriminator 3
 265 0048 0134     		adds	r4, r4, #1
 266              	.LVL50:
 267              	.L6:
  65:SBT0811.c     ****     for (int i = 0; i < stepsRound; i++) {
 268              		.loc 1 65 0 is_stmt 0 discriminator 1
 269 004a AC42     		cmp	r4, r5
 270 004c F9DB     		blt	.L7
 271              	.LBE2:
  67:SBT0811.c     ****     }
  68:SBT0811.c     **** }...
 272              		.loc 1 68 0 is_stmt 1
ARM GAS  C:\Users\JamesH\AppData\Local\Temp\ccmHVt7I.s 			page 7


 273 004e 0DB0     		add	sp, sp, #52
 274              		.cfi_def_cfa_offset 12
 275              		@ sp needed
 276 0050 30BD     		pop	{r4, r5, pc}
 277              	.LVL51:
 278              	.L10:
 279 0052 00BF     		.align	2
 280              	.L9:
 281 0054 0000B443 		.word	1135869952
 282 0058 00000000 		.word	.LC0
 283              		.cfi_endproc
 284              	.LFE66:
 285              		.size	moveAngle, .-moveAngle
 286              		.section	.rodata.str1.4,"aMS",%progbits,1
 287              		.align	2
 288              	.LC0:
 289 0000 73746570 		.ascii	"steps = %d error = %f\012\000"
 289      73203D20 
 289      25642065 
 289      72726F72 
 289      203D2025 
 290              		.text
 291              	.Letext0:
 292              		.file 2 "c:\\program files (x86)\\cypress\\psoc creator\\4.4\\psoc creator\\import\\gnu\\arm\\5.4.
 293              		.file 3 "c:\\program files (x86)\\cypress\\psoc creator\\4.4\\psoc creator\\import\\gnu\\arm\\5.4.
 294              		.file 4 "Generated_Source\\PSoC5/StepperDriver.h"
 295              		.file 5 "Generated_Source\\PSoC5/CyLib.h"
 296              		.file 6 "c:\\program files (x86)\\cypress\\psoc creator\\4.4\\psoc creator\\import\\gnu\\arm\\5.4.
 297              		.file 7 "Generated_Source\\PSoC5/UART.h"
 298              		.file 8 "Generated_Source\\PSoC5/core_cm3.h"