ARM GAS  C:\Users\JamesH\AppData\Local\Temp\ccSOo4bY.s 			page 1


   1              		.syntax unified
   2              		.cpu cortex-m3
   3              		.fpu softvfp
   4              		.eabi_attribute 20, 1
   5              		.eabi_attribute 21, 1
   6              		.eabi_attribute 23, 3
   7              		.eabi_attribute 24, 1
   8              		.eabi_attribute 25, 1
   9              		.eabi_attribute 26, 1
  10              		.eabi_attribute 30, 1
  11              		.eabi_attribute 34, 1
  12              		.eabi_attribute 18, 4
  13              		.thumb
  14              		.syntax unified
  15              		.file	"TB9051.c"
  16              		.text
  17              	.Ltext0:
  18              		.cfi_sections	.debug_frame
  19              		.global	__aeabi_i2f
  20              		.global	__aeabi_fdiv
  21              		.global	__aeabi_fadd
  22              		.global	__aeabi_f2d
  23              		.global	__aeabi_dmul
  24              		.global	__aeabi_ddiv
  25              		.global	__aeabi_d2f
  26              		.section	.text.QD_Read,"ax",%progbits
  27              		.align	2
  28              		.global	QD_Read
  29              		.thumb
  30              		.thumb_func
  31              		.type	QD_Read, %function
  32              	QD_Read:
  33              	.LFB71:
  34              		.file 1 "TB9051.c"
   1:TB9051.c      **** /* ========================================
   2:TB9051.c      ****  *
   3:TB9051.c      ****  * Copyright YOUR COMPANY, THE YEAR
   4:TB9051.c      ****  * All Rights Reserved
   5:TB9051.c      ****  * UNPUBLISHED, LICENSED SOFTWARE.
   6:TB9051.c      ****  *
   7:TB9051.c      ****  * CONFIDENTIAL AND PROPRIETARY INFORMATION
   8:TB9051.c      ****  * WHICH IS THE PROPERTY OF your company.
   9:TB9051.c      ****  *
  10:TB9051.c      ****  * ========================================
  11:TB9051.c      **** */
  12:TB9051.c      **** #include "TB9051.h"
  13:TB9051.c      **** #include "project.h"
  14:TB9051.c      **** #define PI 3.141529
  15:TB9051.c      **** 
  16:TB9051.c      **** CY_ISR(QD_Read);
  17:TB9051.c      **** unsigned int QD1_Old = 0;
  18:TB9051.c      **** unsigned int QD2_Old = 0;
  19:TB9051.c      **** float d = 0.19; //distance between two wheels
  20:TB9051.c      **** float r_wheel = 0.028; // radien of wheels
  21:TB9051.c      **** float theta = 360/48.0f;
  22:TB9051.c      **** 
  23:TB9051.c      **** void TB9051_Begin()
ARM GAS  C:\Users\JamesH\AppData\Local\Temp\ccSOo4bY.s 			page 2


  24:TB9051.c      **** {
  25:TB9051.c      ****     QuadPWM_Init();
  26:TB9051.c      ****     for (int i = 1; i <= 4; i++){ 
  27:TB9051.c      ****         QuadPWM_SetDutyCycle(i,0);
  28:TB9051.c      ****     }
  29:TB9051.c      ****     TB9051_EN_Write(0x2); // EN high ENB low
  30:TB9051.c      ****     
  31:TB9051.c      ****     //Enable Quad Dec. 
  32:TB9051.c      ****     TB9051_QD1_Start();
  33:TB9051.c      ****     TB9051_QD2_Start();
  34:TB9051.c      ****     QD1_Timer_Start();
  35:TB9051.c      ****     QD1_ISR_Start();
  36:TB9051.c      ****     QD1_ISR_ClearPending();
  37:TB9051.c      ****     QD1_ISR_StartEx(QD_Read);
  38:TB9051.c      ****     
  39:TB9051.c      **** }
  40:TB9051.c      **** 
  41:TB9051.c      **** void TB9051_VehForward(int speed) {
  42:TB9051.c      ****     TB9051_Forward(0,speed);
  43:TB9051.c      ****     TB9051_Forward(1,speed);
  44:TB9051.c      **** }
  45:TB9051.c      **** 
  46:TB9051.c      **** void TB9051_VehReverse(int speed) {
  47:TB9051.c      ****     TB9051_Reverse(0,speed);
  48:TB9051.c      ****     TB9051_Reverse(1,speed);
  49:TB9051.c      **** }
  50:TB9051.c      **** 
  51:TB9051.c      **** void TB9051_VehBrake() {
  52:TB9051.c      ****     TB9051_Brake(0);
  53:TB9051.c      ****     TB9051_Brake(1);
  54:TB9051.c      **** }
  55:TB9051.c      **** 
  56:TB9051.c      **** void TB9051_Forward(int motor, int speed)
  57:TB9051.c      **** { 
  58:TB9051.c      ****     TB9051_Brake(motor);
  59:TB9051.c      ****     if (speed >= QuadPWM_MIN_DUTY_CYCLE & speed <= QuadPWM_MAX_DUTY_CYCLE) {
  60:TB9051.c      ****     //PWM1 H, PWM2 L
  61:TB9051.c      ****     if (motor == 0) {
  62:TB9051.c      ****         QuadPWM_SetDutyCycle(1,speed);
  63:TB9051.c      ****         QuadPWM_SetDutyCycle(2,0);
  64:TB9051.c      ****     }
  65:TB9051.c      ****     else {
  66:TB9051.c      ****         QuadPWM_SetDutyCycle(3,speed);
  67:TB9051.c      ****         QuadPWM_SetDutyCycle(4,0);       
  68:TB9051.c      ****     }
  69:TB9051.c      ****     }
  70:TB9051.c      **** }
  71:TB9051.c      **** 
  72:TB9051.c      **** void TB9051_Reverse(int motor, int speed)
  73:TB9051.c      **** { 
  74:TB9051.c      ****     TB9051_Brake(motor);
  75:TB9051.c      ****     if (speed >= QuadPWM_MIN_DUTY_CYCLE & speed <= QuadPWM_MAX_DUTY_CYCLE) {
  76:TB9051.c      ****         //PWM1 L, PWM2 H
  77:TB9051.c      ****         if (motor == 0) {
  78:TB9051.c      ****             QuadPWM_SetDutyCycle(1,0);
  79:TB9051.c      ****             QuadPWM_SetDutyCycle(2,speed);
  80:TB9051.c      ****         }
ARM GAS  C:\Users\JamesH\AppData\Local\Temp\ccSOo4bY.s 			page 3


  81:TB9051.c      ****         else {
  82:TB9051.c      ****             QuadPWM_SetDutyCycle(3,0);
  83:TB9051.c      ****             QuadPWM_SetDutyCycle(4,speed);       
  84:TB9051.c      ****         }
  85:TB9051.c      ****     }
  86:TB9051.c      **** }
  87:TB9051.c      **** 
  88:TB9051.c      **** void TB9051_Brake(int motor)
  89:TB9051.c      **** { // To avoid damaging motors, a brake is applied between forward and reverse movements
  90:TB9051.c      ****     if (motor == 0) { // Motor 0
  91:TB9051.c      ****         if (QuadPWM_REG_D0 != 255 & QuadPWM_REG_D1 == 255){ // motor is moving forward
  92:TB9051.c      ****             QuadPWM_SetDutyCycle(1,0);
  93:TB9051.c      ****             QuadPWM_SetDutyCycle(2,0);
  94:TB9051.c      ****         }
  95:TB9051.c      ****         else if (QuadPWM_REG_D0 == 255 & QuadPWM_REG_D1 != 255) // motor is moving backward
  96:TB9051.c      ****         {
  97:TB9051.c      ****             QuadPWM_SetDutyCycle(1,25);
  98:TB9051.c      ****             QuadPWM_SetDutyCycle(2,25);
  99:TB9051.c      ****         }
 100:TB9051.c      ****     }
 101:TB9051.c      ****     else // Motor 1
 102:TB9051.c      ****     {
 103:TB9051.c      ****         if (QuadPWM_REG_F0 != 255 & QuadPWM_REG_F1 == 255){ // motor is moving forward
 104:TB9051.c      ****             QuadPWM_SetDutyCycle(3,0);
 105:TB9051.c      ****             QuadPWM_SetDutyCycle(4,0);
 106:TB9051.c      ****         }
 107:TB9051.c      ****         else if (QuadPWM_REG_F0 == 255 & QuadPWM_REG_F1 != 255) // motor is moving backward
 108:TB9051.c      ****         {
 109:TB9051.c      ****             QuadPWM_SetDutyCycle(3,25);
 110:TB9051.c      ****             QuadPWM_SetDutyCycle(4,25);
 111:TB9051.c      ****         }
 112:TB9051.c      ****     }    
 113:TB9051.c      ****     // TO-DO: ADD non-blocking delay here so that the short brake is applied for a suitable period 
 114:TB9051.c      ****     CyDelay(100);
 115:TB9051.c      **** }
 116:TB9051.c      **** 
 117:TB9051.c      **** void TB9051_VehMoveTo(float x, float y){
 118:TB9051.c      ****     ///// JINGWEI NAVIGATION /////
 119:TB9051.c      ****     // float r,d，v,w;
 120:TB9051.c      ****     // int ticks_per_rev, ticks_l, ticks_r;
 121:TB9051.c      ****     // float S_l = 2*PI*r*ticks_l/ticks_per_rev;
 122:TB9051.c      ****     // float S_r = 2*PI*r*ticks_r/ticks_per_rev;
 123:TB9051.c      **** 
 124:TB9051.c      ****     // float fai = (S_r - S_l)/d;
 125:TB9051.c      **** 
 126:TB9051.c      ****     
 127:TB9051.c      ****     float t = 2; // time to reach the destination
 128:TB9051.c      ****     //float a[2] = {0, 0},b[2] = {x, y}; //oringinal opint and destination point
 129:TB9051.c      ****     float theta = atan(y/x);
 130:TB9051.c      ****     float r = (pow(x,2)+pow(y,2))/(2*sqrt((pow(x,2)+pow(y,2)))*cos(theta)); //radien of mid point
 131:TB9051.c      ****     float r_right = r - d/2;
 132:TB9051.c      ****     float r_left = r + d/2;
 133:TB9051.c      ****     float v_right = theta*2*PI*r_right/(360*theta); // linear speed of right wheel
 134:TB9051.c      ****     float v_left = theta*2*PI*r_left/(360*theta); // linear speed of left wheel
 135:TB9051.c      ****     float w_r = v_right/r_wheel; // angular speed of right wheel
 136:TB9051.c      ****     float w_l = v_left/r_wheel; // angular speed of left wheel
 137:TB9051.c      ****     float vRel_left = round(v_left * 255);    // REPLACE THESE
ARM GAS  C:\Users\JamesH\AppData\Local\Temp\ccSOo4bY.s 			page 4


 138:TB9051.c      ****     float vRel_right = round(v_right * 255);
 139:TB9051.c      ****     char string[20]; sprintf(string, "R: %f. L: %f \n", vRel_right, vRel_left); UART_PutString(stri
 140:TB9051.c      ****     
 141:TB9051.c      ****     TB9051_Forward(0, vRel_right);
 142:TB9051.c      ****     TB9051_Forward(1, vRel_left);
 143:TB9051.c      **** }
 144:TB9051.c      **** 
 145:TB9051.c      **** CY_ISR(QD_Read)
 146:TB9051.c      **** {
  35              		.loc 1 146 0
  36              		.cfi_startproc
  37              		@ args = 0, pretend = 0, frame = 16
  38              		@ frame_needed = 0, uses_anonymous_args = 0
  39 0000 2DE9F04F 		push	{r4, r5, r6, r7, r8, r9, r10, fp, lr}
  40              		.cfi_def_cfa_offset 36
  41              		.cfi_offset 4, -36
  42              		.cfi_offset 5, -32
  43              		.cfi_offset 6, -28
  44              		.cfi_offset 7, -24
  45              		.cfi_offset 8, -20
  46              		.cfi_offset 9, -16
  47              		.cfi_offset 10, -12
  48              		.cfi_offset 11, -8
  49              		.cfi_offset 14, -4
  50 0004 85B0     		sub	sp, sp, #20
  51              		.cfi_def_cfa_offset 56
 147:TB9051.c      ****     // Get new positions
 148:TB9051.c      ****     int QD1_New = TB9051_QD1_GetCounter();
  52              		.loc 1 148 0
  53 0006 FFF7FEFF 		bl	TB9051_QD1_GetCounter
  54              	.LVL0:
  55 000a 8246     		mov	r10, r0
  56              	.LVL1:
 149:TB9051.c      ****     int QD2_New = TB9051_QD2_GetCounter();
  57              		.loc 1 149 0
  58 000c FFF7FEFF 		bl	TB9051_QD2_GetCounter
  59              	.LVL2:
  60 0010 0546     		mov	r5, r0
  61              	.LVL3:
 150:TB9051.c      ****     
 151:TB9051.c      ****     int QD1_Delta = QD1_New - QD1_Old; 
  62              		.loc 1 151 0
  63 0012 454C     		ldr	r4, .L3+16
  64 0014 2068     		ldr	r0, [r4]
  65              	.LVL4:
 152:TB9051.c      ****     int QD2_Delta = QD2_New - QD2_Old; 
  66              		.loc 1 152 0
  67 0016 6668     		ldr	r6, [r4, #4]
  68 0018 AE1B     		subs	r6, r5, r6
  69              	.LVL5:
 153:TB9051.c      ****     float QD1_Ratio = QD1_Delta / 34.014f;
  70              		.loc 1 153 0
  71 001a C0EB0A00 		rsb	r0, r0, r10
  72              	.LVL6:
  73 001e FFF7FEFF 		bl	__aeabi_i2f
  74              	.LVL7:
  75 0022 4249     		ldr	r1, .L3+20
ARM GAS  C:\Users\JamesH\AppData\Local\Temp\ccSOo4bY.s 			page 5


  76 0024 FFF7FEFF 		bl	__aeabi_fdiv
  77              	.LVL8:
  78 0028 0746     		mov	r7, r0
  79              	.LVL9:
 154:TB9051.c      ****     float QD2_Ratio = QD2_Delta / 34.014f;
  80              		.loc 1 154 0
  81 002a 3046     		mov	r0, r6
  82              	.LVL10:
  83 002c FFF7FEFF 		bl	__aeabi_i2f
  84              	.LVL11:
  85 0030 3E49     		ldr	r1, .L3+20
  86 0032 FFF7FEFF 		bl	__aeabi_fdiv
  87              	.LVL12:
  88 0036 8346     		mov	fp, r0
  89              	.LVL13:
 155:TB9051.c      ****     float w1_Pos = QD1_Ratio * 2 * PI * r_wheel * theta / 360;
  90              		.loc 1 155 0
  91 0038 3946     		mov	r1, r7
  92 003a 3846     		mov	r0, r7
  93              	.LVL14:
  94 003c FFF7FEFF 		bl	__aeabi_fadd
  95              	.LVL15:
  96 0040 FFF7FEFF 		bl	__aeabi_f2d
  97              	.LVL16:
  98 0044 34A3     		adr	r3, .L3
  99 0046 D3E90023 		ldrd	r2, [r3]
 100 004a FFF7FEFF 		bl	__aeabi_dmul
 101              	.LVL17:
 102 004e CDE90001 		strd	r0, [sp]
 103 0052 374E     		ldr	r6, .L3+24
 104              	.LVL18:
 105 0054 3068     		ldr	r0, [r6]	@ float
 106 0056 FFF7FEFF 		bl	__aeabi_f2d
 107              	.LVL19:
 108 005a 8046     		mov	r8, r0
 109 005c 8946     		mov	r9, r1
 110 005e 0246     		mov	r2, r0
 111 0060 0B46     		mov	r3, r1
 112 0062 DDE90001 		ldrd	r0, [sp]
 113 0066 FFF7FEFF 		bl	__aeabi_dmul
 114              	.LVL20:
 115 006a CDE90001 		strd	r0, [sp]
 116 006e 7068     		ldr	r0, [r6, #4]	@ float
 117 0070 FFF7FEFF 		bl	__aeabi_f2d
 118              	.LVL21:
 119 0074 0646     		mov	r6, r0
 120 0076 0F46     		mov	r7, r1
 121              	.LVL22:
 122 0078 0246     		mov	r2, r0
 123 007a 0B46     		mov	r3, r1
 124 007c DDE90001 		ldrd	r0, [sp]
 125 0080 FFF7FEFF 		bl	__aeabi_dmul
 126              	.LVL23:
 127 0084 0022     		movs	r2, #0
 128 0086 2B4B     		ldr	r3, .L3+28
 129 0088 FFF7FEFF 		bl	__aeabi_ddiv
 130              	.LVL24:
ARM GAS  C:\Users\JamesH\AppData\Local\Temp\ccSOo4bY.s 			page 6


 131 008c FFF7FEFF 		bl	__aeabi_d2f
 132              	.LVL25:
 133 0090 0090     		str	r0, [sp]	@ float
 134              	.LVL26:
 156:TB9051.c      ****     float w2_Pos = QD2_Ratio * 2 * PI * r_wheel * theta / 360;
 135              		.loc 1 156 0
 136 0092 5946     		mov	r1, fp
 137 0094 5846     		mov	r0, fp
 138              	.LVL27:
 139 0096 FFF7FEFF 		bl	__aeabi_fadd
 140              	.LVL28:
 141 009a FFF7FEFF 		bl	__aeabi_f2d
 142              	.LVL29:
 143 009e 1EA3     		adr	r3, .L3
 144 00a0 D3E90023 		ldrd	r2, [r3]
 145 00a4 FFF7FEFF 		bl	__aeabi_dmul
 146              	.LVL30:
 147 00a8 0246     		mov	r2, r0
 148 00aa 0B46     		mov	r3, r1
 149 00ac 4046     		mov	r0, r8
 150 00ae 4946     		mov	r1, r9
 151 00b0 FFF7FEFF 		bl	__aeabi_dmul
 152              	.LVL31:
 153 00b4 0246     		mov	r2, r0
 154 00b6 0B46     		mov	r3, r1
 155 00b8 3046     		mov	r0, r6
 156 00ba 3946     		mov	r1, r7
 157 00bc FFF7FEFF 		bl	__aeabi_dmul
 158              	.LVL32:
 159 00c0 0022     		movs	r2, #0
 160 00c2 1C4B     		ldr	r3, .L3+28
 161 00c4 FFF7FEFF 		bl	__aeabi_ddiv
 162              	.LVL33:
 163 00c8 FFF7FEFF 		bl	__aeabi_d2f
 164              	.LVL34:
 165 00cc 0646     		mov	r6, r0
 166              	.LVL35:
 157:TB9051.c      ****     float w1_Vel = w1_Pos / 0.020;
 167              		.loc 1 157 0
 168 00ce 0098     		ldr	r0, [sp]	@ float
 169              	.LVL36:
 170 00d0 FFF7FEFF 		bl	__aeabi_f2d
 171              	.LVL37:
 172 00d4 12A3     		adr	r3, .L3+8
 173 00d6 D3E90023 		ldrd	r2, [r3]
 174 00da FFF7FEFF 		bl	__aeabi_ddiv
 175              	.LVL38:
 176 00de FFF7FEFF 		bl	__aeabi_d2f
 177              	.LVL39:
 178 00e2 0390     		str	r0, [sp, #12]	@ float
 158:TB9051.c      ****     float w2_Vel = w2_Pos / 0.020;
 179              		.loc 1 158 0
 180 00e4 3046     		mov	r0, r6
 181 00e6 FFF7FEFF 		bl	__aeabi_f2d
 182              	.LVL40:
 183 00ea 0DA3     		adr	r3, .L3+8
 184 00ec D3E90023 		ldrd	r2, [r3]
ARM GAS  C:\Users\JamesH\AppData\Local\Temp\ccSOo4bY.s 			page 7


 185 00f0 FFF7FEFF 		bl	__aeabi_ddiv
 186              	.LVL41:
 187 00f4 FFF7FEFF 		bl	__aeabi_d2f
 188              	.LVL42:
 189 00f8 04AA     		add	r2, sp, #16
 190 00fa 42F8080D 		str	r0, [r2, #-8]!	@ float
 159:TB9051.c      ****     
 160:TB9051.c      ****     //char string[20]; sprintf(string, "W1: %0.3f W2: %0.3f\n", w1_Vel, w2_Vel); UART_PutString(str
 161:TB9051.c      ****     fnSend(10, &w1_Vel, &w2_Vel);
 191              		.loc 1 161 0
 192 00fe 03A9     		add	r1, sp, #12
 193 0100 0A20     		movs	r0, #10
 194 0102 FFF7FEFF 		bl	fnSend
 195              	.LVL43:
 162:TB9051.c      ****     //int QD1_Theta = 0;
 163:TB9051.c      ****     //int QD2_Theta = 0;
 164:TB9051.c      ****     
 165:TB9051.c      ****     //float velocity = 2*PI*r_wheel*
 166:TB9051.c      ****     
 167:TB9051.c      ****     // Keep old positions
 168:TB9051.c      ****     QD1_Old = QD1_New;
 196              		.loc 1 168 0
 197 0106 C4F800A0 		str	r10, [r4]
 169:TB9051.c      ****     QD2_Old = QD2_New;
 198              		.loc 1 169 0
 199 010a 6560     		str	r5, [r4, #4]
 170:TB9051.c      **** }
 200              		.loc 1 170 0
 201 010c 05B0     		add	sp, sp, #20
 202              		.cfi_def_cfa_offset 36
 203              	.LVL44:
 204              		@ sp needed
 205 010e BDE8F08F 		pop	{r4, r5, r6, r7, r8, r9, r10, fp, pc}
 206              	.LVL45:
 207              	.L4:
 208 0112 00BFAFF3 		.align	3
 208      0080
 209              	.L3:
 210 0118 137CD3F4 		.word	-187466733
 211 011c D9210940 		.word	1074340313
 212 0120 7B14AE47 		.word	1202590843
 213 0124 E17A943F 		.word	1066695393
 214 0128 00000000 		.word	.LANCHOR0
 215 012c 560E0842 		.word	1107824214
 216 0130 00000000 		.word	.LANCHOR1
 217 0134 00807640 		.word	1081507840
 218              		.cfi_endproc
 219              	.LFE71:
 220              		.size	QD_Read, .-QD_Read
 221              		.section	.text.TB9051_Begin,"ax",%progbits
 222              		.align	2
 223              		.global	TB9051_Begin
 224              		.thumb
 225              		.thumb_func
 226              		.type	TB9051_Begin, %function
 227              	TB9051_Begin:
 228              	.LFB63:
ARM GAS  C:\Users\JamesH\AppData\Local\Temp\ccSOo4bY.s 			page 8


  24:TB9051.c      ****     QuadPWM_Init();
 229              		.loc 1 24 0
 230              		.cfi_startproc
 231              		@ args = 0, pretend = 0, frame = 0
 232              		@ frame_needed = 0, uses_anonymous_args = 0
 233 0000 10B5     		push	{r4, lr}
 234              		.cfi_def_cfa_offset 8
 235              		.cfi_offset 4, -8
 236              		.cfi_offset 14, -4
  25:TB9051.c      ****     for (int i = 1; i <= 4; i++){ 
 237              		.loc 1 25 0
 238 0002 FFF7FEFF 		bl	QuadPWM_Init
 239              	.LVL46:
 240              	.LBB2:
  26:TB9051.c      ****         QuadPWM_SetDutyCycle(i,0);
 241              		.loc 1 26 0
 242 0006 0124     		movs	r4, #1
 243 0008 04E0     		b	.L6
 244              	.LVL47:
 245              	.L7:
  27:TB9051.c      ****     }
 246              		.loc 1 27 0 discriminator 3
 247 000a 0021     		movs	r1, #0
 248 000c 2046     		mov	r0, r4
 249 000e FFF7FEFF 		bl	QuadPWM_SetDutyCycle
 250              	.LVL48:
  26:TB9051.c      ****         QuadPWM_SetDutyCycle(i,0);
 251              		.loc 1 26 0 discriminator 3
 252 0012 0134     		adds	r4, r4, #1
 253              	.LVL49:
 254              	.L6:
  26:TB9051.c      ****         QuadPWM_SetDutyCycle(i,0);
 255              		.loc 1 26 0 is_stmt 0 discriminator 1
 256 0014 042C     		cmp	r4, #4
 257 0016 F8DD     		ble	.L7
 258              	.LBE2:
  29:TB9051.c      ****     
 259              		.loc 1 29 0 is_stmt 1
 260 0018 0220     		movs	r0, #2
 261 001a FFF7FEFF 		bl	TB9051_EN_Write
 262              	.LVL50:
  32:TB9051.c      ****     TB9051_QD2_Start();
 263              		.loc 1 32 0
 264 001e FFF7FEFF 		bl	TB9051_QD1_Start
 265              	.LVL51:
  33:TB9051.c      ****     QD1_Timer_Start();
 266              		.loc 1 33 0
 267 0022 FFF7FEFF 		bl	TB9051_QD2_Start
 268              	.LVL52:
  34:TB9051.c      ****     QD1_ISR_Start();
 269              		.loc 1 34 0
 270 0026 FFF7FEFF 		bl	QD1_Timer_Start
 271              	.LVL53:
  35:TB9051.c      ****     QD1_ISR_ClearPending();
 272              		.loc 1 35 0
 273 002a FFF7FEFF 		bl	QD1_ISR_Start
 274              	.LVL54:
ARM GAS  C:\Users\JamesH\AppData\Local\Temp\ccSOo4bY.s 			page 9


  36:TB9051.c      ****     QD1_ISR_StartEx(QD_Read);
 275              		.loc 1 36 0
 276 002e FFF7FEFF 		bl	QD1_ISR_ClearPending
 277              	.LVL55:
  37:TB9051.c      ****     
 278              		.loc 1 37 0
 279 0032 0248     		ldr	r0, .L9
 280 0034 FFF7FEFF 		bl	QD1_ISR_StartEx
 281              	.LVL56:
 282 0038 10BD     		pop	{r4, pc}
 283              	.LVL57:
 284              	.L10:
 285 003a 00BF     		.align	2
 286              	.L9:
 287 003c 00000000 		.word	QD_Read
 288              		.cfi_endproc
 289              	.LFE63:
 290              		.size	TB9051_Begin, .-TB9051_Begin
 291              		.section	.text.TB9051_Brake,"ax",%progbits
 292              		.align	2
 293              		.global	TB9051_Brake
 294              		.thumb
 295              		.thumb_func
 296              		.type	TB9051_Brake, %function
 297              	TB9051_Brake:
 298              	.LFB69:
  89:TB9051.c      ****     if (motor == 0) { // Motor 0
 299              		.loc 1 89 0
 300              		.cfi_startproc
 301              		@ args = 0, pretend = 0, frame = 0
 302              		@ frame_needed = 0, uses_anonymous_args = 0
 303              	.LVL58:
 304 0000 08B5     		push	{r3, lr}
 305              		.cfi_def_cfa_offset 8
 306              		.cfi_offset 3, -8
 307              		.cfi_offset 14, -4
  90:TB9051.c      ****         if (QuadPWM_REG_D0 != 255 & QuadPWM_REG_D1 == 255){ // motor is moving forward
 308              		.loc 1 90 0
 309 0002 0028     		cmp	r0, #0
 310 0004 2DD1     		bne	.L12
  91:TB9051.c      ****             QuadPWM_SetDutyCycle(1,0);
 311              		.loc 1 91 0
 312 0006 2F4B     		ldr	r3, .L17
 313 0008 1B78     		ldrb	r3, [r3]	@ zero_extendqisi2
 314 000a DBB2     		uxtb	r3, r3
 315 000c 2E4A     		ldr	r2, .L17+4
 316 000e 1278     		ldrb	r2, [r2]	@ zero_extendqisi2
 317 0010 D2B2     		uxtb	r2, r2
 318 0012 FF3B     		subs	r3, r3, #255
 319 0014 18BF     		it	ne
 320 0016 0123     		movne	r3, #1
 321 0018 FF2A     		cmp	r2, #255
 322 001a 18BF     		it	ne
 323 001c 0023     		movne	r3, #0
 324 001e 43B1     		cbz	r3, .L13
  92:TB9051.c      ****             QuadPWM_SetDutyCycle(2,0);
 325              		.loc 1 92 0
ARM GAS  C:\Users\JamesH\AppData\Local\Temp\ccSOo4bY.s 			page 10


 326 0020 0021     		movs	r1, #0
 327 0022 0120     		movs	r0, #1
 328              	.LVL59:
 329 0024 FFF7FEFF 		bl	QuadPWM_SetDutyCycle
 330              	.LVL60:
  93:TB9051.c      ****         }
 331              		.loc 1 93 0
 332 0028 0021     		movs	r1, #0
 333 002a 0220     		movs	r0, #2
 334 002c FFF7FEFF 		bl	QuadPWM_SetDutyCycle
 335              	.LVL61:
 336 0030 43E0     		b	.L14
 337              	.LVL62:
 338              	.L13:
  95:TB9051.c      ****         {
 339              		.loc 1 95 0
 340 0032 244B     		ldr	r3, .L17
 341 0034 1B78     		ldrb	r3, [r3]	@ zero_extendqisi2
 342 0036 DBB2     		uxtb	r3, r3
 343 0038 234A     		ldr	r2, .L17+4
 344 003a 1278     		ldrb	r2, [r2]	@ zero_extendqisi2
 345 003c D2B2     		uxtb	r2, r2
 346 003e FF2B     		cmp	r3, #255
 347 0040 14BF     		ite	ne
 348 0042 0023     		movne	r3, #0
 349 0044 0123     		moveq	r3, #1
 350 0046 FF2A     		cmp	r2, #255
 351 0048 08BF     		it	eq
 352 004a 0023     		moveq	r3, #0
 353 004c 002B     		cmp	r3, #0
 354 004e 34D0     		beq	.L14
  97:TB9051.c      ****             QuadPWM_SetDutyCycle(2,25);
 355              		.loc 1 97 0
 356 0050 1921     		movs	r1, #25
 357 0052 0120     		movs	r0, #1
 358              	.LVL63:
 359 0054 FFF7FEFF 		bl	QuadPWM_SetDutyCycle
 360              	.LVL64:
  98:TB9051.c      ****         }
 361              		.loc 1 98 0
 362 0058 1921     		movs	r1, #25
 363 005a 0220     		movs	r0, #2
 364 005c FFF7FEFF 		bl	QuadPWM_SetDutyCycle
 365              	.LVL65:
 366 0060 2BE0     		b	.L14
 367              	.LVL66:
 368              	.L12:
 103:TB9051.c      ****             QuadPWM_SetDutyCycle(3,0);
 369              		.loc 1 103 0
 370 0062 1A4B     		ldr	r3, .L17+8
 371 0064 1B78     		ldrb	r3, [r3]	@ zero_extendqisi2
 372 0066 DBB2     		uxtb	r3, r3
 373 0068 194A     		ldr	r2, .L17+12
 374 006a 1278     		ldrb	r2, [r2]	@ zero_extendqisi2
 375 006c D2B2     		uxtb	r2, r2
 376 006e FF3B     		subs	r3, r3, #255
 377 0070 18BF     		it	ne
ARM GAS  C:\Users\JamesH\AppData\Local\Temp\ccSOo4bY.s 			page 11


 378 0072 0123     		movne	r3, #1
 379 0074 FF2A     		cmp	r2, #255
 380 0076 18BF     		it	ne
 381 0078 0023     		movne	r3, #0
 382 007a 43B1     		cbz	r3, .L15
 104:TB9051.c      ****             QuadPWM_SetDutyCycle(4,0);
 383              		.loc 1 104 0
 384 007c 0021     		movs	r1, #0
 385 007e 0320     		movs	r0, #3
 386              	.LVL67:
 387 0080 FFF7FEFF 		bl	QuadPWM_SetDutyCycle
 388              	.LVL68:
 105:TB9051.c      ****         }
 389              		.loc 1 105 0
 390 0084 0021     		movs	r1, #0
 391 0086 0420     		movs	r0, #4
 392 0088 FFF7FEFF 		bl	QuadPWM_SetDutyCycle
 393              	.LVL69:
 394 008c 15E0     		b	.L14
 395              	.LVL70:
 396              	.L15:
 107:TB9051.c      ****         {
 397              		.loc 1 107 0
 398 008e 0F4B     		ldr	r3, .L17+8
 399 0090 1B78     		ldrb	r3, [r3]	@ zero_extendqisi2
 400 0092 DBB2     		uxtb	r3, r3
 401 0094 0E4A     		ldr	r2, .L17+12
 402 0096 1278     		ldrb	r2, [r2]	@ zero_extendqisi2
 403 0098 D2B2     		uxtb	r2, r2
 404 009a FF2B     		cmp	r3, #255
 405 009c 14BF     		ite	ne
 406 009e 0023     		movne	r3, #0
 407 00a0 0123     		moveq	r3, #1
 408 00a2 FF2A     		cmp	r2, #255
 409 00a4 08BF     		it	eq
 410 00a6 0023     		moveq	r3, #0
 411 00a8 3BB1     		cbz	r3, .L14
 109:TB9051.c      ****             QuadPWM_SetDutyCycle(4,25);
 412              		.loc 1 109 0
 413 00aa 1921     		movs	r1, #25
 414 00ac 0320     		movs	r0, #3
 415              	.LVL71:
 416 00ae FFF7FEFF 		bl	QuadPWM_SetDutyCycle
 417              	.LVL72:
 110:TB9051.c      ****         }
 418              		.loc 1 110 0
 419 00b2 1921     		movs	r1, #25
 420 00b4 0420     		movs	r0, #4
 421 00b6 FFF7FEFF 		bl	QuadPWM_SetDutyCycle
 422              	.LVL73:
 423              	.L14:
 114:TB9051.c      **** }
 424              		.loc 1 114 0
 425 00ba 6420     		movs	r0, #100
 426 00bc FFF7FEFF 		bl	CyDelay
 427              	.LVL74:
 428 00c0 08BD     		pop	{r3, pc}
ARM GAS  C:\Users\JamesH\AppData\Local\Temp\ccSOo4bY.s 			page 12


 429              	.L18:
 430 00c2 00BF     		.align	2
 431              	.L17:
 432 00c4 2A640040 		.word	1073767466
 433 00c8 3A640040 		.word	1073767482
 434 00cc 4A640040 		.word	1073767498
 435 00d0 5A640040 		.word	1073767514
 436              		.cfi_endproc
 437              	.LFE69:
 438              		.size	TB9051_Brake, .-TB9051_Brake
 439              		.section	.text.TB9051_VehBrake,"ax",%progbits
 440              		.align	2
 441              		.global	TB9051_VehBrake
 442              		.thumb
 443              		.thumb_func
 444              		.type	TB9051_VehBrake, %function
 445              	TB9051_VehBrake:
 446              	.LFB66:
  51:TB9051.c      ****     TB9051_Brake(0);
 447              		.loc 1 51 0
 448              		.cfi_startproc
 449              		@ args = 0, pretend = 0, frame = 0
 450              		@ frame_needed = 0, uses_anonymous_args = 0
 451 0000 08B5     		push	{r3, lr}
 452              		.cfi_def_cfa_offset 8
 453              		.cfi_offset 3, -8
 454              		.cfi_offset 14, -4
  52:TB9051.c      ****     TB9051_Brake(1);
 455              		.loc 1 52 0
 456 0002 0020     		movs	r0, #0
 457 0004 FFF7FEFF 		bl	TB9051_Brake
 458              	.LVL75:
  53:TB9051.c      **** }
 459              		.loc 1 53 0
 460 0008 0120     		movs	r0, #1
 461 000a FFF7FEFF 		bl	TB9051_Brake
 462              	.LVL76:
 463 000e 08BD     		pop	{r3, pc}
 464              		.cfi_endproc
 465              	.LFE66:
 466              		.size	TB9051_VehBrake, .-TB9051_VehBrake
 467              		.section	.text.TB9051_Forward,"ax",%progbits
 468              		.align	2
 469              		.global	TB9051_Forward
 470              		.thumb
 471              		.thumb_func
 472              		.type	TB9051_Forward, %function
 473              	TB9051_Forward:
 474              	.LFB67:
  57:TB9051.c      ****     TB9051_Brake(motor);
 475              		.loc 1 57 0
 476              		.cfi_startproc
 477              		@ args = 0, pretend = 0, frame = 0
 478              		@ frame_needed = 0, uses_anonymous_args = 0
 479              	.LVL77:
 480 0000 38B5     		push	{r3, r4, r5, lr}
 481              		.cfi_def_cfa_offset 16
ARM GAS  C:\Users\JamesH\AppData\Local\Temp\ccSOo4bY.s 			page 13


 482              		.cfi_offset 3, -16
 483              		.cfi_offset 4, -12
 484              		.cfi_offset 5, -8
 485              		.cfi_offset 14, -4
 486 0002 0546     		mov	r5, r0
 487 0004 0C46     		mov	r4, r1
  58:TB9051.c      ****     if (speed >= QuadPWM_MIN_DUTY_CYCLE & speed <= QuadPWM_MAX_DUTY_CYCLE) {
 488              		.loc 1 58 0
 489 0006 FFF7FEFF 		bl	TB9051_Brake
 490              	.LVL78:
  59:TB9051.c      ****     //PWM1 H, PWM2 L
 491              		.loc 1 59 0
 492 000a FF2C     		cmp	r4, #255
 493 000c 11D8     		bhi	.L21
  61:TB9051.c      ****         QuadPWM_SetDutyCycle(1,speed);
 494              		.loc 1 61 0
 495 000e 45B9     		cbnz	r5, .L23
  62:TB9051.c      ****         QuadPWM_SetDutyCycle(2,0);
 496              		.loc 1 62 0
 497 0010 2146     		mov	r1, r4
 498 0012 0120     		movs	r0, #1
 499 0014 FFF7FEFF 		bl	QuadPWM_SetDutyCycle
 500              	.LVL79:
  63:TB9051.c      ****     }
 501              		.loc 1 63 0
 502 0018 0021     		movs	r1, #0
 503 001a 0220     		movs	r0, #2
 504 001c FFF7FEFF 		bl	QuadPWM_SetDutyCycle
 505              	.LVL80:
 506 0020 38BD     		pop	{r3, r4, r5, pc}
 507              	.LVL81:
 508              	.L23:
  66:TB9051.c      ****         QuadPWM_SetDutyCycle(4,0);       
 509              		.loc 1 66 0
 510 0022 2146     		mov	r1, r4
 511 0024 0320     		movs	r0, #3
 512 0026 FFF7FEFF 		bl	QuadPWM_SetDutyCycle
 513              	.LVL82:
  67:TB9051.c      ****     }
 514              		.loc 1 67 0
 515 002a 0021     		movs	r1, #0
 516 002c 0420     		movs	r0, #4
 517 002e FFF7FEFF 		bl	QuadPWM_SetDutyCycle
 518              	.LVL83:
 519              	.L21:
 520 0032 38BD     		pop	{r3, r4, r5, pc}
 521              		.cfi_endproc
 522              	.LFE67:
 523              		.size	TB9051_Forward, .-TB9051_Forward
 524              		.section	.text.TB9051_VehForward,"ax",%progbits
 525              		.align	2
 526              		.global	TB9051_VehForward
 527              		.thumb
 528              		.thumb_func
 529              		.type	TB9051_VehForward, %function
 530              	TB9051_VehForward:
 531              	.LFB64:
ARM GAS  C:\Users\JamesH\AppData\Local\Temp\ccSOo4bY.s 			page 14


  41:TB9051.c      ****     TB9051_Forward(0,speed);
 532              		.loc 1 41 0
 533              		.cfi_startproc
 534              		@ args = 0, pretend = 0, frame = 0
 535              		@ frame_needed = 0, uses_anonymous_args = 0
 536              	.LVL84:
 537 0000 10B5     		push	{r4, lr}
 538              		.cfi_def_cfa_offset 8
 539              		.cfi_offset 4, -8
 540              		.cfi_offset 14, -4
 541 0002 0446     		mov	r4, r0
  42:TB9051.c      ****     TB9051_Forward(1,speed);
 542              		.loc 1 42 0
 543 0004 0146     		mov	r1, r0
 544 0006 0020     		movs	r0, #0
 545              	.LVL85:
 546 0008 FFF7FEFF 		bl	TB9051_Forward
 547              	.LVL86:
  43:TB9051.c      **** }
 548              		.loc 1 43 0
 549 000c 2146     		mov	r1, r4
 550 000e 0120     		movs	r0, #1
 551 0010 FFF7FEFF 		bl	TB9051_Forward
 552              	.LVL87:
 553 0014 10BD     		pop	{r4, pc}
 554              		.cfi_endproc
 555              	.LFE64:
 556              		.size	TB9051_VehForward, .-TB9051_VehForward
 557 0016 00BF     		.section	.text.TB9051_Reverse,"ax",%progbits
 558              		.align	2
 559              		.global	TB9051_Reverse
 560              		.thumb
 561              		.thumb_func
 562              		.type	TB9051_Reverse, %function
 563              	TB9051_Reverse:
 564              	.LFB68:
  73:TB9051.c      ****     TB9051_Brake(motor);
 565              		.loc 1 73 0
 566              		.cfi_startproc
 567              		@ args = 0, pretend = 0, frame = 0
 568              		@ frame_needed = 0, uses_anonymous_args = 0
 569              	.LVL88:
 570 0000 38B5     		push	{r3, r4, r5, lr}
 571              		.cfi_def_cfa_offset 16
 572              		.cfi_offset 3, -16
 573              		.cfi_offset 4, -12
 574              		.cfi_offset 5, -8
 575              		.cfi_offset 14, -4
 576 0002 0546     		mov	r5, r0
 577 0004 0C46     		mov	r4, r1
  74:TB9051.c      ****     if (speed >= QuadPWM_MIN_DUTY_CYCLE & speed <= QuadPWM_MAX_DUTY_CYCLE) {
 578              		.loc 1 74 0
 579 0006 FFF7FEFF 		bl	TB9051_Brake
 580              	.LVL89:
  75:TB9051.c      ****         //PWM1 L, PWM2 H
 581              		.loc 1 75 0
 582 000a FF2C     		cmp	r4, #255
ARM GAS  C:\Users\JamesH\AppData\Local\Temp\ccSOo4bY.s 			page 15


 583 000c 11D8     		bhi	.L27
  77:TB9051.c      ****             QuadPWM_SetDutyCycle(1,0);
 584              		.loc 1 77 0
 585 000e 45B9     		cbnz	r5, .L29
  78:TB9051.c      ****             QuadPWM_SetDutyCycle(2,speed);
 586              		.loc 1 78 0
 587 0010 0021     		movs	r1, #0
 588 0012 0120     		movs	r0, #1
 589 0014 FFF7FEFF 		bl	QuadPWM_SetDutyCycle
 590              	.LVL90:
  79:TB9051.c      ****         }
 591              		.loc 1 79 0
 592 0018 2146     		mov	r1, r4
 593 001a 0220     		movs	r0, #2
 594 001c FFF7FEFF 		bl	QuadPWM_SetDutyCycle
 595              	.LVL91:
 596 0020 38BD     		pop	{r3, r4, r5, pc}
 597              	.LVL92:
 598              	.L29:
  82:TB9051.c      ****             QuadPWM_SetDutyCycle(4,speed);       
 599              		.loc 1 82 0
 600 0022 0021     		movs	r1, #0
 601 0024 0320     		movs	r0, #3
 602 0026 FFF7FEFF 		bl	QuadPWM_SetDutyCycle
 603              	.LVL93:
  83:TB9051.c      ****         }
 604              		.loc 1 83 0
 605 002a 2146     		mov	r1, r4
 606 002c 0420     		movs	r0, #4
 607 002e FFF7FEFF 		bl	QuadPWM_SetDutyCycle
 608              	.LVL94:
 609              	.L27:
 610 0032 38BD     		pop	{r3, r4, r5, pc}
 611              		.cfi_endproc
 612              	.LFE68:
 613              		.size	TB9051_Reverse, .-TB9051_Reverse
 614              		.section	.text.TB9051_VehReverse,"ax",%progbits
 615              		.align	2
 616              		.global	TB9051_VehReverse
 617              		.thumb
 618              		.thumb_func
 619              		.type	TB9051_VehReverse, %function
 620              	TB9051_VehReverse:
 621              	.LFB65:
  46:TB9051.c      ****     TB9051_Reverse(0,speed);
 622              		.loc 1 46 0
 623              		.cfi_startproc
 624              		@ args = 0, pretend = 0, frame = 0
 625              		@ frame_needed = 0, uses_anonymous_args = 0
 626              	.LVL95:
 627 0000 10B5     		push	{r4, lr}
 628              		.cfi_def_cfa_offset 8
 629              		.cfi_offset 4, -8
 630              		.cfi_offset 14, -4
 631 0002 0446     		mov	r4, r0
  47:TB9051.c      ****     TB9051_Reverse(1,speed);
 632              		.loc 1 47 0
ARM GAS  C:\Users\JamesH\AppData\Local\Temp\ccSOo4bY.s 			page 16


 633 0004 0146     		mov	r1, r0
 634 0006 0020     		movs	r0, #0
 635              	.LVL96:
 636 0008 FFF7FEFF 		bl	TB9051_Reverse
 637              	.LVL97:
  48:TB9051.c      **** }
 638              		.loc 1 48 0
 639 000c 2146     		mov	r1, r4
 640 000e 0120     		movs	r0, #1
 641 0010 FFF7FEFF 		bl	TB9051_Reverse
 642              	.LVL98:
 643 0014 10BD     		pop	{r4, pc}
 644              		.cfi_endproc
 645              	.LFE65:
 646              		.size	TB9051_VehReverse, .-TB9051_VehReverse
 647              		.global	__aeabi_dadd
 648              		.global	__aeabi_fmul
 649              		.global	__aeabi_fsub
 650              		.global	__aeabi_f2iz
 651 0016 00BF     		.section	.text.TB9051_VehMoveTo,"ax",%progbits
 652              		.align	2
 653              		.global	TB9051_VehMoveTo
 654              		.thumb
 655              		.thumb_func
 656              		.type	TB9051_VehMoveTo, %function
 657              	TB9051_VehMoveTo:
 658              	.LFB70:
 117:TB9051.c      ****     ///// JINGWEI NAVIGATION /////
 659              		.loc 1 117 0
 660              		.cfi_startproc
 661              		@ args = 0, pretend = 0, frame = 40
 662              		@ frame_needed = 0, uses_anonymous_args = 0
 663              	.LVL99:
 664 0000 2DE9F04F 		push	{r4, r5, r6, r7, r8, r9, r10, fp, lr}
 665              		.cfi_def_cfa_offset 36
 666              		.cfi_offset 4, -36
 667              		.cfi_offset 5, -32
 668              		.cfi_offset 6, -28
 669              		.cfi_offset 7, -24
 670              		.cfi_offset 8, -20
 671              		.cfi_offset 9, -16
 672              		.cfi_offset 10, -12
 673              		.cfi_offset 11, -8
 674              		.cfi_offset 14, -4
 675 0004 8DB0     		sub	sp, sp, #52
 676              		.cfi_def_cfa_offset 88
 677 0006 0446     		mov	r4, r0
 678 0008 8846     		mov	r8, r1
 679              	.LVL100:
 129:TB9051.c      ****     float r = (pow(x,2)+pow(y,2))/(2*sqrt((pow(x,2)+pow(y,2)))*cos(theta)); //radien of mid point
 680              		.loc 1 129 0
 681 000a 0146     		mov	r1, r0
 682              	.LVL101:
 683 000c 4046     		mov	r0, r8
 684              	.LVL102:
 685 000e FFF7FEFF 		bl	__aeabi_fdiv
 686              	.LVL103:
ARM GAS  C:\Users\JamesH\AppData\Local\Temp\ccSOo4bY.s 			page 17


 687 0012 FFF7FEFF 		bl	__aeabi_f2d
 688              	.LVL104:
 689 0016 FFF7FEFF 		bl	atan
 690              	.LVL105:
 691 001a FFF7FEFF 		bl	__aeabi_d2f
 692              	.LVL106:
 693 001e 8246     		mov	r10, r0
 694              	.LVL107:
 130:TB9051.c      ****     float r_right = r - d/2;
 695              		.loc 1 130 0
 696 0020 2046     		mov	r0, r4
 697              	.LVL108:
 698 0022 FFF7FEFF 		bl	__aeabi_f2d
 699              	.LVL109:
 700 0026 CDE90201 		strd	r0, [sp, #8]
 701 002a 0026     		movs	r6, #0
 702 002c 4FF08047 		mov	r7, #1073741824
 703 0030 3246     		mov	r2, r6
 704 0032 3B46     		mov	r3, r7
 705 0034 FFF7FEFF 		bl	pow
 706              	.LVL110:
 707 0038 0446     		mov	r4, r0
 708              	.LVL111:
 709 003a 0D46     		mov	r5, r1
 710 003c 4046     		mov	r0, r8
 711 003e FFF7FEFF 		bl	__aeabi_f2d
 712              	.LVL112:
 713 0042 CDE90401 		strd	r0, [sp, #16]
 714 0046 3246     		mov	r2, r6
 715 0048 3B46     		mov	r3, r7
 716 004a FFF7FEFF 		bl	pow
 717              	.LVL113:
 718 004e 0246     		mov	r2, r0
 719 0050 0B46     		mov	r3, r1
 720 0052 2046     		mov	r0, r4
 721 0054 2946     		mov	r1, r5
 722 0056 FFF7FEFF 		bl	__aeabi_dadd
 723              	.LVL114:
 724 005a 8046     		mov	r8, r0
 725              	.LVL115:
 726 005c 8946     		mov	r9, r1
 727 005e 3246     		mov	r2, r6
 728 0060 3B46     		mov	r3, r7
 729 0062 DDE90201 		ldrd	r0, [sp, #8]
 730 0066 FFF7FEFF 		bl	pow
 731              	.LVL116:
 732 006a 0446     		mov	r4, r0
 733 006c 0D46     		mov	r5, r1
 734 006e 3246     		mov	r2, r6
 735 0070 3B46     		mov	r3, r7
 736 0072 DDE90401 		ldrd	r0, [sp, #16]
 737 0076 FFF7FEFF 		bl	pow
 738              	.LVL117:
 739 007a 0646     		mov	r6, r0
 740 007c 0F46     		mov	r7, r1
 741 007e 3246     		mov	r2, r6
 742 0080 3B46     		mov	r3, r7
ARM GAS  C:\Users\JamesH\AppData\Local\Temp\ccSOo4bY.s 			page 18


 743 0082 2046     		mov	r0, r4
 744 0084 2946     		mov	r1, r5
 745 0086 FFF7FEFF 		bl	__aeabi_dadd
 746              	.LVL118:
 747 008a FFF7FEFF 		bl	sqrt
 748              	.LVL119:
 749 008e 0246     		mov	r2, r0
 750 0090 0B46     		mov	r3, r1
 751 0092 FFF7FEFF 		bl	__aeabi_dadd
 752              	.LVL120:
 753 0096 0446     		mov	r4, r0
 754 0098 0D46     		mov	r5, r1
 755 009a 5046     		mov	r0, r10
 756 009c FFF7FEFF 		bl	__aeabi_f2d
 757              	.LVL121:
 758 00a0 FFF7FEFF 		bl	cos
 759              	.LVL122:
 760 00a4 0246     		mov	r2, r0
 761 00a6 0B46     		mov	r3, r1
 762 00a8 2046     		mov	r0, r4
 763 00aa 2946     		mov	r1, r5
 764 00ac FFF7FEFF 		bl	__aeabi_dmul
 765              	.LVL123:
 766 00b0 0246     		mov	r2, r0
 767 00b2 0B46     		mov	r3, r1
 768 00b4 4046     		mov	r0, r8
 769 00b6 4946     		mov	r1, r9
 770 00b8 FFF7FEFF 		bl	__aeabi_ddiv
 771              	.LVL124:
 772 00bc FFF7FEFF 		bl	__aeabi_d2f
 773              	.LVL125:
 774 00c0 0446     		mov	r4, r0
 775              	.LVL126:
 131:TB9051.c      ****     float r_left = r + d/2;
 776              		.loc 1 131 0
 777 00c2 4FF07C51 		mov	r1, #1056964608
 778 00c6 404B     		ldr	r3, .L35+8
 779 00c8 9868     		ldr	r0, [r3, #8]	@ float
 780              	.LVL127:
 781 00ca FFF7FEFF 		bl	__aeabi_fmul
 782              	.LVL128:
 783 00ce 0546     		mov	r5, r0
 784 00d0 0146     		mov	r1, r0
 785 00d2 2046     		mov	r0, r4
 786 00d4 FFF7FEFF 		bl	__aeabi_fsub
 787              	.LVL129:
 788 00d8 0646     		mov	r6, r0
 789              	.LVL130:
 132:TB9051.c      ****     float v_right = theta*2*PI*r_right/(360*theta); // linear speed of right wheel
 790              		.loc 1 132 0
 791 00da 2946     		mov	r1, r5
 792 00dc 2046     		mov	r0, r4
 793              	.LVL131:
 794 00de FFF7FEFF 		bl	__aeabi_fadd
 795              	.LVL132:
 796 00e2 8346     		mov	fp, r0
 797              	.LVL133:
ARM GAS  C:\Users\JamesH\AppData\Local\Temp\ccSOo4bY.s 			page 19


 133:TB9051.c      ****     float v_left = theta*2*PI*r_left/(360*theta); // linear speed of left wheel
 798              		.loc 1 133 0
 799 00e4 5146     		mov	r1, r10
 800 00e6 5046     		mov	r0, r10
 801              	.LVL134:
 802 00e8 FFF7FEFF 		bl	__aeabi_fadd
 803              	.LVL135:
 804 00ec FFF7FEFF 		bl	__aeabi_f2d
 805              	.LVL136:
 806 00f0 33A3     		adr	r3, .L35
 807 00f2 D3E90023 		ldrd	r2, [r3]
 808 00f6 FFF7FEFF 		bl	__aeabi_dmul
 809              	.LVL137:
 810 00fa 0446     		mov	r4, r0
 811              	.LVL138:
 812 00fc 0D46     		mov	r5, r1
 813 00fe 3046     		mov	r0, r6
 814 0100 FFF7FEFF 		bl	__aeabi_f2d
 815              	.LVL139:
 816 0104 2246     		mov	r2, r4
 817 0106 2B46     		mov	r3, r5
 818 0108 FFF7FEFF 		bl	__aeabi_dmul
 819              	.LVL140:
 820 010c 0646     		mov	r6, r0
 821              	.LVL141:
 822 010e 0F46     		mov	r7, r1
 823 0110 2E49     		ldr	r1, .L35+12
 824 0112 5046     		mov	r0, r10
 825 0114 FFF7FEFF 		bl	__aeabi_fmul
 826              	.LVL142:
 827 0118 FFF7FEFF 		bl	__aeabi_f2d
 828              	.LVL143:
 829 011c 8046     		mov	r8, r0
 830 011e 8946     		mov	r9, r1
 831 0120 0246     		mov	r2, r0
 832 0122 0B46     		mov	r3, r1
 833 0124 3046     		mov	r0, r6
 834 0126 3946     		mov	r1, r7
 835 0128 FFF7FEFF 		bl	__aeabi_ddiv
 836              	.LVL144:
 837 012c FFF7FEFF 		bl	__aeabi_d2f
 838              	.LVL145:
 839 0130 0646     		mov	r6, r0
 840              	.LVL146:
 134:TB9051.c      ****     float w_r = v_right/r_wheel; // angular speed of right wheel
 841              		.loc 1 134 0
 842 0132 5846     		mov	r0, fp
 843              	.LVL147:
 844 0134 FFF7FEFF 		bl	__aeabi_f2d
 845              	.LVL148:
 846 0138 2246     		mov	r2, r4
 847 013a 2B46     		mov	r3, r5
 848 013c FFF7FEFF 		bl	__aeabi_dmul
 849              	.LVL149:
 850 0140 4246     		mov	r2, r8
 851 0142 4B46     		mov	r3, r9
 852 0144 FFF7FEFF 		bl	__aeabi_ddiv
ARM GAS  C:\Users\JamesH\AppData\Local\Temp\ccSOo4bY.s 			page 20


 853              	.LVL150:
 854 0148 FFF7FEFF 		bl	__aeabi_d2f
 855              	.LVL151:
 137:TB9051.c      ****     float vRel_right = round(v_right * 255);
 856              		.loc 1 137 0
 857 014c 2049     		ldr	r1, .L35+16
 858 014e FFF7FEFF 		bl	__aeabi_fmul
 859              	.LVL152:
 860 0152 FFF7FEFF 		bl	__aeabi_f2d
 861              	.LVL153:
 862 0156 FFF7FEFF 		bl	round
 863              	.LVL154:
 864 015a FFF7FEFF 		bl	__aeabi_d2f
 865              	.LVL155:
 866 015e 0446     		mov	r4, r0
 867              	.LVL156:
 138:TB9051.c      ****     char string[20]; sprintf(string, "R: %f. L: %f \n", vRel_right, vRel_left); UART_PutString(stri
 868              		.loc 1 138 0
 869 0160 1B49     		ldr	r1, .L35+16
 870 0162 3046     		mov	r0, r6
 871              	.LVL157:
 872 0164 FFF7FEFF 		bl	__aeabi_fmul
 873              	.LVL158:
 874 0168 FFF7FEFF 		bl	__aeabi_f2d
 875              	.LVL159:
 876 016c FFF7FEFF 		bl	round
 877              	.LVL160:
 878 0170 FFF7FEFF 		bl	__aeabi_d2f
 879              	.LVL161:
 880 0174 0546     		mov	r5, r0
 881              	.LVL162:
 139:TB9051.c      ****     
 882              		.loc 1 139 0
 883 0176 FFF7FEFF 		bl	__aeabi_f2d
 884              	.LVL163:
 885 017a 0646     		mov	r6, r0
 886              	.LVL164:
 887 017c 0F46     		mov	r7, r1
 888 017e 2046     		mov	r0, r4
 889 0180 FFF7FEFF 		bl	__aeabi_f2d
 890              	.LVL165:
 891 0184 CDE90001 		strd	r0, [sp]
 892 0188 3246     		mov	r2, r6
 893 018a 3B46     		mov	r3, r7
 894 018c 1149     		ldr	r1, .L35+20
 895 018e 07A8     		add	r0, sp, #28
 896 0190 FFF7FEFF 		bl	sprintf
 897              	.LVL166:
 898 0194 07A8     		add	r0, sp, #28
 899 0196 FFF7FEFF 		bl	UART_PutString
 900              	.LVL167:
 141:TB9051.c      ****     TB9051_Forward(1, vRel_left);
 901              		.loc 1 141 0
 902 019a 2846     		mov	r0, r5
 903 019c FFF7FEFF 		bl	__aeabi_f2iz
 904              	.LVL168:
 905 01a0 0146     		mov	r1, r0
ARM GAS  C:\Users\JamesH\AppData\Local\Temp\ccSOo4bY.s 			page 21


 906 01a2 0020     		movs	r0, #0
 907 01a4 FFF7FEFF 		bl	TB9051_Forward
 908              	.LVL169:
 142:TB9051.c      **** }
 909              		.loc 1 142 0
 910 01a8 2046     		mov	r0, r4
 911 01aa FFF7FEFF 		bl	__aeabi_f2iz
 912              	.LVL170:
 913 01ae 0146     		mov	r1, r0
 914 01b0 0120     		movs	r0, #1
 915 01b2 FFF7FEFF 		bl	TB9051_Forward
 916              	.LVL171:
 143:TB9051.c      **** 
 917              		.loc 1 143 0
 918 01b6 0DB0     		add	sp, sp, #52
 919              		.cfi_def_cfa_offset 36
 920              		@ sp needed
 921 01b8 BDE8F08F 		pop	{r4, r5, r6, r7, r8, r9, r10, fp, pc}
 922              	.LVL172:
 923              	.L36:
 924 01bc AFF30080 		.align	3
 925              	.L35:
 926 01c0 137CD3F4 		.word	-187466733
 927 01c4 D9210940 		.word	1074340313
 928 01c8 00000000 		.word	.LANCHOR1
 929 01cc 0000B443 		.word	1135869952
 930 01d0 00007F43 		.word	1132396544
 931 01d4 00000000 		.word	.LC0
 932              		.cfi_endproc
 933              	.LFE70:
 934              		.size	TB9051_VehMoveTo, .-TB9051_VehMoveTo
 935              		.global	theta
 936              		.global	r_wheel
 937              		.global	d
 938              		.global	QD2_Old
 939              		.global	QD1_Old
 940              		.data
 941              		.align	2
 942              		.set	.LANCHOR1,. + 0
 943              		.type	r_wheel, %object
 944              		.size	r_wheel, 4
 945              	r_wheel:
 946 0000 4260E53C 		.word	1021665346
 947              		.type	theta, %object
 948              		.size	theta, 4
 949              	theta:
 950 0004 0000F040 		.word	1089470464
 951              		.type	d, %object
 952              		.size	d, 4
 953              	d:
 954 0008 5C8F423E 		.word	1044549468
 955              		.section	.rodata.str1.4,"aMS",%progbits,1
 956              		.align	2
 957              	.LC0:
 958 0000 523A2025 		.ascii	"R: %f. L: %f \012\000"
 958      662E204C 
 958      3A202566 
ARM GAS  C:\Users\JamesH\AppData\Local\Temp\ccSOo4bY.s 			page 22


 958      200A00
 959              		.bss
 960              		.align	2
 961              		.set	.LANCHOR0,. + 0
 962              		.type	QD1_Old, %object
 963              		.size	QD1_Old, 4
 964              	QD1_Old:
 965 0000 00000000 		.space	4
 966              		.type	QD2_Old, %object
 967              		.size	QD2_Old, 4
 968              	QD2_Old:
 969 0004 00000000 		.space	4
 970              		.text
 971              	.Letext0:
 972              		.file 2 "c:\\program files (x86)\\cypress\\psoc creator\\4.4\\psoc creator\\import\\gnu\\arm\\5.4.
 973              		.file 3 "c:\\program files (x86)\\cypress\\psoc creator\\4.4\\psoc creator\\import\\gnu\\arm\\5.4.
 974              		.file 4 "Generated_Source\\PSoC5/cytypes.h"
 975              		.file 5 "<built-in>"
 976              		.file 6 "Generated_Source\\PSoC5/core_cm3.h"
 977              		.file 7 "Generated_Source\\PSoC5/TB9051_QD1.h"
 978              		.file 8 "Generated_Source\\PSoC5/TB9051_QD2.h"
 979              		.file 9 "Generated_Source\\PSoC5/QuadPWM.h"
 980              		.file 10 "Generated_Source\\PSoC5/TB9051_EN.h"
 981              		.file 11 "Generated_Source\\PSoC5/QD1_Timer.h"
 982              		.file 12 "Generated_Source\\PSoC5/QD1_ISR.h"
 983              		.file 13 "Generated_Source\\PSoC5/CyLib.h"
 984              		.file 14 "Generated_Source\\PSoC5/UART.h"